Archive member included because of file (symbol)

c:/altera/11.0sp1/nios2eds/bin/gnu/h-i686-mingw32/bin/../lib/gcc/nios2-elf/4.1.2/../../../../nios2-elf/lib\libc.a(lib_a-ctype_.o)
                              obj/simple_socket_server.o (__ctype_ptr)
c:/altera/11.0sp1/nios2eds/bin/gnu/h-i686-mingw32/bin/../lib/gcc/nios2-elf/4.1.2/../../../../nios2-elf/lib\libc.a(lib_a-fprintf.o)
                              obj/alt_error_handler.o (fprintf)
c:/altera/11.0sp1/nios2eds/bin/gnu/h-i686-mingw32/bin/../lib/gcc/nios2-elf/4.1.2/../../../../nios2-elf/lib\libc.a(lib_a-fwrite.o)
                              obj/alt_error_handler.o (fwrite)
c:/altera/11.0sp1/nios2eds/bin/gnu/h-i686-mingw32/bin/../lib/gcc/nios2-elf/4.1.2/../../../../nios2-elf/lib\libc.a(lib_a-impure.o)
                              obj/alt_error_handler.o (_impure_ptr)
c:/altera/11.0sp1/nios2eds/bin/gnu/h-i686-mingw32/bin/../lib/gcc/nios2-elf/4.1.2/../../../../nios2-elf/lib\libc.a(lib_a-memcpy.o)
                              obj/simple_socket_server.o (memcpy)
c:/altera/11.0sp1/nios2eds/bin/gnu/h-i686-mingw32/bin/../lib/gcc/nios2-elf/4.1.2/../../../../nios2-elf/lib\libc.a(lib_a-memmove.o)
                              obj/simple_socket_server.o (memmove)
c:/altera/11.0sp1/nios2eds/bin/gnu/h-i686-mingw32/bin/../lib/gcc/nios2-elf/4.1.2/../../../../nios2-elf/lib\libc.a(lib_a-memset.o)
                              obj/simple_socket_server.o (memset)
c:/altera/11.0sp1/nios2eds/bin/gnu/h-i686-mingw32/bin/../lib/gcc/nios2-elf/4.1.2/../../../../nios2-elf/lib\libc.a(lib_a-perror.o)
                              obj/alt_error_handler.o (perror)
c:/altera/11.0sp1/nios2eds/bin/gnu/h-i686-mingw32/bin/../lib/gcc/nios2-elf/4.1.2/../../../../nios2-elf/lib\libc.a(lib_a-printf.o)
                              obj/alt_error_handler.o (printf)
c:/altera/11.0sp1/nios2eds/bin/gnu/h-i686-mingw32/bin/../lib/gcc/nios2-elf/4.1.2/../../../../nios2-elf/lib\libc.a(lib_a-puts.o)
                              obj/alt_error_handler.o (puts)
c:/altera/11.0sp1/nios2eds/bin/gnu/h-i686-mingw32/bin/../lib/gcc/nios2-elf/4.1.2/../../../../nios2-elf/lib\libc.a(lib_a-sprintf.o)
                              obj/simple_socket_server.o (sprintf)
c:/altera/11.0sp1/nios2eds/bin/gnu/h-i686-mingw32/bin/../lib/gcc/nios2-elf/4.1.2/../../../../nios2-elf/lib\libc.a(lib_a-strchr.o)
                              obj/simple_socket_server.o (strchr)
c:/altera/11.0sp1/nios2eds/bin/gnu/h-i686-mingw32/bin/../lib/gcc/nios2-elf/4.1.2/../../../../nios2-elf/lib\libc.a(lib_a-strerror.o)
                              c:/altera/11.0sp1/nios2eds/bin/gnu/h-i686-mingw32/bin/../lib/gcc/nios2-elf/4.1.2/../../../../nios2-elf/lib\libc.a(lib_a-perror.o) (strerror)
c:/altera/11.0sp1/nios2eds/bin/gnu/h-i686-mingw32/bin/../lib/gcc/nios2-elf/4.1.2/../../../../nios2-elf/lib\libc.a(lib_a-strlen.o)
                              c:/altera/11.0sp1/nios2eds/bin/gnu/h-i686-mingw32/bin/../lib/gcc/nios2-elf/4.1.2/../../../../nios2-elf/lib\libc.a(lib_a-puts.o) (strlen)
c:/altera/11.0sp1/nios2eds/bin/gnu/h-i686-mingw32/bin/../lib/gcc/nios2-elf/4.1.2/../../../../nios2-elf/lib\libc.a(lib_a-u_strerr.o)
                              c:/altera/11.0sp1/nios2eds/bin/gnu/h-i686-mingw32/bin/../lib/gcc/nios2-elf/4.1.2/../../../../nios2-elf/lib\libc.a(lib_a-strerror.o) (_user_strerror)
c:/altera/11.0sp1/nios2eds/bin/gnu/h-i686-mingw32/bin/../lib/gcc/nios2-elf/4.1.2/../../../../nios2-elf/lib\libc.a(lib_a-vfprintf.o)
                              c:/altera/11.0sp1/nios2eds/bin/gnu/h-i686-mingw32/bin/../lib/gcc/nios2-elf/4.1.2/../../../../nios2-elf/lib\libc.a(lib_a-printf.o) (___vfprintf_internal_r)
c:/altera/11.0sp1/nios2eds/bin/gnu/h-i686-mingw32/bin/../lib/gcc/nios2-elf/4.1.2/../../../../nios2-elf/lib\libc.a(lib_a-wsetup.o)
                              c:/altera/11.0sp1/nios2eds/bin/gnu/h-i686-mingw32/bin/../lib/gcc/nios2-elf/4.1.2/../../../../nios2-elf/lib\libc.a(lib_a-vfprintf.o) (__swsetup_r)
c:/altera/11.0sp1/nios2eds/bin/gnu/h-i686-mingw32/bin/../lib/gcc/nios2-elf/4.1.2/../../../../nios2-elf/lib\libc.a(lib_a-dtoa.o)
                              c:/altera/11.0sp1/nios2eds/bin/gnu/h-i686-mingw32/bin/../lib/gcc/nios2-elf/4.1.2/../../../../nios2-elf/lib\libc.a(lib_a-vfprintf.o) (_dtoa_r)
c:/altera/11.0sp1/nios2eds/bin/gnu/h-i686-mingw32/bin/../lib/gcc/nios2-elf/4.1.2/../../../../nios2-elf/lib\libc.a(lib_a-fflush.o)
                              c:/altera/11.0sp1/nios2eds/bin/gnu/h-i686-mingw32/bin/../lib/gcc/nios2-elf/4.1.2/../../../../nios2-elf/lib\libc.a(lib_a-vfprintf.o) (_fflush_r)
c:/altera/11.0sp1/nios2eds/bin/gnu/h-i686-mingw32/bin/../lib/gcc/nios2-elf/4.1.2/../../../../nios2-elf/lib\libc.a(lib_a-findfp.o)
                              c:/altera/11.0sp1/nios2eds/bin/gnu/h-i686-mingw32/bin/../lib/gcc/nios2-elf/4.1.2/../../../../nios2-elf/lib\libc.a(lib_a-fwrite.o) (__sinit)
c:/altera/11.0sp1/nios2eds/bin/gnu/h-i686-mingw32/bin/../lib/gcc/nios2-elf/4.1.2/../../../../nios2-elf/lib\libc.a(lib_a-fputc.o)
                              c:/altera/11.0sp1/nios2eds/bin/gnu/h-i686-mingw32/bin/../lib/gcc/nios2-elf/4.1.2/../../../../nios2-elf/lib\libc.a(lib_a-perror.o) (fputc)
c:/altera/11.0sp1/nios2eds/bin/gnu/h-i686-mingw32/bin/../lib/gcc/nios2-elf/4.1.2/../../../../nios2-elf/lib\libc.a(lib_a-fputs.o)
                              c:/altera/11.0sp1/nios2eds/bin/gnu/h-i686-mingw32/bin/../lib/gcc/nios2-elf/4.1.2/../../../../nios2-elf/lib\libc.a(lib_a-perror.o) (fputs)
c:/altera/11.0sp1/nios2eds/bin/gnu/h-i686-mingw32/bin/../lib/gcc/nios2-elf/4.1.2/../../../../nios2-elf/lib\libc.a(lib_a-freer.o)
                              c:/altera/11.0sp1/nios2eds/bin/gnu/h-i686-mingw32/bin/../lib/gcc/nios2-elf/4.1.2/../../../../nios2-elf/lib\libc.a(lib_a-wsetup.o) (_free_r)
c:/altera/11.0sp1/nios2eds/bin/gnu/h-i686-mingw32/bin/../lib/gcc/nios2-elf/4.1.2/../../../../nios2-elf/lib\libc.a(lib_a-fvwrite.o)
                              c:/altera/11.0sp1/nios2eds/bin/gnu/h-i686-mingw32/bin/../lib/gcc/nios2-elf/4.1.2/../../../../nios2-elf/lib\libc.a(lib_a-fwrite.o) (__sfvwrite_r)
c:/altera/11.0sp1/nios2eds/bin/gnu/h-i686-mingw32/bin/../lib/gcc/nios2-elf/4.1.2/../../../../nios2-elf/lib\libc.a(lib_a-fwalk.o)
                              c:/altera/11.0sp1/nios2eds/bin/gnu/h-i686-mingw32/bin/../lib/gcc/nios2-elf/4.1.2/../../../../nios2-elf/lib\libc.a(lib_a-fflush.o) (_fwalk_reent)
c:/altera/11.0sp1/nios2eds/bin/gnu/h-i686-mingw32/bin/../lib/gcc/nios2-elf/4.1.2/../../../../nios2-elf/lib\libc.a(lib_a-locale.o)
                              c:/altera/11.0sp1/nios2eds/bin/gnu/h-i686-mingw32/bin/../lib/gcc/nios2-elf/4.1.2/../../../../nios2-elf/lib\libc.a(lib_a-vfprintf.o) (_localeconv_r)
c:/altera/11.0sp1/nios2eds/bin/gnu/h-i686-mingw32/bin/../lib/gcc/nios2-elf/4.1.2/../../../../nios2-elf/lib\libc.a(lib_a-makebuf.o)
                              c:/altera/11.0sp1/nios2eds/bin/gnu/h-i686-mingw32/bin/../lib/gcc/nios2-elf/4.1.2/../../../../nios2-elf/lib\libc.a(lib_a-wsetup.o) (__smakebuf_r)
c:/altera/11.0sp1/nios2eds/bin/gnu/h-i686-mingw32/bin/../lib/gcc/nios2-elf/4.1.2/../../../../nios2-elf/lib\libc.a(lib_a-mallocr.o)
                              c:/altera/11.0sp1/nios2eds/bin/gnu/h-i686-mingw32/bin/../lib/gcc/nios2-elf/4.1.2/../../../../nios2-elf/lib\libc.a(lib_a-findfp.o) (_malloc_r)
c:/altera/11.0sp1/nios2eds/bin/gnu/h-i686-mingw32/bin/../lib/gcc/nios2-elf/4.1.2/../../../../nios2-elf/lib\libc.a(lib_a-memchr.o)
                              c:/altera/11.0sp1/nios2eds/bin/gnu/h-i686-mingw32/bin/../lib/gcc/nios2-elf/4.1.2/../../../../nios2-elf/lib\libc.a(lib_a-vfprintf.o) (memchr)
c:/altera/11.0sp1/nios2eds/bin/gnu/h-i686-mingw32/bin/../lib/gcc/nios2-elf/4.1.2/../../../../nios2-elf/lib\libc.a(lib_a-mprec.o)
                              c:/altera/11.0sp1/nios2eds/bin/gnu/h-i686-mingw32/bin/../lib/gcc/nios2-elf/4.1.2/../../../../nios2-elf/lib\libc.a(lib_a-dtoa.o) (_Bfree)
c:/altera/11.0sp1/nios2eds/bin/gnu/h-i686-mingw32/bin/../lib/gcc/nios2-elf/4.1.2/../../../../nios2-elf/lib\libc.a(lib_a-putc.o)
                              c:/altera/11.0sp1/nios2eds/bin/gnu/h-i686-mingw32/bin/../lib/gcc/nios2-elf/4.1.2/../../../../nios2-elf/lib\libc.a(lib_a-fputc.o) (_putc_r)
c:/altera/11.0sp1/nios2eds/bin/gnu/h-i686-mingw32/bin/../lib/gcc/nios2-elf/4.1.2/../../../../nios2-elf/lib\libc.a(lib_a-reallocr.o)
                              c:/altera/11.0sp1/nios2eds/bin/gnu/h-i686-mingw32/bin/../lib/gcc/nios2-elf/4.1.2/../../../../nios2-elf/lib\libc.a(lib_a-fvwrite.o) (_realloc_r)
c:/altera/11.0sp1/nios2eds/bin/gnu/h-i686-mingw32/bin/../lib/gcc/nios2-elf/4.1.2/../../../../nios2-elf/lib\libc.a(lib_a-s_isinfd.o)
                              c:/altera/11.0sp1/nios2eds/bin/gnu/h-i686-mingw32/bin/../lib/gcc/nios2-elf/4.1.2/../../../../nios2-elf/lib\libc.a(lib_a-vfprintf.o) (__isinfd)
c:/altera/11.0sp1/nios2eds/bin/gnu/h-i686-mingw32/bin/../lib/gcc/nios2-elf/4.1.2/../../../../nios2-elf/lib\libc.a(lib_a-s_isnand.o)
                              c:/altera/11.0sp1/nios2eds/bin/gnu/h-i686-mingw32/bin/../lib/gcc/nios2-elf/4.1.2/../../../../nios2-elf/lib\libc.a(lib_a-vfprintf.o) (__isnand)
c:/altera/11.0sp1/nios2eds/bin/gnu/h-i686-mingw32/bin/../lib/gcc/nios2-elf/4.1.2/../../../../nios2-elf/lib\libc.a(lib_a-sbrkr.o)
                              c:/altera/11.0sp1/nios2eds/bin/gnu/h-i686-mingw32/bin/../lib/gcc/nios2-elf/4.1.2/../../../../nios2-elf/lib\libc.a(lib_a-freer.o) (_sbrk_r)
c:/altera/11.0sp1/nios2eds/bin/gnu/h-i686-mingw32/bin/../lib/gcc/nios2-elf/4.1.2/../../../../nios2-elf/lib\libc.a(lib_a-stdio.o)
                              c:/altera/11.0sp1/nios2eds/bin/gnu/h-i686-mingw32/bin/../lib/gcc/nios2-elf/4.1.2/../../../../nios2-elf/lib\libc.a(lib_a-findfp.o) (__sclose)
c:/altera/11.0sp1/nios2eds/bin/gnu/h-i686-mingw32/bin/../lib/gcc/nios2-elf/4.1.2/../../../../nios2-elf/lib\libc.a(lib_a-strcmp.o)
                              c:/altera/11.0sp1/nios2eds/bin/gnu/h-i686-mingw32/bin/../lib/gcc/nios2-elf/4.1.2/../../../../nios2-elf/lib\libc.a(lib_a-locale.o) (strcmp)
c:/altera/11.0sp1/nios2eds/bin/gnu/h-i686-mingw32/bin/../lib/gcc/nios2-elf/4.1.2/../../../../nios2-elf/lib\libc.a(lib_a-wbuf.o)
                              c:/altera/11.0sp1/nios2eds/bin/gnu/h-i686-mingw32/bin/../lib/gcc/nios2-elf/4.1.2/../../../../nios2-elf/lib\libc.a(lib_a-putc.o) (__swbuf_r)
c:/altera/11.0sp1/nios2eds/bin/gnu/h-i686-mingw32/bin/../lib/gcc/nios2-elf/4.1.2/../../../../nios2-elf/lib\libc.a(lib_a-writer.o)
                              c:/altera/11.0sp1/nios2eds/bin/gnu/h-i686-mingw32/bin/../lib/gcc/nios2-elf/4.1.2/../../../../nios2-elf/lib\libc.a(lib_a-stdio.o) (_write_r)
c:/altera/11.0sp1/nios2eds/bin/gnu/h-i686-mingw32/bin/../lib/gcc/nios2-elf/4.1.2/../../../../nios2-elf/lib\libc.a(lib_a-callocr.o)
                              c:/altera/11.0sp1/nios2eds/bin/gnu/h-i686-mingw32/bin/../lib/gcc/nios2-elf/4.1.2/../../../../nios2-elf/lib\libc.a(lib_a-mprec.o) (_calloc_r)
c:/altera/11.0sp1/nios2eds/bin/gnu/h-i686-mingw32/bin/../lib/gcc/nios2-elf/4.1.2/../../../../nios2-elf/lib\libc.a(lib_a-closer.o)
                              c:/altera/11.0sp1/nios2eds/bin/gnu/h-i686-mingw32/bin/../lib/gcc/nios2-elf/4.1.2/../../../../nios2-elf/lib\libc.a(lib_a-stdio.o) (_close_r)
c:/altera/11.0sp1/nios2eds/bin/gnu/h-i686-mingw32/bin/../lib/gcc/nios2-elf/4.1.2/../../../../nios2-elf/lib\libc.a(lib_a-fclose.o)
                              c:/altera/11.0sp1/nios2eds/bin/gnu/h-i686-mingw32/bin/../lib/gcc/nios2-elf/4.1.2/../../../../nios2-elf/lib\libc.a(lib_a-findfp.o) (fclose)
c:/altera/11.0sp1/nios2eds/bin/gnu/h-i686-mingw32/bin/../lib/gcc/nios2-elf/4.1.2/../../../../nios2-elf/lib\libc.a(lib_a-fstatr.o)
                              c:/altera/11.0sp1/nios2eds/bin/gnu/h-i686-mingw32/bin/../lib/gcc/nios2-elf/4.1.2/../../../../nios2-elf/lib\libc.a(lib_a-makebuf.o) (_fstat_r)
c:/altera/11.0sp1/nios2eds/bin/gnu/h-i686-mingw32/bin/../lib/gcc/nios2-elf/4.1.2/../../../../nios2-elf/lib\libc.a(lib_a-int_errno.o)
                              c:/altera/11.0sp1/nios2eds/bin/gnu/h-i686-mingw32/bin/../lib/gcc/nios2-elf/4.1.2/../../../../nios2-elf/lib\libc.a(lib_a-sbrkr.o) (errno)
c:/altera/11.0sp1/nios2eds/bin/gnu/h-i686-mingw32/bin/../lib/gcc/nios2-elf/4.1.2/../../../../nios2-elf/lib\libc.a(lib_a-isattyr.o)
                              c:/altera/11.0sp1/nios2eds/bin/gnu/h-i686-mingw32/bin/../lib/gcc/nios2-elf/4.1.2/../../../../nios2-elf/lib\libc.a(lib_a-makebuf.o) (_isatty_r)
c:/altera/11.0sp1/nios2eds/bin/gnu/h-i686-mingw32/bin/../lib/gcc/nios2-elf/4.1.2/../../../../nios2-elf/lib\libc.a(lib_a-lseekr.o)
                              c:/altera/11.0sp1/nios2eds/bin/gnu/h-i686-mingw32/bin/../lib/gcc/nios2-elf/4.1.2/../../../../nios2-elf/lib\libc.a(lib_a-stdio.o) (_lseek_r)
c:/altera/11.0sp1/nios2eds/bin/gnu/h-i686-mingw32/bin/../lib/gcc/nios2-elf/4.1.2/../../../../nios2-elf/lib\libc.a(lib_a-readr.o)
                              c:/altera/11.0sp1/nios2eds/bin/gnu/h-i686-mingw32/bin/../lib/gcc/nios2-elf/4.1.2/../../../../nios2-elf/lib\libc.a(lib_a-stdio.o) (_read_r)
c:/altera/11.0sp1/nios2eds/bin/gnu/h-i686-mingw32/bin/../lib/gcc/nios2-elf/4.1.2\libgcc.a(_udivdi3.o)
                              c:/altera/11.0sp1/nios2eds/bin/gnu/h-i686-mingw32/bin/../lib/gcc/nios2-elf/4.1.2/../../../../nios2-elf/lib\libc.a(lib_a-vfprintf.o) (__udivdi3)
c:/altera/11.0sp1/nios2eds/bin/gnu/h-i686-mingw32/bin/../lib/gcc/nios2-elf/4.1.2\libgcc.a(_umoddi3.o)
                              c:/altera/11.0sp1/nios2eds/bin/gnu/h-i686-mingw32/bin/../lib/gcc/nios2-elf/4.1.2/../../../../nios2-elf/lib\libc.a(lib_a-vfprintf.o) (__umoddi3)
c:/altera/11.0sp1/nios2eds/bin/gnu/h-i686-mingw32/bin/../lib/gcc/nios2-elf/4.1.2\libgcc.a(_addsub_df.o)
                              c:/altera/11.0sp1/nios2eds/bin/gnu/h-i686-mingw32/bin/../lib/gcc/nios2-elf/4.1.2/../../../../nios2-elf/lib\libc.a(lib_a-dtoa.o) (__subdf3)
c:/altera/11.0sp1/nios2eds/bin/gnu/h-i686-mingw32/bin/../lib/gcc/nios2-elf/4.1.2\libgcc.a(_mul_df.o)
                              c:/altera/11.0sp1/nios2eds/bin/gnu/h-i686-mingw32/bin/../lib/gcc/nios2-elf/4.1.2/../../../../nios2-elf/lib\libc.a(lib_a-dtoa.o) (__muldf3)
c:/altera/11.0sp1/nios2eds/bin/gnu/h-i686-mingw32/bin/../lib/gcc/nios2-elf/4.1.2\libgcc.a(_div_df.o)
                              c:/altera/11.0sp1/nios2eds/bin/gnu/h-i686-mingw32/bin/../lib/gcc/nios2-elf/4.1.2/../../../../nios2-elf/lib\libc.a(lib_a-dtoa.o) (__divdf3)
c:/altera/11.0sp1/nios2eds/bin/gnu/h-i686-mingw32/bin/../lib/gcc/nios2-elf/4.1.2\libgcc.a(_eq_df.o)
                              c:/altera/11.0sp1/nios2eds/bin/gnu/h-i686-mingw32/bin/../lib/gcc/nios2-elf/4.1.2/../../../../nios2-elf/lib\libc.a(lib_a-vfprintf.o) (__eqdf2)
c:/altera/11.0sp1/nios2eds/bin/gnu/h-i686-mingw32/bin/../lib/gcc/nios2-elf/4.1.2\libgcc.a(_ne_df.o)
                              c:/altera/11.0sp1/nios2eds/bin/gnu/h-i686-mingw32/bin/../lib/gcc/nios2-elf/4.1.2/../../../../nios2-elf/lib\libc.a(lib_a-vfprintf.o) (__nedf2)
c:/altera/11.0sp1/nios2eds/bin/gnu/h-i686-mingw32/bin/../lib/gcc/nios2-elf/4.1.2\libgcc.a(_gt_df.o)
                              c:/altera/11.0sp1/nios2eds/bin/gnu/h-i686-mingw32/bin/../lib/gcc/nios2-elf/4.1.2/../../../../nios2-elf/lib\libc.a(lib_a-dtoa.o) (__gtdf2)
c:/altera/11.0sp1/nios2eds/bin/gnu/h-i686-mingw32/bin/../lib/gcc/nios2-elf/4.1.2\libgcc.a(_ge_df.o)
                              c:/altera/11.0sp1/nios2eds/bin/gnu/h-i686-mingw32/bin/../lib/gcc/nios2-elf/4.1.2/../../../../nios2-elf/lib\libc.a(lib_a-dtoa.o) (__gedf2)
c:/altera/11.0sp1/nios2eds/bin/gnu/h-i686-mingw32/bin/../lib/gcc/nios2-elf/4.1.2\libgcc.a(_lt_df.o)
                              c:/altera/11.0sp1/nios2eds/bin/gnu/h-i686-mingw32/bin/../lib/gcc/nios2-elf/4.1.2/../../../../nios2-elf/lib\libc.a(lib_a-vfprintf.o) (__ltdf2)
c:/altera/11.0sp1/nios2eds/bin/gnu/h-i686-mingw32/bin/../lib/gcc/nios2-elf/4.1.2\libgcc.a(_si_to_df.o)
                              c:/altera/11.0sp1/nios2eds/bin/gnu/h-i686-mingw32/bin/../lib/gcc/nios2-elf/4.1.2/../../../../nios2-elf/lib\libc.a(lib_a-dtoa.o) (__floatsidf)
c:/altera/11.0sp1/nios2eds/bin/gnu/h-i686-mingw32/bin/../lib/gcc/nios2-elf/4.1.2\libgcc.a(_df_to_si.o)
                              c:/altera/11.0sp1/nios2eds/bin/gnu/h-i686-mingw32/bin/../lib/gcc/nios2-elf/4.1.2/../../../../nios2-elf/lib\libc.a(lib_a-dtoa.o) (__fixdfsi)
c:/altera/11.0sp1/nios2eds/bin/gnu/h-i686-mingw32/bin/../lib/gcc/nios2-elf/4.1.2\libgcc.a(_thenan_df.o)
                              c:/altera/11.0sp1/nios2eds/bin/gnu/h-i686-mingw32/bin/../lib/gcc/nios2-elf/4.1.2\libgcc.a(_addsub_df.o) (__thenan_df)
c:/altera/11.0sp1/nios2eds/bin/gnu/h-i686-mingw32/bin/../lib/gcc/nios2-elf/4.1.2\libgcc.a(_usi_to_df.o)
                              c:/altera/11.0sp1/nios2eds/bin/gnu/h-i686-mingw32/bin/../lib/gcc/nios2-elf/4.1.2/../../../../nios2-elf/lib\libc.a(lib_a-dtoa.o) (__floatunsidf)
c:/altera/11.0sp1/nios2eds/bin/gnu/h-i686-mingw32/bin/../lib/gcc/nios2-elf/4.1.2\libgcc.a(lib2-divmod.o)
                              c:/altera/11.0sp1/nios2eds/bin/gnu/h-i686-mingw32/bin/../lib/gcc/nios2-elf/4.1.2/../../../../nios2-elf/lib\libc.a(lib_a-vfprintf.o) (__divsi3)
c:/altera/11.0sp1/nios2eds/bin/gnu/h-i686-mingw32/bin/../lib/gcc/nios2-elf/4.1.2\libgcc.a(_muldi3.o)
                              c:/altera/11.0sp1/nios2eds/bin/gnu/h-i686-mingw32/bin/../lib/gcc/nios2-elf/4.1.2\libgcc.a(_mul_df.o) (__muldi3)
c:/altera/11.0sp1/nios2eds/bin/gnu/h-i686-mingw32/bin/../lib/gcc/nios2-elf/4.1.2\libgcc.a(_clz.o)
                              c:/altera/11.0sp1/nios2eds/bin/gnu/h-i686-mingw32/bin/../lib/gcc/nios2-elf/4.1.2\libgcc.a(_udivdi3.o) (__clz_tab)
c:/altera/11.0sp1/nios2eds/bin/gnu/h-i686-mingw32/bin/../lib/gcc/nios2-elf/4.1.2\libgcc.a(_clzsi2.o)
                              c:/altera/11.0sp1/nios2eds/bin/gnu/h-i686-mingw32/bin/../lib/gcc/nios2-elf/4.1.2\libgcc.a(_si_to_df.o) (__clzsi2)
c:/altera/11.0sp1/nios2eds/bin/gnu/h-i686-mingw32/bin/../lib/gcc/nios2-elf/4.1.2\libgcc.a(_pack_df.o)
                              c:/altera/11.0sp1/nios2eds/bin/gnu/h-i686-mingw32/bin/../lib/gcc/nios2-elf/4.1.2\libgcc.a(_addsub_df.o) (__pack_d)
c:/altera/11.0sp1/nios2eds/bin/gnu/h-i686-mingw32/bin/../lib/gcc/nios2-elf/4.1.2\libgcc.a(_unpack_df.o)
                              c:/altera/11.0sp1/nios2eds/bin/gnu/h-i686-mingw32/bin/../lib/gcc/nios2-elf/4.1.2\libgcc.a(_addsub_df.o) (__unpack_d)
c:/altera/11.0sp1/nios2eds/bin/gnu/h-i686-mingw32/bin/../lib/gcc/nios2-elf/4.1.2\libgcc.a(_fpcmp_parts_df.o)
                              c:/altera/11.0sp1/nios2eds/bin/gnu/h-i686-mingw32/bin/../lib/gcc/nios2-elf/4.1.2\libgcc.a(_eq_df.o) (__fpcmp_parts_d)
../tcpip_test_bsp/\libucosii_bsp.a(alt_fstat.o)
                              c:/altera/11.0sp1/nios2eds/bin/gnu/h-i686-mingw32/bin/../lib/gcc/nios2-elf/4.1.2/../../../../nios2-elf/lib\libc.a(lib_a-fstatr.o) (fstat)
../tcpip_test_bsp/\libucosii_bsp.a(alt_isatty.o)
                              c:/altera/11.0sp1/nios2eds/bin/gnu/h-i686-mingw32/bin/../lib/gcc/nios2-elf/4.1.2/../../../../nios2-elf/lib\libc.a(lib_a-isattyr.o) (isatty)
../tcpip_test_bsp/\libucosii_bsp.a(alt_load.o)
                              ../tcpip_test_bsp//obj/HAL/src/crt0.o (alt_load)
../tcpip_test_bsp/\libucosii_bsp.a(alt_lseek.o)
                              c:/altera/11.0sp1/nios2eds/bin/gnu/h-i686-mingw32/bin/../lib/gcc/nios2-elf/4.1.2/../../../../nios2-elf/lib\libc.a(lib_a-lseekr.o) (lseek)
../tcpip_test_bsp/\libucosii_bsp.a(alt_main.o)
                              ../tcpip_test_bsp//obj/HAL/src/crt0.o (alt_main)
../tcpip_test_bsp/\libucosii_bsp.a(alt_sbrk.o)
                              c:/altera/11.0sp1/nios2eds/bin/gnu/h-i686-mingw32/bin/../lib/gcc/nios2-elf/4.1.2/../../../../nios2-elf/lib\libc.a(lib_a-sbrkr.o) (sbrk)
../tcpip_test_bsp/\libucosii_bsp.a(alt_env_lock.o)
                              ../tcpip_test_bsp/\libucosii_bsp.a(alt_main.o) (alt_envsem)
../tcpip_test_bsp/\libucosii_bsp.a(alt_malloc_lock.o)
                              c:/altera/11.0sp1/nios2eds/bin/gnu/h-i686-mingw32/bin/../lib/gcc/nios2-elf/4.1.2/../../../../nios2-elf/lib\libc.a(lib_a-freer.o) (__malloc_lock)
../tcpip_test_bsp/\libucosii_bsp.a(os_core.o)
                              ../tcpip_test_bsp/\libucosii_bsp.a(alt_main.o) (OSInit)
../tcpip_test_bsp/\libucosii_bsp.a(os_dbg.o)
                              ../tcpip_test_bsp/\libucosii_bsp.a(os_core.o) (OSDebugInit)
../tcpip_test_bsp/\libucosii_bsp.a(os_flag.o)
                              obj/simple_socket_server.o (OSFlagCreate)
../tcpip_test_bsp/\libucosii_bsp.a(os_mem.o)
                              ../tcpip_test_bsp/\libucosii_bsp.a(os_core.o) (OS_MemInit)
../tcpip_test_bsp/\libucosii_bsp.a(os_q.o)
                              obj/simple_socket_server.o (OSQCreate)
../tcpip_test_bsp/\libucosii_bsp.a(os_sem.o)
                              obj/simple_socket_server.o (OSSemCreate)
../tcpip_test_bsp/\libucosii_bsp.a(os_task.o)
                              obj/iniche_init.o (OSTaskCreateExt)
../tcpip_test_bsp/\libucosii_bsp.a(os_time.o)
                              obj/iniche_init.o (OSTimeDly)
../tcpip_test_bsp/\libucosii_bsp.a(alt_sys_init.o)
                              ../tcpip_test_bsp/\libucosii_bsp.a(alt_main.o) (alt_irq_init)
../tcpip_test_bsp/\libucosii_bsp.a(altera_avalon_jtag_uart_fd.o)
                              ../tcpip_test_bsp/\libucosii_bsp.a(alt_sys_init.o) (altera_avalon_jtag_uart_read_fd)
../tcpip_test_bsp/\libucosii_bsp.a(altera_avalon_jtag_uart_init.o)
                              ../tcpip_test_bsp/\libucosii_bsp.a(alt_sys_init.o) (altera_avalon_jtag_uart_init)
../tcpip_test_bsp/\libucosii_bsp.a(altera_avalon_jtag_uart_ioctl.o)
                              ../tcpip_test_bsp/\libucosii_bsp.a(altera_avalon_jtag_uart_fd.o) (altera_avalon_jtag_uart_ioctl)
../tcpip_test_bsp/\libucosii_bsp.a(altera_avalon_jtag_uart_read.o)
                              ../tcpip_test_bsp/\libucosii_bsp.a(altera_avalon_jtag_uart_fd.o) (altera_avalon_jtag_uart_read)
../tcpip_test_bsp/\libucosii_bsp.a(altera_avalon_jtag_uart_write.o)
                              ../tcpip_test_bsp/\libucosii_bsp.a(altera_avalon_jtag_uart_fd.o) (altera_avalon_jtag_uart_write)
../tcpip_test_bsp/\libucosii_bsp.a(altera_avalon_sgdma.o)
                              ../tcpip_test_bsp/\libucosii_bsp.a(alt_sys_init.o) (alt_avalon_sgdma_init)
../tcpip_test_bsp/\libucosii_bsp.a(altera_avalon_timer_sc.o)
                              ../tcpip_test_bsp/\libucosii_bsp.a(alt_sys_init.o) (alt_avalon_timer_sc_init)
../tcpip_test_bsp/\libucosii_bsp.a(altera_avalon_tse.o)
                              obj/tse_my_system.o (alt_tse_phy_add_profile)
../tcpip_test_bsp/\libucosii_bsp.a(altera_avalon_tse_system_info.o)
                              ../tcpip_test_bsp/\libucosii_bsp.a(altera_avalon_tse.o) (tse_mac_device)
../tcpip_test_bsp/\libucosii_bsp.a(ins_tse_mac.o)
                              ../tcpip_test_bsp/\libucosii_bsp.a(alt_sys_init.o) (number_of_tse_mac)
../tcpip_test_bsp/\libucosii_bsp.a(alt_iniche_close.o)
                              obj/simple_socket_server.o (close)
../tcpip_test_bsp/\libucosii_bsp.a(alt_iniche_dev.o)
                              ../tcpip_test_bsp/\libucosii_bsp.a(alt_sys_init.o) (alt_iniche_dev_list)
../tcpip_test_bsp/\libucosii_bsp.a(alt_iniche_read.o)
                              c:/altera/11.0sp1/nios2eds/bin/gnu/h-i686-mingw32/bin/../lib/gcc/nios2-elf/4.1.2/../../../../nios2-elf/lib\libc.a(lib_a-readr.o) (read)
../tcpip_test_bsp/\libucosii_bsp.a(alt_iniche_write.o)
                              c:/altera/11.0sp1/nios2eds/bin/gnu/h-i686-mingw32/bin/../lib/gcc/nios2-elf/4.1.2/../../../../nios2-elf/lib\libc.a(lib_a-writer.o) (write)
../tcpip_test_bsp/\libucosii_bsp.a(ipnet.o)
                              ../tcpip_test_bsp/\libucosii_bsp.a(ins_tse_mac.o) (rcvdq)
../tcpip_test_bsp/\libucosii_bsp.a(ipstart.o)
                              ../tcpip_test_bsp/\libucosii_bsp.a(ipnet.o) (ifNumber)
../tcpip_test_bsp/\libucosii_bsp.a(igmp_cmn.o)
                              ../tcpip_test_bsp/\libucosii_bsp.a(ipstart.o) (igmp_init)
../tcpip_test_bsp/\libucosii_bsp.a(bsdsock.o)
                              obj/simple_socket_server.o (bsd_accept)
../tcpip_test_bsp/\libucosii_bsp.a(cksum.o)
                              ../tcpip_test_bsp/\libucosii_bsp.a(igmp_cmn.o) (cksum)
../tcpip_test_bsp/\libucosii_bsp.a(in_utils.o)
                              ../tcpip_test_bsp/\libucosii_bsp.a(ins_tse_mac.o) (ns_printf)
../tcpip_test_bsp/\libucosii_bsp.a(netmain.o)
                              obj/iniche_init.o (iniche_net_ready)
../tcpip_test_bsp/\libucosii_bsp.a(tk_crnos.o)
                              ../tcpip_test_bsp/\libucosii_bsp.a(ipnet.o) (tk_yield)
../tcpip_test_bsp/\libucosii_bsp.a(dhcpclnt.o)
                              ../tcpip_test_bsp/\libucosii_bsp.a(netmain.o) (dhc_second)
../tcpip_test_bsp/\libucosii_bsp.a(dhcputil.o)
                              ../tcpip_test_bsp/\libucosii_bsp.a(dhcpclnt.o) (find_opt)
../tcpip_test_bsp/\libucosii_bsp.a(pktalloc.o)
                              ../tcpip_test_bsp/\libucosii_bsp.a(ipnet.o) (pk_init)
../tcpip_test_bsp/\libucosii_bsp.a(q.o)
                              ../tcpip_test_bsp/\libucosii_bsp.a(ipnet.o) (getq)
../tcpip_test_bsp/\libucosii_bsp.a(udp_open.o)
                              ../tcpip_test_bsp/\libucosii_bsp.a(dhcpclnt.o) (udp_open)
../tcpip_test_bsp/\libucosii_bsp.a(asm_cksum.o)
                              ../tcpip_test_bsp/\libucosii_bsp.a(cksum.o) (asm_cksum)
../tcpip_test_bsp/\libucosii_bsp.a(brdutils.o)
                              ../tcpip_test_bsp/\libucosii_bsp.a(ipnet.o) (dtrap)
../tcpip_test_bsp/\libucosii_bsp.a(osportco.o)
                              ../tcpip_test_bsp/\libucosii_bsp.a(tk_crnos.o) (tcp_sleep_count)
../tcpip_test_bsp/\libucosii_bsp.a(targnios.o)
                              obj/iniche_init.o (alt_iniche_init)
../tcpip_test_bsp/\libucosii_bsp.a(nptcp.o)
                              ../tcpip_test_bsp/\libucosii_bsp.a(bsdsock.o) (soq)
../tcpip_test_bsp/\libucosii_bsp.a(rawsock.o)
                              ../tcpip_test_bsp/\libucosii_bsp.a(nptcp.o) (rawip_usrreq)
../tcpip_test_bsp/\libucosii_bsp.a(sockcall.o)
                              obj/simple_socket_server.o (t_socket)
../tcpip_test_bsp/\libucosii_bsp.a(socket.o)
                              ../tcpip_test_bsp/\libucosii_bsp.a(sockcall.o) (socreate)
../tcpip_test_bsp/\libucosii_bsp.a(socket2.o)
                              ../tcpip_test_bsp/\libucosii_bsp.a(sockcall.o) (soqremque)
../tcpip_test_bsp/\libucosii_bsp.a(soselect.o)
                              ../tcpip_test_bsp/\libucosii_bsp.a(bsdsock.o) (t_select)
../tcpip_test_bsp/\libucosii_bsp.a(tcp_in.o)
                              ../tcpip_test_bsp/\libucosii_bsp.a(nptcp.o) (tcp_input)
../tcpip_test_bsp/\libucosii_bsp.a(tcp_out.o)
                              ../tcpip_test_bsp/\libucosii_bsp.a(tcp_in.o) (tcp_output)
../tcpip_test_bsp/\libucosii_bsp.a(tcp_subr.o)
                              ../tcpip_test_bsp/\libucosii_bsp.a(nptcp.o) (tcp_init)
../tcpip_test_bsp/\libucosii_bsp.a(tcp_timr.o)
                              ../tcpip_test_bsp/\libucosii_bsp.a(tcp_in.o) (tcp_keepidle)
../tcpip_test_bsp/\libucosii_bsp.a(tcp_usr.o)
                              ../tcpip_test_bsp/\libucosii_bsp.a(nptcp.o) (tcp_usrreq)
../tcpip_test_bsp/\libucosii_bsp.a(tcpport.o)
                              ../tcpip_test_bsp/\libucosii_bsp.a(ipstart.o) (tcpinit)
../tcpip_test_bsp/\libucosii_bsp.a(udpsock.o)
                              ../tcpip_test_bsp/\libucosii_bsp.a(nptcp.o) (udp_usrreq)
../tcpip_test_bsp/\libucosii_bsp.a(alt_alarm_start.o)
                              ../tcpip_test_bsp/\libucosii_bsp.a(altera_avalon_jtag_uart_init.o) (alt_alarm_start)
../tcpip_test_bsp/\libucosii_bsp.a(alt_close.o)
                              ../tcpip_test_bsp/\libucosii_bsp.a(alt_iniche_close.o) (alt_close)
../tcpip_test_bsp/\libucosii_bsp.a(alt_dcache_flush_all.o)
                              ../tcpip_test_bsp/\libucosii_bsp.a(alt_load.o) (alt_dcache_flush_all)
../tcpip_test_bsp/\libucosii_bsp.a(alt_dev.o)
                              ../tcpip_test_bsp/\libucosii_bsp.a(alt_sys_init.o) (alt_dev_list)
../tcpip_test_bsp/\libucosii_bsp.a(alt_dev_llist_insert.o)
                              ../tcpip_test_bsp/\libucosii_bsp.a(alt_sys_init.o) (alt_dev_llist_insert)
../tcpip_test_bsp/\libucosii_bsp.a(alt_do_ctors.o)
                              ../tcpip_test_bsp/\libucosii_bsp.a(alt_main.o) (_do_ctors)
../tcpip_test_bsp/\libucosii_bsp.a(alt_do_dtors.o)
                              ../tcpip_test_bsp/\libucosii_bsp.a(alt_main.o) (_do_dtors)
../tcpip_test_bsp/\libucosii_bsp.a(alt_errno.o)
                              ../tcpip_test_bsp/\libucosii_bsp.a(alt_fstat.o) (alt_errno)
../tcpip_test_bsp/\libucosii_bsp.a(alt_find_dev.o)
                              ../tcpip_test_bsp/\libucosii_bsp.a(altera_avalon_sgdma.o) (alt_find_dev)
../tcpip_test_bsp/\libucosii_bsp.a(alt_icache_flush_all.o)
                              ../tcpip_test_bsp/\libucosii_bsp.a(alt_load.o) (alt_icache_flush_all)
../tcpip_test_bsp/\libucosii_bsp.a(alt_iic.o)
                              ../tcpip_test_bsp/\libucosii_bsp.a(altera_avalon_jtag_uart_init.o) (alt_ic_isr_register)
../tcpip_test_bsp/\libucosii_bsp.a(alt_iic_isr_register.o)
                              ../tcpip_test_bsp/\libucosii_bsp.a(alt_iic.o) (alt_iic_isr_register)
../tcpip_test_bsp/\libucosii_bsp.a(alt_io_redirect.o)
                              ../tcpip_test_bsp/\libucosii_bsp.a(alt_main.o) (alt_io_redirect)
../tcpip_test_bsp/\libucosii_bsp.a(alt_irq_entry.o)
                              ../tcpip_test_bsp/\libucosii_bsp.a(alt_iic_isr_register.o) (alt_irq_entry)
../tcpip_test_bsp/\libucosii_bsp.a(alt_irq_handler.o)
                              ../tcpip_test_bsp/\libucosii_bsp.a(alt_iic_isr_register.o) (alt_irq_handler)
../tcpip_test_bsp/\libucosii_bsp.a(alt_irq_vars.o)
                              ../tcpip_test_bsp/\libucosii_bsp.a(alt_iic.o) (alt_irq_active)
../tcpip_test_bsp/\libucosii_bsp.a(alt_open.o)
                              ../tcpip_test_bsp/\libucosii_bsp.a(alt_io_redirect.o) (open)
../tcpip_test_bsp/\libucosii_bsp.a(alt_read.o)
                              ../tcpip_test_bsp/\libucosii_bsp.a(alt_iniche_read.o) (alt_read)
../tcpip_test_bsp/\libucosii_bsp.a(alt_release_fd.o)
                              ../tcpip_test_bsp/\libucosii_bsp.a(alt_close.o) (alt_release_fd)
../tcpip_test_bsp/\libucosii_bsp.a(alt_remap_cached.o)
                              ../tcpip_test_bsp/\libucosii_bsp.a(ins_tse_mac.o) (alt_remap_cached)
../tcpip_test_bsp/\libucosii_bsp.a(alt_remap_uncached.o)
                              ../tcpip_test_bsp/\libucosii_bsp.a(altera_avalon_sgdma.o) (alt_remap_uncached)
../tcpip_test_bsp/\libucosii_bsp.a(alt_tick.o)
                              ../tcpip_test_bsp/\libucosii_bsp.a(altera_avalon_jtag_uart_init.o) (_alt_tick_rate)
../tcpip_test_bsp/\libucosii_bsp.a(alt_uncached_malloc.o)
                              ../tcpip_test_bsp/\libucosii_bsp.a(ins_tse_mac.o) (alt_uncached_malloc)
../tcpip_test_bsp/\libucosii_bsp.a(alt_usleep.o)
                              ../tcpip_test_bsp/\libucosii_bsp.a(altera_avalon_tse.o) (usleep)
../tcpip_test_bsp/\libucosii_bsp.a(alt_write.o)
                              ../tcpip_test_bsp/\libucosii_bsp.a(alt_iniche_write.o) (alt_write)
../tcpip_test_bsp/\libucosii_bsp.a(altera_nios2_irq.o)
                              ../tcpip_test_bsp/\libucosii_bsp.a(alt_sys_init.o) (altera_nios2_irq_init)
../tcpip_test_bsp/\libucosii_bsp.a(os_cpu_a.o)
                              ../tcpip_test_bsp/\libucosii_bsp.a(os_core.o) (OSIntCtxSw)
../tcpip_test_bsp/\libucosii_bsp.a(os_cpu_c.o)
                              ../tcpip_test_bsp/\libucosii_bsp.a(os_task.o) (OSTaskStkInit)
../tcpip_test_bsp/\libucosii_bsp.a(allports.o)
                              ../tcpip_test_bsp/\libucosii_bsp.a(dhcpclnt.o) (name)
../tcpip_test_bsp/\libucosii_bsp.a(timeouts.o)
                              ../tcpip_test_bsp/\libucosii_bsp.a(netmain.o) (inet_timer)
../tcpip_test_bsp/\libucosii_bsp.a(tk_misc.o)
                              ../tcpip_test_bsp/\libucosii_bsp.a(netmain.o) (create_apptasks)
../tcpip_test_bsp/\libucosii_bsp.a(alt_iniche_fcntl.o)
                              ../tcpip_test_bsp/\libucosii_bsp.a(brdutils.o) (fcntl)
../tcpip_test_bsp/\libucosii_bsp.a(et_arp.o)
                              ../tcpip_test_bsp/\libucosii_bsp.a(ipstart.o) (etainit)
../tcpip_test_bsp/\libucosii_bsp.a(iface.o)
                              ../tcpip_test_bsp/\libucosii_bsp.a(ipnet.o) (netlist)
../tcpip_test_bsp/\libucosii_bsp.a(ip.o)
                              ../tcpip_test_bsp/\libucosii_bsp.a(ipstart.o) (ip_init)
../tcpip_test_bsp/\libucosii_bsp.a(ip_reasm.o)
                              ../tcpip_test_bsp/\libucosii_bsp.a(timeouts.o) (ire_cticks)
../tcpip_test_bsp/\libucosii_bsp.a(ipdemux.o)
                              ../tcpip_test_bsp/\libucosii_bsp.a(ipnet.o) (ip_rcv)
../tcpip_test_bsp/\libucosii_bsp.a(ipmc.o)
                              ../tcpip_test_bsp/\libucosii_bsp.a(ipstart.o) (in_addmulti)
../tcpip_test_bsp/\libucosii_bsp.a(ipport.o)
                              ../tcpip_test_bsp/\libucosii_bsp.a(targnios.o) (port_prep)
../tcpip_test_bsp/\libucosii_bsp.a(ipraw.o)
                              ../tcpip_test_bsp/\libucosii_bsp.a(rawsock.o) (ipraw_eps)
../tcpip_test_bsp/\libucosii_bsp.a(iproute.o)
                              ../tcpip_test_bsp/\libucosii_bsp.a(ip.o) (cachedRoute)
../tcpip_test_bsp/\libucosii_bsp.a(udp.o)
                              ../tcpip_test_bsp/\libucosii_bsp.a(ipdemux.o) (udpdemux)
../tcpip_test_bsp/\libucosii_bsp.a(igmp.o)
                              ../tcpip_test_bsp/\libucosii_bsp.a(igmp_cmn.o) (igmpv1_input)
../tcpip_test_bsp/\libucosii_bsp.a(igmp2.o)
                              ../tcpip_test_bsp/\libucosii_bsp.a(igmp_cmn.o) (igmpv2_input)
../tcpip_test_bsp/\libucosii_bsp.a(ipopt.o)
                              ../tcpip_test_bsp/\libucosii_bsp.a(socket.o) (ip_setmoptions)
../tcpip_test_bsp/\libucosii_bsp.a(u_mctest.o)
                              ../tcpip_test_bsp/\libucosii_bsp.a(allports.o) (u_mctest_init)
../tcpip_test_bsp/\libucosii_bsp.a(dhcsetup.o)
                              ../tcpip_test_bsp/\libucosii_bsp.a(allports.o) (dhc_setup)
../tcpip_test_bsp/\libucosii_bsp.a(memdev.o)
                              ../tcpip_test_bsp/\libucosii_bsp.a(allports.o) (init_memdev)
../tcpip_test_bsp/\libucosii_bsp.a(parseip.o)
                              ../tcpip_test_bsp/\libucosii_bsp.a(u_mctest.o) (inet_addr)
../tcpip_test_bsp/\libucosii_bsp.a(tcpcksum.o)
                              ../tcpip_test_bsp/\libucosii_bsp.a(nptcp.o) (tcp_cksum)
../tcpip_test_bsp/\libucosii_bsp.a(in_pcb.o)
                              ../tcpip_test_bsp/\libucosii_bsp.a(tcp_usr.o) (in_pcballoc)
../tcpip_test_bsp/\libucosii_bsp.a(vfsfiles.o)
                              ../tcpip_test_bsp/\libucosii_bsp.a(memdev.o) (vfsystems)
../tcpip_test_bsp/\libucosii_bsp.a(vfsport.o)
                              ../tcpip_test_bsp/\libucosii_bsp.a(allports.o) (prep_vfs)
../tcpip_test_bsp/\libucosii_bsp.a(alt_busy_sleep.o)
                              ../tcpip_test_bsp/\libucosii_bsp.a(alt_usleep.o) (alt_busy_sleep)
../tcpip_test_bsp/\libucosii_bsp.a(alt_dcache_flush.o)
                              ../tcpip_test_bsp/\libucosii_bsp.a(alt_remap_uncached.o) (alt_dcache_flush)
../tcpip_test_bsp/\libucosii_bsp.a(alt_exception_entry.o)
                              ../tcpip_test_bsp/\libucosii_bsp.a(alt_irq_entry.o) (alt_exception)
../tcpip_test_bsp/\libucosii_bsp.a(alt_fcntl.o)
                              ../tcpip_test_bsp/\libucosii_bsp.a(alt_iniche_fcntl.o) (alt_fcntl)
../tcpip_test_bsp/\libucosii_bsp.a(alt_find_file.o)
                              ../tcpip_test_bsp/\libucosii_bsp.a(alt_open.o) (alt_find_file)
../tcpip_test_bsp/\libucosii_bsp.a(alt_get_fd.o)
                              ../tcpip_test_bsp/\libucosii_bsp.a(alt_open.o) (alt_get_fd)
../tcpip_test_bsp/\libucosii_bsp.a(alt_icache_flush.o)
                              ../tcpip_test_bsp/\libucosii_bsp.a(alt_icache_flush_all.o) (alt_icache_flush)
../tcpip_test_bsp/\libucosii_bsp.a(icmp.o)
                              ../tcpip_test_bsp/\libucosii_bsp.a(ipdemux.o) (icmprcv)
c:/altera/11.0sp1/nios2eds/bin/gnu/h-i686-mingw32/bin/../lib/gcc/nios2-elf/4.1.2/../../../../nios2-elf/lib\libc.a(lib_a-atexit.o)
                              ../tcpip_test_bsp/\libucosii_bsp.a(alt_main.o) (atexit)
c:/altera/11.0sp1/nios2eds/bin/gnu/h-i686-mingw32/bin/../lib/gcc/nios2-elf/4.1.2/../../../../nios2-elf/lib\libc.a(lib_a-atoi.o)
                              ../tcpip_test_bsp/\libucosii_bsp.a(parseip.o) (atoi)
c:/altera/11.0sp1/nios2eds/bin/gnu/h-i686-mingw32/bin/../lib/gcc/nios2-elf/4.1.2/../../../../nios2-elf/lib\libc.a(lib_a-calloc.o)
                              ../tcpip_test_bsp/\libucosii_bsp.a(targnios.o) (calloc)
c:/altera/11.0sp1/nios2eds/bin/gnu/h-i686-mingw32/bin/../lib/gcc/nios2-elf/4.1.2/../../../../nios2-elf/lib\libc.a(lib_a-exit.o)
                              ../tcpip_test_bsp/\libucosii_bsp.a(alt_main.o) (exit)
c:/altera/11.0sp1/nios2eds/bin/gnu/h-i686-mingw32/bin/../lib/gcc/nios2-elf/4.1.2/../../../../nios2-elf/lib\libc.a(lib_a-getc.o)
                              ../tcpip_test_bsp/\libucosii_bsp.a(brdutils.o) (getc)
c:/altera/11.0sp1/nios2eds/bin/gnu/h-i686-mingw32/bin/../lib/gcc/nios2-elf/4.1.2/../../../../nios2-elf/lib\libc.a(lib_a-malloc.o)
                              ../tcpip_test_bsp/\libucosii_bsp.a(targnios.o) (free)
c:/altera/11.0sp1/nios2eds/bin/gnu/h-i686-mingw32/bin/../lib/gcc/nios2-elf/4.1.2/../../../../nios2-elf/lib\libc.a(lib_a-memcmp.o)
                              ../tcpip_test_bsp/\libucosii_bsp.a(dhcpclnt.o) (memcmp)
c:/altera/11.0sp1/nios2eds/bin/gnu/h-i686-mingw32/bin/../lib/gcc/nios2-elf/4.1.2/../../../../nios2-elf/lib\libc.a(lib_a-rget.o)
                              c:/altera/11.0sp1/nios2eds/bin/gnu/h-i686-mingw32/bin/../lib/gcc/nios2-elf/4.1.2/../../../../nios2-elf/lib\libc.a(lib_a-getc.o) (__srget_r)
c:/altera/11.0sp1/nios2eds/bin/gnu/h-i686-mingw32/bin/../lib/gcc/nios2-elf/4.1.2/../../../../nios2-elf/lib\libc.a(lib_a-strcpy.o)
                              ../tcpip_test_bsp/\libucosii_bsp.a(altera_avalon_tse.o) (strcpy)
c:/altera/11.0sp1/nios2eds/bin/gnu/h-i686-mingw32/bin/../lib/gcc/nios2-elf/4.1.2/../../../../nios2-elf/lib\libc.a(lib_a-strncmp.o)
                              ../tcpip_test_bsp/\libucosii_bsp.a(vfsfiles.o) (strncmp)
c:/altera/11.0sp1/nios2eds/bin/gnu/h-i686-mingw32/bin/../lib/gcc/nios2-elf/4.1.2/../../../../nios2-elf/lib\libc.a(lib_a-strncpy.o)
                              ../tcpip_test_bsp/\libucosii_bsp.a(dhcpclnt.o) (strncpy)
c:/altera/11.0sp1/nios2eds/bin/gnu/h-i686-mingw32/bin/../lib/gcc/nios2-elf/4.1.2/../../../../nios2-elf/lib\libc.a(lib_a-strtol.o)
                              c:/altera/11.0sp1/nios2eds/bin/gnu/h-i686-mingw32/bin/../lib/gcc/nios2-elf/4.1.2/../../../../nios2-elf/lib\libc.a(lib_a-atoi.o) (_strtol_r)
c:/altera/11.0sp1/nios2eds/bin/gnu/h-i686-mingw32/bin/../lib/gcc/nios2-elf/4.1.2/../../../../nios2-elf/lib\libc.a(lib_a-vprintf.o)
                              ../tcpip_test_bsp/\libucosii_bsp.a(in_utils.o) (vprintf)
c:/altera/11.0sp1/nios2eds/bin/gnu/h-i686-mingw32/bin/../lib/gcc/nios2-elf/4.1.2/../../../../nios2-elf/lib\libc.a(lib_a-vsprintf.o)
                              ../tcpip_test_bsp/\libucosii_bsp.a(in_utils.o) (vsprintf)
c:/altera/11.0sp1/nios2eds/bin/gnu/h-i686-mingw32/bin/../lib/gcc/nios2-elf/4.1.2/../../../../nios2-elf/lib\libc.a(lib_a-__atexit.o)
                              c:/altera/11.0sp1/nios2eds/bin/gnu/h-i686-mingw32/bin/../lib/gcc/nios2-elf/4.1.2/../../../../nios2-elf/lib\libc.a(lib_a-atexit.o) (__register_exitproc)
c:/altera/11.0sp1/nios2eds/bin/gnu/h-i686-mingw32/bin/../lib/gcc/nios2-elf/4.1.2/../../../../nios2-elf/lib\libc.a(lib_a-__call_atexit.o)
                              c:/altera/11.0sp1/nios2eds/bin/gnu/h-i686-mingw32/bin/../lib/gcc/nios2-elf/4.1.2/../../../../nios2-elf/lib\libc.a(lib_a-exit.o) (__call_exitprocs)
c:/altera/11.0sp1/nios2eds/bin/gnu/h-i686-mingw32/bin/../lib/gcc/nios2-elf/4.1.2/../../../../nios2-elf/lib\libc.a(lib_a-refill.o)
                              c:/altera/11.0sp1/nios2eds/bin/gnu/h-i686-mingw32/bin/../lib/gcc/nios2-elf/4.1.2/../../../../nios2-elf/lib\libc.a(lib_a-rget.o) (__srefill_r)
../tcpip_test_bsp/\libucosii_bsp.a(alt_exit.o)
                              c:/altera/11.0sp1/nios2eds/bin/gnu/h-i686-mingw32/bin/../lib/gcc/nios2-elf/4.1.2/../../../../nios2-elf/lib\libc.a(lib_a-exit.o) (_exit)

Allocating common symbols
Common symbol       size              file

soq                 0x14              ../tcpip_test_bsp/\libucosii_bsp.a(nptcp.o)
alt_irq             0x100             ../tcpip_test_bsp/\libucosii_bsp.a(alt_irq_handler.o)
tcp_optionbuf       0x4               ../tcpip_test_bsp/\libucosii_bsp.a(tcp_out.o)
rt_mib              0x4               ../tcpip_test_bsp/\libucosii_bsp.a(ip.o)
so_evtmap_create    0x4               ../tcpip_test_bsp/\libucosii_bsp.a(ipport.o)
SSSLEDCommandQ      0x4               obj/simple_socket_server.o
OSLockNesting       0x1               ../tcpip_test_bsp/\libucosii_bsp.a(os_core.o)
tcb                 0x2c              ../tcpip_test_bsp/\libucosii_bsp.a(tcp_subr.o)
OSRunning           0x1               ../tcpip_test_bsp/\libucosii_bsp.a(os_core.o)
dhc_states          0xf0              ../tcpip_test_bsp/\libucosii_bsp.a(dhcpclnt.o)
tcpstat             0xe0              ../tcpip_test_bsp/\libucosii_bsp.a(tcp_subr.o)
OSIdleCtr           0x4               ../tcpip_test_bsp/\libucosii_bsp.a(os_core.o)
SSSLEDLightshowSem  0x4               obj/simple_socket_server.o
udp_mib             0x10              ../tcpip_test_bsp/\libucosii_bsp.a(udp.o)
to_netmain          0x1               ../tcpip_test_bsp/\libucosii_bsp.a(netmain.o)
OSPrioHighRdy       0x1               ../tcpip_test_bsp/\libucosii_bsp.a(os_core.o)
errno               0x4               c:/altera/11.0sp1/nios2eds/bin/gnu/h-i686-mingw32/bin/../lib/gcc/nios2-elf/4.1.2/../../../../nios2-elf/lib\libc.a(lib_a-int_errno.o)
lilfreeq            0x14              ../tcpip_test_bsp/\libucosii_bsp.a(pktalloc.o)
icmp_mib            0x68              ../tcpip_test_bsp/\libucosii_bsp.a(icmp.o)
pmac_groups         0x10              ../tcpip_test_bsp/\libucosii_bsp.a(altera_avalon_tse.o)
resid_semaphore     0x40              ../tcpip_test_bsp/\libucosii_bsp.a(targnios.o)
alt_heapsem         0x4               ../tcpip_test_bsp/\libucosii_bsp.a(alt_malloc_lock.o)
OSFlagTbl           0x370             ../tcpip_test_bsp/\libucosii_bsp.a(os_core.o)
mbstat              0x8               ../tcpip_test_bsp/\libucosii_bsp.a(nptcp.o)
netq_intmask        0x4               ../tcpip_test_bsp/\libucosii_bsp.a(osportco.o)
select_wait         0x2               ../tcpip_test_bsp/\libucosii_bsp.a(nptcp.o)
tse_iniche_dev_driver_data
                    0x30              ../tcpip_test_bsp/\libucosii_bsp.a(ins_tse_mac.o)
tcpmib              0x3c              ../tcpip_test_bsp/\libucosii_bsp.a(nptcp.o)
OSPrioCur           0x1               ../tcpip_test_bsp/\libucosii_bsp.a(os_core.o)
tse                 0x130             ../tcpip_test_bsp/\libucosii_bsp.a(ins_tse_mac.o)
mheap_sem_ptr       0x4               ../tcpip_test_bsp/\libucosii_bsp.a(targnios.o)
netlist             0x14              ../tcpip_test_bsp/\libucosii_bsp.a(iface.o)
mbufq               0x14              ../tcpip_test_bsp/\libucosii_bsp.a(nptcp.o)
OSTCBList           0x4               ../tcpip_test_bsp/\libucosii_bsp.a(os_core.o)
alt_fd_list_lock    0x4               ../tcpip_test_bsp/\libucosii_bsp.a(alt_dev.o)
OSMemTbl            0xc30             ../tcpip_test_bsp/\libucosii_bsp.a(os_core.o)
OSTickStepState     0x1               ../tcpip_test_bsp/\libucosii_bsp.a(os_core.o)
OSTaskStatStk       0x800             ../tcpip_test_bsp/\libucosii_bsp.a(os_core.o)
OSCtxSwCtr          0x4               ../tcpip_test_bsp/\libucosii_bsp.a(os_core.o)
igmpstats           0x64              ../tcpip_test_bsp/\libucosii_bsp.a(igmp_cmn.o)
ire_stats           0x18              ../tcpip_test_bsp/\libucosii_bsp.a(ip_reasm.o)
old_mode            0x4               ../tcpip_test_bsp/\libucosii_bsp.a(osportco.o)
vfs_dir_stale       0x4               ../tcpip_test_bsp/\libucosii_bsp.a(vfsfiles.o)
pphy_profiles       0x10              ../tcpip_test_bsp/\libucosii_bsp.a(altera_avalon_tse.o)
cticks_factor       0x4               ../tcpip_test_bsp/\libucosii_bsp.a(brdutils.o)
OSIdleCtrMax        0x4               ../tcpip_test_bsp/\libucosii_bsp.a(os_core.o)
memestats           0x10              ../tcpip_test_bsp/\libucosii_bsp.a(pktalloc.o)
intimers            0x64              ../tcpip_test_bsp/\libucosii_bsp.a(timeouts.o)
OSTCBFreeList       0x4               ../tcpip_test_bsp/\libucosii_bsp.a(os_core.o)
global_TCPwakeup_setIndx
                    0x4               ../tcpip_test_bsp/\libucosii_bsp.a(osportco.o)
SSSInitialTaskStk   0x2000            obj/iniche_init.o
rcvdq               0x14              ../tcpip_test_bsp/\libucosii_bsp.a(ipnet.o)
global_tcb_ext      0xfc              ../tcpip_test_bsp/\libucosii_bsp.a(osportco.o)
netstatic           0x300             ../tcpip_test_bsp/\libucosii_bsp.a(ipstart.o)
tcp_maxidle         0x4               ../tcpip_test_bsp/\libucosii_bsp.a(tcp_timr.o)
OSCPUUsage          0x1               ../tcpip_test_bsp/\libucosii_bsp.a(os_core.o)
nets                0x10              ../tcpip_test_bsp/\libucosii_bsp.a(ipstart.o)
pktlog              0xf0              ../tcpip_test_bsp/\libucosii_bsp.a(pktalloc.o)
OSTaskCtr           0x1               ../tcpip_test_bsp/\libucosii_bsp.a(os_core.o)
SSSLEDEventFlag     0x4               obj/simple_socket_server.o
OSMemFreeList       0x4               ../tcpip_test_bsp/\libucosii_bsp.a(os_core.o)
vfs_open_files      0x4               ../tcpip_test_bsp/\libucosii_bsp.a(vfsfiles.o)
cticks              0x4               ../tcpip_test_bsp/\libucosii_bsp.a(osportco.o)
to_nettick          0x1               ../tcpip_test_bsp/\libucosii_bsp.a(netmain.o)
OSQTbl              0x1e0             ../tcpip_test_bsp/\libucosii_bsp.a(os_core.o)
OSTCBHighRdy        0x4               ../tcpip_test_bsp/\libucosii_bsp.a(os_core.o)
OSQFreeList         0x4               ../tcpip_test_bsp/\libucosii_bsp.a(os_core.o)
OSRdyGrp            0x1               ../tcpip_test_bsp/\libucosii_bsp.a(os_core.o)
ip_mib              0x50              ../tcpip_test_bsp/\libucosii_bsp.a(ip.o)
SSSLEDCommandQTbl   0x78              obj/simple_socket_server.o
OS_TPS              0x4               ../tcpip_test_bsp/\libucosii_bsp.a(brdutils.o)
_atexit0            0x190             c:/altera/11.0sp1/nios2eds/bin/gnu/h-i686-mingw32/bin/../lib/gcc/nios2-elf/4.1.2/../../../../nios2-elf/lib\libc.a(lib_a-atexit.o)
OSRdyTbl            0x3               ../tcpip_test_bsp/\libucosii_bsp.a(os_core.o)
igmp_all_hosts_group
                    0x4               ../tcpip_test_bsp/\libucosii_bsp.a(igmp_cmn.o)
eth_prt_buf         0x12              ../tcpip_test_bsp/\libucosii_bsp.a(in_utils.o)
app_semaphore       0x18              ../tcpip_test_bsp/\libucosii_bsp.a(targnios.o)
LEDManagementTaskStk
                    0x2000            obj/simple_socket_server.o
ethernet_1_if       0xe0              ../tcpip_test_bsp/\libucosii_bsp.a(alt_sys_init.o)
rcvdq_sem_ptr       0x4               ../tcpip_test_bsp/\libucosii_bsp.a(targnios.o)
OSEventFreeList     0x4               ../tcpip_test_bsp/\libucosii_bsp.a(os_core.o)
mfreeq              0x14              ../tcpip_test_bsp/\libucosii_bsp.a(nptcp.o)
to_ssstask          0x1               obj/iniche_init.o
global_TCPwakeup_set
                    0xf0              ../tcpip_test_bsp/\libucosii_bsp.a(osportco.o)
bigfreeq            0x14              ../tcpip_test_bsp/\libucosii_bsp.a(pktalloc.o)
so_evtmap_delete    0x4               ../tcpip_test_bsp/\libucosii_bsp.a(ipport.o)
tcp_saveti          0x28              ../tcpip_test_bsp/\libucosii_bsp.a(tcp_in.o)
OSIntNesting        0x1               ../tcpip_test_bsp/\libucosii_bsp.a(os_core.o)
so_evtmap           0x1               ../tcpip_test_bsp/\libucosii_bsp.a(ipport.o)
OSTCBCur            0x4               ../tcpip_test_bsp/\libucosii_bsp.a(os_core.o)
arp_table           0x100             ../tcpip_test_bsp/\libucosii_bsp.a(et_arp.o)
tcp_iss             0x4               ../tcpip_test_bsp/\libucosii_bsp.a(tcp_timr.o)
vfs_total_rw_space  0x4               ../tcpip_test_bsp/\libucosii_bsp.a(vfsfiles.o)
OSTime              0x4               ../tcpip_test_bsp/\libucosii_bsp.a(os_core.o)
OSTaskIdleStk       0x800             ../tcpip_test_bsp/\libucosii_bsp.a(os_core.o)
OSEventTbl          0xb40             ../tcpip_test_bsp/\libucosii_bsp.a(os_core.o)
vfs_total_dyna_files
                    0x4               ../tcpip_test_bsp/\libucosii_bsp.a(vfsfiles.o)
OSTCBTbl            0x510             ../tcpip_test_bsp/\libucosii_bsp.a(os_core.o)
ipreturn            0x12              ../tcpip_test_bsp/\libucosii_bsp.a(in_utils.o)
OSFlagFreeList      0x4               ../tcpip_test_bsp/\libucosii_bsp.a(os_core.o)
dropline            0x4               ../tcpip_test_bsp/\libucosii_bsp.a(tcp_in.o)
OSStatRdy           0x1               ../tcpip_test_bsp/\libucosii_bsp.a(os_core.o)
OSTCBPrioTbl        0x54              ../tcpip_test_bsp/\libucosii_bsp.a(os_core.o)
igmp_all_rtrs_group
                    0x4               ../tcpip_test_bsp/\libucosii_bsp.a(igmp_cmn.o)
alt_envsem          0x4               ../tcpip_test_bsp/\libucosii_bsp.a(alt_env_lock.o)
OSIdleCtrRun        0x4               ../tcpip_test_bsp/\libucosii_bsp.a(os_core.o)

Memory Configuration

Name             Origin             Length             Attributes
reset            0x04000000         0x00000020
sdram            0x04000020         0x01ffffe0
*default*        0x00000000         0xffffffff

Linker script and memory map

LOAD ../tcpip_test_bsp//obj/HAL/src/crt0.o
LOAD obj/alt_error_handler.o
LOAD obj/iniche_init.o
LOAD obj/led.o
LOAD obj/network_utilities.o
LOAD obj/simple_socket_server.o
LOAD obj/tse_my_system.o
LOAD c:/altera/11.0sp1/nios2eds/bin/gnu/h-i686-mingw32/bin/../lib/gcc/nios2-elf/4.1.2/../../../../nios2-elf/lib\libstdc++.a
LOAD c:/altera/11.0sp1/nios2eds/bin/gnu/h-i686-mingw32/bin/../lib/gcc/nios2-elf/4.1.2/../../../../nios2-elf/lib\libm.a
LOAD c:/altera/11.0sp1/nios2eds/bin/gnu/h-i686-mingw32/bin/../lib/gcc/nios2-elf/4.1.2\libgcc.a
START GROUP
LOAD c:/altera/11.0sp1/nios2eds/bin/gnu/h-i686-mingw32/bin/../lib/gcc/nios2-elf/4.1.2/../../../../nios2-elf/lib\libc.a
LOAD c:/altera/11.0sp1/nios2eds/bin/gnu/h-i686-mingw32/bin/../lib/gcc/nios2-elf/4.1.2\libgcc.a
LOAD ../tcpip_test_bsp/\libucosii_bsp.a
END GROUP
LOAD c:/altera/11.0sp1/nios2eds/bin/gnu/h-i686-mingw32/bin/../lib/gcc/nios2-elf/4.1.2\libgcc.a
                0x04000000                __alt_mem_sdram = 0x4000000

.entry          0x04000000       0x20
 *(.entry)
 .entry         0x04000000       0x20 ../tcpip_test_bsp//obj/HAL/src/crt0.o
                0x04000000                __reset

.exceptions     0x04000020      0x19c
                0x04000020                PROVIDE (__ram_exceptions_start, ABSOLUTE (.))
                0x04000020                . = ALIGN (0x20)
 *(.irq)
 *(.exceptions.entry.label)
 .exceptions.entry.label
                0x04000020        0x0 ../tcpip_test_bsp/\libucosii_bsp.a(alt_irq_entry.o)
                0x04000020                alt_irq_entry
 .exceptions.entry.label
                0x04000020        0x0 ../tcpip_test_bsp/\libucosii_bsp.a(alt_exception_entry.o)
                0x04000020                alt_exception
 *(.exceptions.entry.user)
 *(.exceptions.entry)
 .exceptions.entry
                0x04000020       0x54 ../tcpip_test_bsp/\libucosii_bsp.a(alt_exception_entry.o)
 *(.exceptions.irqtest.user)
 *(.exceptions.irqtest)
 .exceptions.irqtest
                0x04000074       0x10 ../tcpip_test_bsp/\libucosii_bsp.a(alt_irq_entry.o)
 *(.exceptions.irqhandler.user)
 *(.exceptions.irqhandler)
 .exceptions.irqhandler
                0x04000084        0x4 ../tcpip_test_bsp/\libucosii_bsp.a(alt_irq_entry.o)
 *(.exceptions.irqreturn.user)
 *(.exceptions.irqreturn)
 .exceptions.irqreturn
                0x04000088        0x4 ../tcpip_test_bsp/\libucosii_bsp.a(alt_irq_entry.o)
 *(.exceptions.notirq.label)
 .exceptions.notirq.label
                0x0400008c        0x0 ../tcpip_test_bsp/\libucosii_bsp.a(alt_irq_entry.o)
 *(.exceptions.notirq.user)
 *(.exceptions.notirq)
 .exceptions.notirq
                0x0400008c        0x8 ../tcpip_test_bsp/\libucosii_bsp.a(alt_exception_entry.o)
 *(.exceptions.soft.user)
 *(.exceptions.soft)
 *(.exceptions.unknown.user)
 *(.exceptions.unknown)
 .exceptions.unknown
                0x04000094        0x4 ../tcpip_test_bsp/\libucosii_bsp.a(alt_exception_entry.o)
 *(.exceptions.exit.label)
 .exceptions.exit.label
                0x04000098        0x0 ../tcpip_test_bsp/\libucosii_bsp.a(alt_irq_entry.o)
 .exceptions.exit.label
                0x04000098        0x0 ../tcpip_test_bsp/\libucosii_bsp.a(alt_exception_entry.o)
 *(.exceptions.exit.user)
 *(.exceptions.exit)
 .exceptions.exit
                0x04000098       0x54 ../tcpip_test_bsp/\libucosii_bsp.a(alt_exception_entry.o)
 *(.exceptions)
 .exceptions    0x040000ec       0xd0 ../tcpip_test_bsp/\libucosii_bsp.a(alt_irq_handler.o)
                0x040000ec                alt_irq_handler
                0x040001bc                PROVIDE (__ram_exceptions_end, ABSOLUTE (.))
                0x04000020                PROVIDE (__flash_exceptions_start, LOADADDR (.exceptions))

.text           0x040001bc    0x46a10
                0x040001bc                PROVIDE (stext, ABSOLUTE (.))
 *(.interp)
 *(.hash)
 *(.dynsym)
 *(.dynstr)
 *(.gnu.version)
 *(.gnu.version_d)
 *(.gnu.version_r)
 *(.rel.init)
 *(.rela.init)
 *(.rel.text .rel.text.* .rel.gnu.linkonce.t.*)
 *(.rela.text .rela.text.* .rela.gnu.linkonce.t.*)
 *(.rel.fini)
 *(.rela.fini)
 *(.rel.rodata .rel.rodata.* .rel.gnu.linkonce.r.*)
 *(.rela.rodata .rela.rodata.* .rela.gnu.linkonce.r.*)
 *(.rel.data .rel.data.* .rel.gnu.linkonce.d.*)
 *(.rela.data .rela.data.* .rela.gnu.linkonce.d.*)
 *(.rel.tdata .rel.tdata.* .rel.gnu.linkonce.td.*)
 *(.rela.tdata .rela.tdata.* .rela.gnu.linkonce.td.*)
 *(.rel.tbss .rel.tbss.* .rel.gnu.linkonce.tb.*)
 *(.rela.tbss .rela.tbss.* .rela.gnu.linkonce.tb.*)
 *(.rel.ctors)
 *(.rela.ctors)
 *(.rel.dtors)
 *(.rela.dtors)
 *(.rel.got)
 *(.rela.got)
 *(.rel.sdata .rel.sdata.* .rel.gnu.linkonce.s.*)
 *(.rela.sdata .rela.sdata.* .rela.gnu.linkonce.s.*)
 *(.rel.sbss .rel.sbss.* .rel.gnu.linkonce.sb.*)
 *(.rela.sbss .rela.sbss.* .rela.gnu.linkonce.sb.*)
 *(.rel.sdata2 .rel.sdata2.* .rel.gnu.linkonce.s2.*)
 *(.rela.sdata2 .rela.sdata2.* .rela.gnu.linkonce.s2.*)
 *(.rel.sbss2 .rel.sbss2.* .rel.gnu.linkonce.sb2.*)
 *(.rela.sbss2 .rela.sbss2.* .rela.gnu.linkonce.sb2.*)
 *(.rel.bss .rel.bss.* .rel.gnu.linkonce.b.*)
 *(.rela.bss .rela.bss.* .rela.gnu.linkonce.b.*)
 *(.rel.plt)
 *(.rela.plt)
 *(.rel.dyn)
 *(.init)
 *(.plt)
 *(.text .stub .text.* .gnu.linkonce.t.*)
 .text          0x040001bc       0x4c ../tcpip_test_bsp//obj/HAL/src/crt0.o
                0x040001bc                _start
 .text          0x04000208      0xba8 obj/alt_error_handler.o
                0x04000208                alt_uCOSIIErrorHandler
                0x0400082c                alt_NetworkErrorHandler
                0x04000ac4                alt_SSSErrorHandler
 .text          0x04000db0       0xf8 obj/iniche_init.o
                0x04000db0                SSSInitialTask
                0x04000e28                main
 .text          0x04000ea8      0x1f4 obj/led.o
                0x04000ea8                led_bit_toggle
                0x04000f94                LEDManagementTask
 .text          0x0400109c      0x1a0 obj/network_utilities.o
                0x0400109c                get_mac_addr
                0x040010dc                get_ip_addr
                0x04001138                generate_mac_addr
 .text          0x0400123c      0x8f0 obj/simple_socket_server.o
                0x0400123c                SSSCreateOSDataStructs
                0x040012e4                SSSCreateTasks
                0x04001358                sss_reset_connection
                0x040013c8                sss_send_menu
                0x04001530                sss_handle_accept
                0x040015f0                sss_exec_command
                0x04001794                sss_handle_receive
                0x04001980                SSSSimpleSocketServerTask
 .text          0x04001b2c      0x17c obj/tse_my_system.o
                0x04001b2c                SOFT_PHY_link_status_read
                0x04001b60                setup_phy
 .text          0x04001ca8        0x0 c:/altera/11.0sp1/nios2eds/bin/gnu/h-i686-mingw32/bin/../lib/gcc/nios2-elf/4.1.2/../../../../nios2-elf/lib\libc.a(lib_a-ctype_.o)
 .text          0x04001ca8       0x60 c:/altera/11.0sp1/nios2eds/bin/gnu/h-i686-mingw32/bin/../lib/gcc/nios2-elf/4.1.2/../../../../nios2-elf/lib\libc.a(lib_a-fprintf.o)
                0x04001ca8                fprintf
                0x04001cd4                _fprintf_r
 .text          0x04001d08       0xdc c:/altera/11.0sp1/nios2eds/bin/gnu/h-i686-mingw32/bin/../lib/gcc/nios2-elf/4.1.2/../../../../nios2-elf/lib\libc.a(lib_a-fwrite.o)
                0x04001d08                _fwrite_r
                0x04001da4                fwrite
 .text          0x04001de4        0x0 c:/altera/11.0sp1/nios2eds/bin/gnu/h-i686-mingw32/bin/../lib/gcc/nios2-elf/4.1.2/../../../../nios2-elf/lib\libc.a(lib_a-impure.o)
 .text          0x04001de4       0xa0 c:/altera/11.0sp1/nios2eds/bin/gnu/h-i686-mingw32/bin/../lib/gcc/nios2-elf/4.1.2/../../../../nios2-elf/lib\libc.a(lib_a-memcpy.o)
                0x04001de4                memcpy
 .text          0x04001e84       0xe0 c:/altera/11.0sp1/nios2eds/bin/gnu/h-i686-mingw32/bin/../lib/gcc/nios2-elf/4.1.2/../../../../nios2-elf/lib\libc.a(lib_a-memmove.o)
                0x04001e84                memmove
 .text          0x04001f64       0x98 c:/altera/11.0sp1/nios2eds/bin/gnu/h-i686-mingw32/bin/../lib/gcc/nios2-elf/4.1.2/../../../../nios2-elf/lib\libc.a(lib_a-memset.o)
                0x04001f64                memset
 .text          0x04001ffc       0x80 c:/altera/11.0sp1/nios2eds/bin/gnu/h-i686-mingw32/bin/../lib/gcc/nios2-elf/4.1.2/../../../../nios2-elf/lib\libc.a(lib_a-perror.o)
                0x04001ffc                _perror_r
                0x04002068                perror
 .text          0x0400207c       0x78 c:/altera/11.0sp1/nios2eds/bin/gnu/h-i686-mingw32/bin/../lib/gcc/nios2-elf/4.1.2/../../../../nios2-elf/lib\libc.a(lib_a-printf.o)
                0x0400207c                printf
                0x040020c0                _printf_r
 .text          0x040020f4       0xb4 c:/altera/11.0sp1/nios2eds/bin/gnu/h-i686-mingw32/bin/../lib/gcc/nios2-elf/4.1.2/../../../../nios2-elf/lib\libc.a(lib_a-puts.o)
                0x040020f4                _puts_r
                0x04002194                puts
 .text          0x040021a8       0xd4 c:/altera/11.0sp1/nios2eds/bin/gnu/h-i686-mingw32/bin/../lib/gcc/nios2-elf/4.1.2/../../../../nios2-elf/lib\libc.a(lib_a-sprintf.o)
                0x040021a8                sprintf
                0x0400221c                _sprintf_r
 .text          0x0400227c       0xe0 c:/altera/11.0sp1/nios2eds/bin/gnu/h-i686-mingw32/bin/../lib/gcc/nios2-elf/4.1.2/../../../../nios2-elf/lib\libc.a(lib_a-strchr.o)
                0x0400227c                strchr
 .text          0x0400235c      0x674 c:/altera/11.0sp1/nios2eds/bin/gnu/h-i686-mingw32/bin/../lib/gcc/nios2-elf/4.1.2/../../../../nios2-elf/lib\libc.a(lib_a-strerror.o)
                0x0400235c                strerror
 .text          0x040029d0       0x74 c:/altera/11.0sp1/nios2eds/bin/gnu/h-i686-mingw32/bin/../lib/gcc/nios2-elf/4.1.2/../../../../nios2-elf/lib\libc.a(lib_a-strlen.o)
                0x040029d0                strlen
 .text          0x04002a44        0x8 c:/altera/11.0sp1/nios2eds/bin/gnu/h-i686-mingw32/bin/../lib/gcc/nios2-elf/4.1.2/../../../../nios2-elf/lib\libc.a(lib_a-u_strerr.o)
                0x04002a44                _user_strerror
 .text          0x04002a4c     0x1f28 c:/altera/11.0sp1/nios2eds/bin/gnu/h-i686-mingw32/bin/../lib/gcc/nios2-elf/4.1.2/../../../../nios2-elf/lib\libc.a(lib_a-vfprintf.o)
                0x04002aa4                ___vfprintf_internal_r
                0x04004950                __vfprintf_internal
 .text          0x04004974      0x13c c:/altera/11.0sp1/nios2eds/bin/gnu/h-i686-mingw32/bin/../lib/gcc/nios2-elf/4.1.2/../../../../nios2-elf/lib\libc.a(lib_a-wsetup.o)
                0x04004974                __swsetup_r
 .text          0x04004ab0     0x17cc c:/altera/11.0sp1/nios2eds/bin/gnu/h-i686-mingw32/bin/../lib/gcc/nios2-elf/4.1.2/../../../../nios2-elf/lib\libc.a(lib_a-dtoa.o)
                0x04004cc8                _dtoa_r
 .text          0x0400627c      0x230 c:/altera/11.0sp1/nios2eds/bin/gnu/h-i686-mingw32/bin/../lib/gcc/nios2-elf/4.1.2/../../../../nios2-elf/lib\libc.a(lib_a-fflush.o)
                0x0400627c                _fflush_r
                0x04006478                fflush
 .text          0x040064ac      0x2c0 c:/altera/11.0sp1/nios2eds/bin/gnu/h-i686-mingw32/bin/../lib/gcc/nios2-elf/4.1.2/../../../../nios2-elf/lib\libc.a(lib_a-findfp.o)
                0x04006504                __sfp_lock_acquire
                0x04006508                __sfp_lock_release
                0x0400650c                __sinit_lock_acquire
                0x04006510                __sinit_lock_release
                0x04006514                __sinit
                0x040065c8                __fp_unlock_all
                0x040065e0                __fp_lock_all
                0x040065f8                _cleanup_r
                0x04006604                _cleanup
                0x04006614                __sfmoreglue
                0x0400667c                __sfp
 .text          0x0400676c       0xbc c:/altera/11.0sp1/nios2eds/bin/gnu/h-i686-mingw32/bin/../lib/gcc/nios2-elf/4.1.2/../../../../nios2-elf/lib\libc.a(lib_a-fputc.o)
                0x0400676c                fputc
                0x040067d0                _fputc_r
 .text          0x04006828       0x90 c:/altera/11.0sp1/nios2eds/bin/gnu/h-i686-mingw32/bin/../lib/gcc/nios2-elf/4.1.2/../../../../nios2-elf/lib\libc.a(lib_a-fputs.o)
                0x04006828                _fputs_r
                0x0400689c                fputs
 .text          0x040068b8      0x440 c:/altera/11.0sp1/nios2eds/bin/gnu/h-i686-mingw32/bin/../lib/gcc/nios2-elf/4.1.2/../../../../nios2-elf/lib\libc.a(lib_a-freer.o)
                0x040068b8                _malloc_trim_r
                0x040069e4                _free_r
 .text          0x04006cf8      0x49c c:/altera/11.0sp1/nios2eds/bin/gnu/h-i686-mingw32/bin/../lib/gcc/nios2-elf/4.1.2/../../../../nios2-elf/lib\libc.a(lib_a-fvwrite.o)
                0x04006cf8                __sfvwrite_r
 .text          0x04007194      0x180 c:/altera/11.0sp1/nios2eds/bin/gnu/h-i686-mingw32/bin/../lib/gcc/nios2-elf/4.1.2/../../../../nios2-elf/lib\libc.a(lib_a-fwalk.o)
                0x04007194                _fwalk_reent
                0x0400725c                _fwalk
 .text          0x04007314       0xc4 c:/altera/11.0sp1/nios2eds/bin/gnu/h-i686-mingw32/bin/../lib/gcc/nios2-elf/4.1.2/../../../../nios2-elf/lib\libc.a(lib_a-locale.o)
                0x04007314                __locale_charset
                0x0400731c                _localeconv_r
                0x04007328                localeconv
                0x04007338                _setlocale_r
                0x040073bc                setlocale
 .text          0x040073d8      0x194 c:/altera/11.0sp1/nios2eds/bin/gnu/h-i686-mingw32/bin/../lib/gcc/nios2-elf/4.1.2/../../../../nios2-elf/lib\libc.a(lib_a-makebuf.o)
                0x040073d8                __smakebuf_r
 .text          0x0400756c      0x740 c:/altera/11.0sp1/nios2eds/bin/gnu/h-i686-mingw32/bin/../lib/gcc/nios2-elf/4.1.2/../../../../nios2-elf/lib\libc.a(lib_a-mallocr.o)
                0x0400756c                _malloc_r
 .text          0x04007cac       0xe4 c:/altera/11.0sp1/nios2eds/bin/gnu/h-i686-mingw32/bin/../lib/gcc/nios2-elf/4.1.2/../../../../nios2-elf/lib\libc.a(lib_a-memchr.o)
                0x04007cac                memchr
 .text          0x04007d90      0xff4 c:/altera/11.0sp1/nios2eds/bin/gnu/h-i686-mingw32/bin/../lib/gcc/nios2-elf/4.1.2/../../../../nios2-elf/lib\libc.a(lib_a-mprec.o)
                0x04007d90                _Bfree
                0x04007db8                __hi0bits
                0x04007e28                __lo0bits
                0x04007eec                __mcmp
                0x04007f4c                __ulp
                0x04007fcc                __b2d
                0x040080ec                __ratio
                0x0400819c                _mprec_log10
                0x04008230                __copybits
                0x04008288                __any_on
                0x04008310                _Balloc
                0x040083cc                __d2b
                0x04008548                __mdiff
                0x040086d4                __lshift
                0x04008820                __multiply
                0x04008a08                __i2b
                0x04008a44                __multadd
                0x04008b44                __pow5mult
                0x04008c64                __s2b
 .text          0x04008d84      0x1ec c:/altera/11.0sp1/nios2eds/bin/gnu/h-i686-mingw32/bin/../lib/gcc/nios2-elf/4.1.2/../../../../nios2-elf/lib\libc.a(lib_a-putc.o)
                0x04008d84                putc
                0x04008e88                _putc_r
 .text          0x04008f70      0x5f4 c:/altera/11.0sp1/nios2eds/bin/gnu/h-i686-mingw32/bin/../lib/gcc/nios2-elf/4.1.2/../../../../nios2-elf/lib\libc.a(lib_a-reallocr.o)
                0x04008f70                _realloc_r
 .text          0x04009564       0x40 c:/altera/11.0sp1/nios2eds/bin/gnu/h-i686-mingw32/bin/../lib/gcc/nios2-elf/4.1.2/../../../../nios2-elf/lib\libc.a(lib_a-s_isinfd.o)
                0x04009564                __isinfd
 .text          0x040095a4       0x30 c:/altera/11.0sp1/nios2eds/bin/gnu/h-i686-mingw32/bin/../lib/gcc/nios2-elf/4.1.2/../../../../nios2-elf/lib\libc.a(lib_a-s_isnand.o)
                0x040095a4                __isnand
 .text          0x040095d4       0x70 c:/altera/11.0sp1/nios2eds/bin/gnu/h-i686-mingw32/bin/../lib/gcc/nios2-elf/4.1.2/../../../../nios2-elf/lib\libc.a(lib_a-sbrkr.o)
                0x040095d4                _sbrk_r
 .text          0x04009644      0x14c c:/altera/11.0sp1/nios2eds/bin/gnu/h-i686-mingw32/bin/../lib/gcc/nios2-elf/4.1.2/../../../../nios2-elf/lib\libc.a(lib_a-stdio.o)
                0x04009644                __sclose
                0x0400964c                __sseek
                0x040096b4                __swrite
                0x04009730                __sread
 .text          0x04009790       0xbc c:/altera/11.0sp1/nios2eds/bin/gnu/h-i686-mingw32/bin/../lib/gcc/nios2-elf/4.1.2/../../../../nios2-elf/lib\libc.a(lib_a-strcmp.o)
                0x04009790                strcmp
 .text          0x0400984c      0x14c c:/altera/11.0sp1/nios2eds/bin/gnu/h-i686-mingw32/bin/../lib/gcc/nios2-elf/4.1.2/../../../../nios2-elf/lib\libc.a(lib_a-wbuf.o)
                0x0400984c                __swbuf_r
                0x0400997c                __swbuf
 .text          0x04009998       0x78 c:/altera/11.0sp1/nios2eds/bin/gnu/h-i686-mingw32/bin/../lib/gcc/nios2-elf/4.1.2/../../../../nios2-elf/lib\libc.a(lib_a-writer.o)
                0x04009998                _write_r
 .text          0x04009a10       0xb4 c:/altera/11.0sp1/nios2eds/bin/gnu/h-i686-mingw32/bin/../lib/gcc/nios2-elf/4.1.2/../../../../nios2-elf/lib\libc.a(lib_a-callocr.o)
                0x04009a10                _calloc_r
 .text          0x04009ac4       0x70 c:/altera/11.0sp1/nios2eds/bin/gnu/h-i686-mingw32/bin/../lib/gcc/nios2-elf/4.1.2/../../../../nios2-elf/lib\libc.a(lib_a-closer.o)
                0x04009ac4                _close_r
 .text          0x04009b34      0x124 c:/altera/11.0sp1/nios2eds/bin/gnu/h-i686-mingw32/bin/../lib/gcc/nios2-elf/4.1.2/../../../../nios2-elf/lib\libc.a(lib_a-fclose.o)
                0x04009b34                _fclose_r
                0x04009c44                fclose
 .text          0x04009c58       0x74 c:/altera/11.0sp1/nios2eds/bin/gnu/h-i686-mingw32/bin/../lib/gcc/nios2-elf/4.1.2/../../../../nios2-elf/lib\libc.a(lib_a-fstatr.o)
                0x04009c58                _fstat_r
 .text          0x04009ccc        0x0 c:/altera/11.0sp1/nios2eds/bin/gnu/h-i686-mingw32/bin/../lib/gcc/nios2-elf/4.1.2/../../../../nios2-elf/lib\libc.a(lib_a-int_errno.o)
 .text          0x04009ccc       0x70 c:/altera/11.0sp1/nios2eds/bin/gnu/h-i686-mingw32/bin/../lib/gcc/nios2-elf/4.1.2/../../../../nios2-elf/lib\libc.a(lib_a-isattyr.o)
                0x04009ccc                _isatty_r
 .text          0x04009d3c       0x78 c:/altera/11.0sp1/nios2eds/bin/gnu/h-i686-mingw32/bin/../lib/gcc/nios2-elf/4.1.2/../../../../nios2-elf/lib\libc.a(lib_a-lseekr.o)
                0x04009d3c                _lseek_r
 .text          0x04009db4       0x78 c:/altera/11.0sp1/nios2eds/bin/gnu/h-i686-mingw32/bin/../lib/gcc/nios2-elf/4.1.2/../../../../nios2-elf/lib\libc.a(lib_a-readr.o)
                0x04009db4                _read_r
 .text          0x04009e2c      0x5dc c:/altera/11.0sp1/nios2eds/bin/gnu/h-i686-mingw32/bin/../lib/gcc/nios2-elf/4.1.2\libgcc.a(_udivdi3.o)
                0x04009e2c                __udivdi3
 .text          0x0400a408      0x5b0 c:/altera/11.0sp1/nios2eds/bin/gnu/h-i686-mingw32/bin/../lib/gcc/nios2-elf/4.1.2\libgcc.a(_umoddi3.o)
                0x0400a408                __umoddi3
 .text          0x0400a9b8      0x504 c:/altera/11.0sp1/nios2eds/bin/gnu/h-i686-mingw32/bin/../lib/gcc/nios2-elf/4.1.2\libgcc.a(_addsub_df.o)
                0x0400adc8                __subdf3
                0x0400ae48                __adddf3
 .text          0x0400aebc      0x3c4 c:/altera/11.0sp1/nios2eds/bin/gnu/h-i686-mingw32/bin/../lib/gcc/nios2-elf/4.1.2\libgcc.a(_mul_df.o)
                0x0400aebc                __muldf3
 .text          0x0400b280      0x258 c:/altera/11.0sp1/nios2eds/bin/gnu/h-i686-mingw32/bin/../lib/gcc/nios2-elf/4.1.2\libgcc.a(_div_df.o)
                0x0400b280                __divdf3
 .text          0x0400b4d8       0x88 c:/altera/11.0sp1/nios2eds/bin/gnu/h-i686-mingw32/bin/../lib/gcc/nios2-elf/4.1.2\libgcc.a(_eq_df.o)
                0x0400b4d8                __eqdf2
 .text          0x0400b560       0x88 c:/altera/11.0sp1/nios2eds/bin/gnu/h-i686-mingw32/bin/../lib/gcc/nios2-elf/4.1.2\libgcc.a(_ne_df.o)
                0x0400b560                __nedf2
 .text          0x0400b5e8       0x88 c:/altera/11.0sp1/nios2eds/bin/gnu/h-i686-mingw32/bin/../lib/gcc/nios2-elf/4.1.2\libgcc.a(_gt_df.o)
                0x0400b5e8                __gtdf2
 .text          0x0400b670       0x88 c:/altera/11.0sp1/nios2eds/bin/gnu/h-i686-mingw32/bin/../lib/gcc/nios2-elf/4.1.2\libgcc.a(_ge_df.o)
                0x0400b670                __gedf2
 .text          0x0400b6f8       0x88 c:/altera/11.0sp1/nios2eds/bin/gnu/h-i686-mingw32/bin/../lib/gcc/nios2-elf/4.1.2\libgcc.a(_lt_df.o)
                0x0400b6f8                __ltdf2
 .text          0x0400b780       0xf8 c:/altera/11.0sp1/nios2eds/bin/gnu/h-i686-mingw32/bin/../lib/gcc/nios2-elf/4.1.2\libgcc.a(_si_to_df.o)
                0x0400b780                __floatsidf
 .text          0x0400b878       0xd8 c:/altera/11.0sp1/nios2eds/bin/gnu/h-i686-mingw32/bin/../lib/gcc/nios2-elf/4.1.2\libgcc.a(_df_to_si.o)
                0x0400b878                __fixdfsi
 .text          0x0400b950        0x0 c:/altera/11.0sp1/nios2eds/bin/gnu/h-i686-mingw32/bin/../lib/gcc/nios2-elf/4.1.2\libgcc.a(_thenan_df.o)
 .text          0x0400b950      0x194 c:/altera/11.0sp1/nios2eds/bin/gnu/h-i686-mingw32/bin/../lib/gcc/nios2-elf/4.1.2\libgcc.a(_usi_to_df.o)
                0x0400b950                __floatunsidf
 .text          0x0400bae4      0x14c c:/altera/11.0sp1/nios2eds/bin/gnu/h-i686-mingw32/bin/../lib/gcc/nios2-elf/4.1.2\libgcc.a(lib2-divmod.o)
                0x0400bb60                __divsi3
                0x0400bbc0                __modsi3
                0x0400bc20                __udivsi3
                0x0400bc28                __umodsi3
 .text          0x0400bc30       0x98 c:/altera/11.0sp1/nios2eds/bin/gnu/h-i686-mingw32/bin/../lib/gcc/nios2-elf/4.1.2\libgcc.a(_muldi3.o)
                0x0400bc30                __muldi3
 .text          0x0400bcc8        0x0 c:/altera/11.0sp1/nios2eds/bin/gnu/h-i686-mingw32/bin/../lib/gcc/nios2-elf/4.1.2\libgcc.a(_clz.o)
 .text          0x0400bcc8       0x80 c:/altera/11.0sp1/nios2eds/bin/gnu/h-i686-mingw32/bin/../lib/gcc/nios2-elf/4.1.2\libgcc.a(_clzsi2.o)
                0x0400bcc8                __clzsi2
 .text          0x0400bd48      0x314 c:/altera/11.0sp1/nios2eds/bin/gnu/h-i686-mingw32/bin/../lib/gcc/nios2-elf/4.1.2\libgcc.a(_pack_df.o)
                0x0400bd48                __pack_d
 .text          0x0400c05c      0x138 c:/altera/11.0sp1/nios2eds/bin/gnu/h-i686-mingw32/bin/../lib/gcc/nios2-elf/4.1.2\libgcc.a(_unpack_df.o)
                0x0400c05c                __unpack_d
 .text          0x0400c194       0xc8 c:/altera/11.0sp1/nios2eds/bin/gnu/h-i686-mingw32/bin/../lib/gcc/nios2-elf/4.1.2\libgcc.a(_fpcmp_parts_df.o)
                0x0400c194                __fpcmp_parts_d
 .text          0x0400c25c      0x134 ../tcpip_test_bsp/\libucosii_bsp.a(alt_fstat.o)
                0x0400c25c                fstat
 .text          0x0400c390      0x120 ../tcpip_test_bsp/\libucosii_bsp.a(alt_isatty.o)
                0x0400c390                isatty
 .text          0x0400c4b0       0xec ../tcpip_test_bsp/\libucosii_bsp.a(alt_load.o)
                0x0400c4b0                alt_load
 .text          0x0400c59c      0x150 ../tcpip_test_bsp/\libucosii_bsp.a(alt_lseek.o)
                0x0400c59c                lseek
 .text          0x0400c6ec       0xc8 ../tcpip_test_bsp/\libucosii_bsp.a(alt_main.o)
                0x0400c6ec                alt_main
 .text          0x0400c7b4       0xbc ../tcpip_test_bsp/\libucosii_bsp.a(alt_sbrk.o)
                0x0400c7b4                sbrk
 .text          0x0400c870      0x108 ../tcpip_test_bsp/\libucosii_bsp.a(alt_env_lock.o)
                0x0400c870                __env_lock
                0x0400c91c                __env_unlock
 .text          0x0400c978      0x1d8 ../tcpip_test_bsp/\libucosii_bsp.a(alt_malloc_lock.o)
                0x0400c978                __malloc_lock
                0x0400ca80                __malloc_unlock
 .text          0x0400cb50     0x2128 ../tcpip_test_bsp/\libucosii_bsp.a(os_core.o)
                0x0400cb50                OSEventNameGet
                0x0400cc80                OSEventNameSet
                0x0400cdc4                OSEventPendMulti
                0x0400d478                OSInit
                0x0400d4cc                OSIntEnter
                0x0400d548                OSIntExit
                0x0400d648                OSSchedLock
                0x0400d6d4                OSSchedUnlock
                0x0400d7b8                OSStart
                0x0400d828                OSStatInit
                0x0400d8d4                OSTimeTick
                0x0400db14                OSVersion
                0x0400db34                OS_Dummy
                0x0400db50                OS_EventTaskRdy
                0x0400dce4                OS_EventTaskWait
                0x0400ddf4                OS_EventTaskWaitMulti
                0x0400df48                OS_EventTaskRemove
                0x0400e000                OS_EventTaskRemoveMulti
                0x0400e104                OS_EventWaitListInit
                0x0400e4d0                OS_MemClr
                0x0400e524                OS_MemCopy
                0x0400e590                OS_Sched
                0x0400e6d4                OS_StrCopy
                0x0400e754                OS_StrLen
                0x0400e7ac                OS_TaskIdle
                0x0400e808                OS_TaskStat
                0x0400e8d0                OS_TaskStatStkChk
                0x0400e998                OS_TCBInit
 .text          0x0400ec78      0x18c ../tcpip_test_bsp/\libucosii_bsp.a(os_dbg.o)
                0x0400ec78                OSDebugInit
 .text          0x0400ee04     0x193c ../tcpip_test_bsp/\libucosii_bsp.a(os_flag.o)
                0x0400ee04                OSFlagAccept
                0x0400f138                OSFlagCreate
                0x0400f274                OSFlagDel
                0x0400f51c                OSFlagNameGet
                0x0400f660                OSFlagNameSet
                0x0400f7b4                OSFlagPend
                0x0400fdf8                OSFlagPendGetFlagsRdy
                0x0400fe60                OSFlagPost
                0x04010208                OSFlagQuery
                0x040104a0                OS_FlagInit
                0x04010694                OS_FlagUnlink
 .text          0x04010740      0x808 ../tcpip_test_bsp/\libucosii_bsp.a(os_mem.o)
                0x04010740                OSMemCreate
                0x0401095c                OSMemGet
                0x04010a60                OSMemNameGet
                0x04010b6c                OSMemNameSet
                0x04010c8c                OSMemPut
                0x04010d7c                OSMemQuery
                0x04010e78                OS_MemInit
 .text          0x04010f48     0x1334 ../tcpip_test_bsp/\libucosii_bsp.a(os_q.o)
                0x04010f48                OSQAccept
                0x0401109c                OSQCreate
                0x040112b0                OSQDel
                0x040115b0                OSQFlush
                0x04011678                OSQPend
                0x04011998                OSQPendAbort
                0x04011b14                OSQPost
                0x04011c94                OSQPostFront
                0x04011e1c                OSQPostOpt
                0x04012050                OSQQuery
                0x040121d0                OS_QInit
 .text          0x0401227c      0xbc8 ../tcpip_test_bsp/\libucosii_bsp.a(os_sem.o)
                0x0401227c                OSSemAccept
                0x0401233c                OSSemCreate
                0x04012450                OSSemDel
                0x040126f0                OSSemPend
                0x0401296c                OSSemPendAbort
                0x04012ae8                OSSemPost
                0x04012c10                OSSemQuery
                0x04012d40                OSSemSet
 .text          0x04012e44     0x1a40 ../tcpip_test_bsp/\libucosii_bsp.a(os_task.o)
                0x04012e44                OSTaskChangePrio
                0x040133b8                OSTaskCreate
                0x0401358c                OSTaskCreateExt
                0x0401378c                OSTaskDel
                0x04013b98                OSTaskDelReq
                0x04013d08                OSTaskNameGet
                0x04013ec0                OSTaskNameSet
                0x04014084                OSTaskResume
                0x0401429c                OSTaskStkChk
                0x04014498                OSTaskSuspend
                0x040146c4                OSTaskQuery
                0x04014808                OS_TaskStkClr
 .text          0x04014884      0x594 ../tcpip_test_bsp/\libucosii_bsp.a(os_time.o)
                0x04014884                OSTimeDly
                0x040149d0                OSTimeDlyHMSM
                0x04014b40                OSTimeDlyResume
                0x04014d50                OSTimeGet
                0x04014db4                OSTimeSet
 .text          0x04014e18      0x2bc ../tcpip_test_bsp/\libucosii_bsp.a(alt_sys_init.o)
                0x04014e18                alt_irq_init
                0x04014e4c                alt_sys_init
 .text          0x040150d4      0x148 ../tcpip_test_bsp/\libucosii_bsp.a(altera_avalon_jtag_uart_fd.o)
                0x040150d4                altera_avalon_jtag_uart_read_fd
                0x0401512c                altera_avalon_jtag_uart_write_fd
                0x04015184                altera_avalon_jtag_uart_close_fd
                0x040151cc                altera_avalon_jtag_uart_ioctl_fd
 .text          0x0401521c      0x584 ../tcpip_test_bsp/\libucosii_bsp.a(altera_avalon_jtag_uart_init.o)
                0x0401521c                altera_avalon_jtag_uart_init
                0x0401572c                altera_avalon_jtag_uart_close
 .text          0x040157a0       0xf4 ../tcpip_test_bsp/\libucosii_bsp.a(altera_avalon_jtag_uart_ioctl.o)
                0x040157a0                altera_avalon_jtag_uart_ioctl
 .text          0x04015894      0x2c0 ../tcpip_test_bsp/\libucosii_bsp.a(altera_avalon_jtag_uart_read.o)
                0x04015894                altera_avalon_jtag_uart_read
 .text          0x04015b54      0x2dc ../tcpip_test_bsp/\libucosii_bsp.a(altera_avalon_jtag_uart_write.o)
                0x04015b54                altera_avalon_jtag_uart_write
 .text          0x04015e30      0xde4 ../tcpip_test_bsp/\libucosii_bsp.a(altera_avalon_sgdma.o)
                0x04015e30                alt_avalon_sgdma_do_async_transfer
                0x04015f6c                alt_avalon_sgdma_do_sync_transfer
                0x04016090                alt_avalon_sgdma_construct_mem_to_mem_desc
                0x04016100                alt_avalon_sgdma_construct_mem_to_mem_desc_burst
                0x04016180                alt_avalon_sgdma_construct_stream_to_mem_desc
                0x040161d4                alt_avalon_sgdma_construct_stream_to_mem_desc_burst
                0x04016244                alt_avalon_sgdma_construct_mem_to_stream_desc
                0x040162b8                alt_avalon_sgdma_construct_mem_to_stream_desc_burst
                0x0401633c                alt_avalon_sgdma_register_callback
                0x0401638c                alt_avalon_sgdma_start
                0x040163e0                alt_avalon_sgdma_stop
                0x04016438                alt_avalon_sgdma_check_descriptor_status
                0x040164a8                alt_avalon_sgdma_open
                0x04016560                alt_avalon_sgdma_construct_descriptor
                0x040165e8                alt_avalon_sgdma_enable_desc_poll
                0x04016664                alt_avalon_sgdma_disable_desc_poll
                0x040166c0                alt_avalon_sgdma_construct_descriptor_burst
                0x04016b68                alt_avalon_sgdma_init
 .text          0x04016c14      0x100 ../tcpip_test_bsp/\libucosii_bsp.a(altera_avalon_timer_sc.o)
                0x04016c84                alt_avalon_timer_sc_init
 .text          0x04016d14     0x5350 ../tcpip_test_bsp/\libucosii_bsp.a(altera_avalon_tse.o)
                0x04016d14                no_printf
                0x04016d40                tse_mac_initTransInfo2
                0x04016da0                tse_mac_sTxWrite
                0x04016e90                tse_mac_aRxRead
                0x04016f34                tse_mac_SwReset
                0x04016fc8                tse_mac_setMIImode
                0x04017020                tse_mac_setGMIImode
                0x04017074                alt_tse_phy_add_profile
                0x0401724c                alt_tse_system_add_sys
                0x04017c60                alt_tse_sys_enable_mdio_sharing
                0x04017dd8                alt_tse_mac_get_common_speed
                0x04017e18                alt_tse_mac_set_common_speed
                0x04017e60                alt_tse_get_system_index
                0x04017edc                alt_tse_get_mac_group_index
                0x04017f5c                alt_tse_get_mac_info_index
                0x04017fe8                alt_tse_get_mac_info
                0x040180c8                alt_tse_mac_set_speed
                0x040181b4                alt_tse_mac_set_duplex
                0x0401824c                getPHYSpeed
                0x04019064                alt_tse_phy_rd_mdio_addr
                0x040190ac                alt_tse_phy_wr_mdio_addr
                0x04019100                alt_tse_phy_wr_mdio_reg
                0x04019228                alt_tse_phy_rd_mdio_reg
                0x040192ec                alt_tse_phy_add_profile_default
                0x04019564                alt_tse_phy_print_profile
                0x04019754                alt_tse_mac_group_init
                0x04019e60                alt_tse_mac_get_phy
                0x0401a278                alt_tse_mac_associate_phy
                0x0401a4b0                alt_tse_phy_cfg_pcs
                0x0401a5d0                alt_tse_phy_init
                0x0401a6e4                alt_tse_phy_restart_an
                0x0401a894                alt_tse_phy_check_link
                0x0401a9d8                alt_tse_phy_get_cap
                0x0401af18                alt_tse_phy_set_adv_1000
                0x0401b0ac                alt_tse_phy_set_adv_100
                0x0401b2bc                alt_tse_phy_set_adv_10
                0x0401b454                alt_tse_phy_get_common_speed
                0x0401b770                alt_tse_phy_set_common_speed
                0x0401bc54                marvell_phy_cfg
                0x0401bcfc                marvell_cfg_gmii
                0x0401bdf0                marvell_cfg_sgmii
                0x0401bee4                marvell_cfg_rgmii
                0x0401bfe4                DP83848C_link_status_read
 .text          0x0401c064        0x0 ../tcpip_test_bsp/\libucosii_bsp.a(altera_avalon_tse_system_info.o)
 .text          0x0401c064     0x1784 ../tcpip_test_bsp/\libucosii_bsp.a(ins_tse_mac.o)
                0x0401c064                triple_speed_ethernet_init
                0x0401c1c0                prep_tse_mac
                0x0401c424                tse_mac_init
                0x0401cf0c                tse_mac_raw_send
                0x0401d204                tse_sgdmaRx_isr
                0x0401d2ac                tse_sgdma_read_init
                0x0401d454                tse_mac_rcv
                0x0401d6a4                tse_mac_stats
                0x0401d6e4                tse_mac_close
 .text          0x0401d7e8       0x54 ../tcpip_test_bsp/\libucosii_bsp.a(alt_iniche_close.o)
                0x0401d7e8                close
 .text          0x0401d83c      0x144 ../tcpip_test_bsp/\libucosii_bsp.a(alt_iniche_dev.o)
                0x0401d83c                iniche_devices_init
 .text          0x0401d980       0x78 ../tcpip_test_bsp/\libucosii_bsp.a(alt_iniche_read.o)
                0x0401d980                read
 .text          0x0401d9f8       0x70 ../tcpip_test_bsp/\libucosii_bsp.a(alt_iniche_write.o)
                0x0401d9f8                write
 .text          0x0401da68      0xedc ../tcpip_test_bsp/\libucosii_bsp.a(ipnet.o)
                0x0401da68                Netinit
                0x0401e0b4                fixup_subnet_mask
                0x0401e214                netclose
                0x0401e2fc                pktdemux
                0x0401e6d0                c_older
                0x0401e7a0                ip2mac
 .text          0x0401e944      0x4b0 ../tcpip_test_bsp/\libucosii_bsp.a(ipstart.o)
                0x0401e944                ip_startup
                0x0401ec28                exit_hook
                0x0401ec94                ip_exit
                0x0401ed64                if_netnumber
 .text          0x0401edf4     0x101c ../tcpip_test_bsp/\libucosii_bsp.a(igmp_cmn.o)
                0x0401edf4                igmp_init
                0x0401eea4                igmp_input
                0x0401ef9c                igmp_fasttimo
                0x0401f134                igmp_send
                0x0401f3dc                igmp_joingroup
                0x0401f658                igmp_leavegroup
                0x0401f6d4                igmp_validate
                0x0401fa30                igmp_print_stats
 .text          0x0401fe10      0xb40 ../tcpip_test_bsp/\libucosii_bsp.a(bsdsock.o)
                0x0401fe10                bsd_accept
                0x0401ff48                bsd_getpeername
                0x04020074                bsd_getsockname
                0x040201a0                bsd_i_sockoptlen
                0x04020358                bsd_getsockopt
                0x04020478                bsd_ioctl
                0x0402057c                bsd_inet_ntoa
                0x040205ac                bsd_recvfrom
                0x0402070c                bsd_select
                0x04020864                bsd_setsockopt
 .text          0x04020950      0x118 ../tcpip_test_bsp/\libucosii_bsp.a(cksum.o)
                0x04020950                ccksum
                0x04020a00                cksum
 .text          0x04020a68      0xabc ../tcpip_test_bsp/\libucosii_bsp.a(in_utils.o)
                0x04020a68                do_trap
                0x04020a94                nextarg
                0x04020b10                hexdump
                0x04020c58                print_ipad
                0x04020ccc                print_uptime
                0x04020e10                panic
                0x04020e54                print_eth
                0x04020fb8                uslash
                0x04021038                ns_printf
                0x040211bc                std_out
                0x04021200                con_page
                0x040212f8                parse_args
 .text          0x04021524      0x1c8 ../tcpip_test_bsp/\libucosii_bsp.a(netmain.o)
                0x04021524                netmain
                0x04021618                tk_netmain
                0x040216a0                tk_nettick
 .text          0x040216ec      0x5e8 ../tcpip_test_bsp/\libucosii_bsp.a(tk_crnos.o)
                0x040216ec                TK_OSTimeDly
                0x04021718                TK_OSTaskResume
                0x04021788                tcp_sleep
                0x04021928                tcp_wakeup
                0x04021a2c                TK_OSTaskQuery
                0x04021aa0                tk_yield
                0x04021acc                tk_stats
 .text          0x04021cd4     0x2f40 ../tcpip_test_bsp/\libucosii_bsp.a(dhcpclnt.o)
                0x04021cd4                dhc_get_srv_ipaddr
                0x04021d64                dhc_init
                0x04021e20                dhc_set_callback
                0x04021e64                dhc_upcall
                0x04022694                dhc_buildheader
                0x040228b0                dhc_discover
                0x04022dc8                dhc_rx_offer
                0x04022ecc                dhc_request
                0x04023a08                dhc_setip
                0x04023c88                dhc_resetip
                0x04023d6c                dhc_decline
                0x04023f50                dhc_extract_opts
                0x0402420c                dhc_second
                0x040247a8                dhc_halt
                0x04024830                dhc_reclaim
                0x04024a00                dhc_state_init
                0x04024a60                dhc_alldone
                0x04024af0                dhc_ifacedone
                0x04024b64                dhc_set_state
 .text          0x04024c14       0xcc ../tcpip_test_bsp/\libucosii_bsp.a(dhcputil.o)
                0x04024c14                find_opt
 .text          0x04024ce0      0x79c ../tcpip_test_bsp/\libucosii_bsp.a(pktalloc.o)
                0x04024ce0                pk_init
                0x04024f70                pk_alloc
                0x0402504c                pk_validate
                0x04025304                pk_free
                0x040253b0                pk_get_max_intrsafe_buf_len
                0x040253d0                dump_buf_estats
 .text          0x0402547c      0x288 ../tcpip_test_bsp/\libucosii_bsp.a(q.o)
                0x0402547c                getq
                0x04025544                putq
                0x040255f4                qdel
 .text          0x04025704      0x31c ../tcpip_test_bsp/\libucosii_bsp.a(udp_open.o)
                0x04025704                udp_open
                0x0402593c                udp_close
 .text          0x04025a20      0x194 ../tcpip_test_bsp/\libucosii_bsp.a(asm_cksum.o)
                0x04025a20                asm_cksum
 .text          0x04025bb4      0x2a0 ../tcpip_test_bsp/\libucosii_bsp.a(brdutils.o)
                0x04025bb4                dtrap
                0x04025be4                kbhit
                0x04025c90                getch
                0x04025cf0                clock_init
                0x04025d2c                clock_c
                0x04025d48                cticks_hook
                0x04025db4                irq_Mask
                0x04025e10                irq_Unmask
 .text          0x04025e54      0x488 ../tcpip_test_bsp/\libucosii_bsp.a(osportco.o)
                0x04025e54                LOCK_NET_RESOURCE
                0x04025f14                UNLOCK_NET_RESOURCE
                0x04025f9c                TK_NEWTASK
                0x040261b0                wait_app_sem
                0x04026264                post_app_sem
 .text          0x040262dc      0x568 ../tcpip_test_bsp/\libucosii_bsp.a(targnios.o)
                0x040262dc                alt_iniche_init
                0x040264f8                pre_task_setup
                0x0402656c                post_task_setup
                0x0402658c                prep_armintcp
                0x040265c4                calloc2
                0x040265f8                npalloc
                0x040266ec                npfree
                0x040267a4                ncpalloc
                0x040267f8                ncpfree
 .text          0x04026844     0x197c ../tcpip_test_bsp/\libucosii_bsp.a(nptcp.o)
                0x04026844                pffindtype
                0x040268e4                pffindproto
                0x040269b4                m_getnbuf
                0x04026b5c                m_free
                0x04026c90                m_freem
                0x04026cd4                m_copy
                0x04026ff8                m_adj
                0x040271c8                mbuf_len
                0x04027220                dtom
                0x040272c8                remque
                0x04027338                insque
                0x040273b4                nptcp_init
                0x040274d8                tcp_rcv
                0x040276c4                ip_output
                0x04027cbc                in_broadcast
                0x04027cfc                np_stripoptions
                0x04027de4                so_icmpdu
                0x0402813c                tcp_tick
 .text          0x040281c0      0xa2c ../tcpip_test_bsp/\libucosii_bsp.a(rawsock.o)
                0x040281c0                rawip_lookup
                0x04028230                rawip_soinput
                0x04028404                rawip_usrreq
 .text          0x04028bec     0x17fc ../tcpip_test_bsp/\libucosii_bsp.a(sockcall.o)
                0x04028bec                DOMAIN_CHECK
                0x04028c38                t_socket
                0x04028cc8                t_bind
                0x04028e44                t_listen
                0x04028f28                t_accept
                0x040291c0                t_connect
                0x04029468                t_getpeername
                0x040294ac                t_getsockname
                0x040296ec                t_setsockopt
                0x040298c8                t_getsockopt
                0x04029a6c                t_recv
                0x04029b5c                t_recvfrom
                0x04029cac                t_sendto
                0x04029ed8                t_send
                0x0402a100                t_shutdown
                0x0402a1e4                t_socketclose
                0x0402a34c                t_errno
 .text          0x0402a3e8     0x2374 ../tcpip_test_bsp/\libucosii_bsp.a(socket.o)
                0x0402a3e8                socreate
                0x0402a5b4                sobind
                0x0402a610                solisten
                0x0402a700                sofree
                0x0402a830                soclose
                0x0402ab24                soabort
                0x0402ab74                soaccept
                0x0402ac10                soconnect
                0x0402ace4                sodisconnect
                0x0402ad84                sosend
                0x0402b38c                soreceive
                0x0402bb70                soshutdown
                0x0402bc18                sorflush
                0x0402bd18                sosetopt
                0x0402c1d8                sogetopt
                0x0402c718                sohasoutofband
 .text          0x0402c75c     0x1318 ../tcpip_test_bsp/\libucosii_bsp.a(socket2.o)
                0x0402c75c                soisconnecting
                0x0402c7c8                soisconnected
                0x0402c8c4                soisdisconnecting
                0x0402c950                soisdisconnected
                0x0402ca0c                sonewconn
                0x0402cc28                soqinsque
                0x0402ccd4                soqremque
                0x0402cdf4                socantsendmore
                0x0402ce44                socantrcvmore
                0x0402ce94                sbselqueue
                0x0402cecc                sbwait
                0x0402cf34                sbwakeup
                0x0402cfd0                soreserve
                0x0402d050                sbreserve
                0x0402d0b0                sbrelease
                0x0402d0f8                sbappend
                0x0402d1a0                sbappendrecord
                0x0402d280                sbappendaddr
                0x0402d488                sbcompress
                0x0402d670                sbflush
                0x0402d700                sbdrop
                0x0402d8d0                sbdropend
                0x0402d9e0                sbdroprecord
 .text          0x0402da74      0x914 ../tcpip_test_bsp/\libucosii_bsp.a(soselect.o)
                0x0402da74                t_select
                0x0402dc94                sock_selscan
                0x0402ddec                sock_select
                0x0402e000                in_pcbnotify
                0x0402e0cc                tcp_notify
                0x0402e134                ifd_clr
                0x0402e224                ifd_set
                0x0402e298                ifd_isset
                0x0402e318                ifd_get
 .text          0x0402e388     0x2fe8 ../tcpip_test_bsp/\libucosii_bsp.a(tcp_in.o)
                0x0402e388                tcp_reass
                0x0402e790                tcp_input
                0x04030ce4                tcp_dooptions
                0x04030e74                tcp_pulloutofband
                0x04030fa0                tcp_xmit_timer
                0x0403120c                ip4_tcpmss
                0x04031254                tcp_mss
 .text          0x04031370     0x1360 ../tcpip_test_bsp/\libucosii_bsp.a(tcp_out.o)
                0x04031370                tcp_output
                0x040324ec                tcp_setpersist
 .text          0x040326d0      0x9e8 ../tcpip_test_bsp/\libucosii_bsp.a(tcp_subr.o)
                0x040326d0                tcp_init
                0x04032728                tcp_template
                0x04032840                tcp_respond
                0x04032cc8                tcp_newtcpcb
                0x04032de0                tcp_drop
                0x04032e8c                tcp_close
                0x04032f74                tcp_quench
                0x04032fc0                tcp_putseq
                0x04033040                tcp_getseq
 .text          0x040330b8      0x798 ../tcpip_test_bsp/\libucosii_bsp.a(tcp_timr.o)
                0x040330b8                tcp_slowtimo
                0x04033358                tcp_canceltimers
                0x040333b4                tcp_timers
 .text          0x04033850      0x9ec ../tcpip_test_bsp/\libucosii_bsp.a(tcp_usr.o)
                0x04033850                tcp_usrreq
                0x04033f54                tcp_attach
                0x04034088                tcp_disconnect
                0x0403415c                tcp_usrclosed
 .text          0x0403423c       0x4c ../tcpip_test_bsp/\libucosii_bsp.a(tcpport.o)
                0x0403423c                tcpinit
 .text          0x04034288      0xd20 ../tcpip_test_bsp/\libucosii_bsp.a(udpsock.o)
                0x04034288                udp_lookup
                0x040342f8                udp_soinput
                0x040344b0                udp_usrreq
                0x04034734                udp4_sockbind
                0x04034a70                udp4_socksend
                0x04034e4c                udp4_sockaddr
 .text          0x04034fa8      0x154 ../tcpip_test_bsp/\libucosii_bsp.a(alt_alarm_start.o)
                0x04034fa8                alt_alarm_start
 .text          0x040350fc      0x15c ../tcpip_test_bsp/\libucosii_bsp.a(alt_close.o)
                0x040350fc                alt_close
 .text          0x04035258       0x44 ../tcpip_test_bsp/\libucosii_bsp.a(alt_dcache_flush_all.o)
                0x04035258                alt_dcache_flush_all
 .text          0x0403529c       0x2c ../tcpip_test_bsp/\libucosii_bsp.a(alt_dev.o)
 .text          0x040352c8      0x114 ../tcpip_test_bsp/\libucosii_bsp.a(alt_dev_llist_insert.o)
                0x040352c8                alt_dev_llist_insert
 .text          0x040353dc       0x64 ../tcpip_test_bsp/\libucosii_bsp.a(alt_do_ctors.o)
                0x040353dc                _do_ctors
 .text          0x04035440       0x64 ../tcpip_test_bsp/\libucosii_bsp.a(alt_do_dtors.o)
                0x04035440                _do_dtors
 .text          0x040354a4        0x0 ../tcpip_test_bsp/\libucosii_bsp.a(alt_errno.o)
 .text          0x040354a4       0x94 ../tcpip_test_bsp/\libucosii_bsp.a(alt_find_dev.o)
                0x040354a4                alt_find_dev
 .text          0x04035538       0x30 ../tcpip_test_bsp/\libucosii_bsp.a(alt_icache_flush_all.o)
                0x04035538                alt_icache_flush_all
 .text          0x04035568      0x1d4 ../tcpip_test_bsp/\libucosii_bsp.a(alt_iic.o)
                0x04035568                alt_ic_isr_register
                0x040355b8                alt_ic_irq_enable
                0x04035654                alt_ic_irq_disable
                0x040356f4                alt_ic_irq_enabled
 .text          0x0403573c       0xf8 ../tcpip_test_bsp/\libucosii_bsp.a(alt_iic_isr_register.o)
                0x0403573c                alt_iic_isr_register
 .text          0x04035834      0x13c ../tcpip_test_bsp/\libucosii_bsp.a(alt_io_redirect.o)
                0x040358f8                alt_io_redirect
 .text          0x04035970        0x0 ../tcpip_test_bsp/\libucosii_bsp.a(alt_irq_entry.o)
 .text          0x04035970        0x0 ../tcpip_test_bsp/\libucosii_bsp.a(alt_irq_handler.o)
 .text          0x04035970        0x0 ../tcpip_test_bsp/\libucosii_bsp.a(alt_irq_vars.o)
 .text          0x04035970      0x2c4 ../tcpip_test_bsp/\libucosii_bsp.a(alt_open.o)
                0x04035a4c                open
 .text          0x04035c34      0x180 ../tcpip_test_bsp/\libucosii_bsp.a(alt_read.o)
                0x04035c34                alt_read
 .text          0x04035db4       0x60 ../tcpip_test_bsp/\libucosii_bsp.a(alt_release_fd.o)
                0x04035db4                alt_release_fd
 .text          0x04035e14       0x38 ../tcpip_test_bsp/\libucosii_bsp.a(alt_remap_cached.o)
                0x04035e14                alt_remap_cached
 .text          0x04035e4c       0x40 ../tcpip_test_bsp/\libucosii_bsp.a(alt_remap_uncached.o)
                0x04035e4c                alt_remap_uncached
 .text          0x04035e8c      0x1a8 ../tcpip_test_bsp/\libucosii_bsp.a(alt_tick.o)
                0x04035e8c                alt_alarm_stop
                0x04035f24                alt_tick
 .text          0x04036034       0x64 ../tcpip_test_bsp/\libucosii_bsp.a(alt_uncached_malloc.o)
                0x04036034                alt_uncached_malloc
 .text          0x04036098      0x118 ../tcpip_test_bsp/\libucosii_bsp.a(alt_usleep.o)
                0x04036098                usleep
 .text          0x040361b0      0x180 ../tcpip_test_bsp/\libucosii_bsp.a(alt_write.o)
                0x040361b0                alt_write
 .text          0x04036330       0x20 ../tcpip_test_bsp/\libucosii_bsp.a(altera_nios2_irq.o)
                0x04036330                altera_nios2_irq_init
 .text          0x04036350       0xd0 ../tcpip_test_bsp/\libucosii_bsp.a(os_cpu_a.o)
                0x04036350                OSCtxSw
                0x04036350                OSIntCtxSw
                0x040363dc                OSStartHighRdy
                0x040363fc                OSStartTsk
 .text          0x04036420      0x424 ../tcpip_test_bsp/\libucosii_bsp.a(os_cpu_c.o)
                0x04036420                OSTaskStkInit
                0x04036730                OSTaskCreateHook
                0x04036750                OSTaskDelHook
                0x04036770                OSTaskSwHook
                0x0403678c                OSTaskStatHook
                0x040367a8                OSTimeTickHook
                0x040367d0                OSInitHookBegin
                0x040367ec                OSInitHookEnd
                0x04036808                OSTaskIdleHook
                0x04036824                OSTCBInitHook
 .text          0x04036844      0x3d0 ../tcpip_test_bsp/\libucosii_bsp.a(allports.o)
                0x04036844                netmain_init
                0x04036940                icmp_port_du
                0x040369c8                station_state
                0x04036b18                sysuptime
                0x04036b4c                packet_check
                0x04036b98                mcastlist
                0x04036bbc                prep_modules
 .text          0x04036c14      0x46c ../tcpip_test_bsp/\libucosii_bsp.a(timeouts.o)
                0x04036c14                inet_timer
                0x04036e70                in_timerset
                0x04036fd8                in_timerkill
 .text          0x04037080       0xa4 ../tcpip_test_bsp/\libucosii_bsp.a(tk_misc.o)
                0x04037080                create_apptasks
                0x040370a4                task_stats
 .text          0x04037124       0xb0 ../tcpip_test_bsp/\libucosii_bsp.a(alt_iniche_fcntl.o)
                0x04037124                fcntl
 .text          0x040371d4     0x14a0 ../tcpip_test_bsp/\libucosii_bsp.a(et_arp.o)
                0x040371d4                etainit
                0x04037228                et_send
                0x040373a4                arp_free_pending
                0x0403742c                arp_send_pending
                0x040374a0                send_arp
                0x04037938                find_oldest_arp
                0x04037ae0                make_arp_entry
                0x04037bf4                arpReply
                0x04037e88                arprcv
                0x040380e8                send_via_arp
                0x04038290                cb_arpent_tmo
                0x040383a8                grat_arp
 .text          0x04038674      0x298 ../tcpip_test_bsp/\libucosii_bsp.a(iface.o)
                0x04038674                if_getbynum
                0x040386f8                isbcast
                0x040387d8                reg_type
                0x04038874                if_killsocks
 .text          0x0403890c     0x22ac ../tcpip_test_bsp/\libucosii_bsp.a(ip.o)
                0x0403890c                ip_init
                0x04038a08                ip_bldhead
                0x04038bac                ip_write_internal
                0x0403932c                ip_write
                0x04039574                ip_write2
                0x04039924                ip_raw_write
                0x040399fc                ip_fragment_lc
                0x04039e84                ip_fragment
                0x0403a4b0                ip_mymach
                0x0403a55c                ip_dump
                0x0403a814                iproute
                0x0403aa80                ip_copypkt
 .text          0x0403abb8     0x1d90 ../tcpip_test_bsp/\libucosii_bsp.a(ip_reasm.o)
                0x0403abb8                ip_reasm_match_frag_with_ire
                0x0403ac88                ip_reasm_determine_type_of_frag
                0x0403ad74                ip_reasm_check_mem_useage
                0x0403ae0c                ip_reasm_incr_mem_useage
                0x0403aeb4                ip_reasm_decr_mem_useage
                0x0403af54                ip_reasm_process_first_fragment
                0x0403b234                ip_reassm
                0x0403b2d4                ip_reasm_compute_overlap
                0x0403b864                ip_reasm_process_subsequent_fragments
                0x0403bdf8                ip_reasm_find_ire
                0x0403be5c                ip_reasm_copy_queued_fragments_into_reassy_buffer
                0x0403c1b8                ip_reasm_process_timer_tick
                0x0403c29c                ip_reasm_delete_ire
                0x0403c464                ip_reasm_mark_compact_rfq
                0x0403c5ac                ipr_stats
                0x0403c8f4                ip_reasm_send_icmp_timex
 .text          0x0403c948      0xe3c ../tcpip_test_bsp/\libucosii_bsp.a(ipdemux.o)
                0x0403c948                ip_rcv
                0x0403cd48                ip_rcv_phase2
                0x0403d354                ip_demux
 .text          0x0403d784      0x2f0 ../tcpip_test_bsp/\libucosii_bsp.a(ipmc.o)
                0x0403d784                in_addmulti
                0x0403d8ec                in_delmulti
                0x0403da04                lookup_mcast
 .text          0x0403da74       0xe4 ../tcpip_test_bsp/\libucosii_bsp.a(ipport.o)
                0x0403da74                prep_ifaces
                0x0403db08                netexit
                0x0403db30                evtmap_setup
 .text          0x0403db58      0x550 ../tcpip_test_bsp/\libucosii_bsp.a(ipraw.o)
                0x0403db58                ip_raw_open
                0x0403dc48                ip_raw_close
                0x0403dd08                ip_raw_input
                0x0403df40                ip_raw_alloc
                0x0403e00c                ip_raw_free
                0x0403e04c                ip_raw_maxalloc
 .text          0x0403e0a8      0x6f0 ../tcpip_test_bsp/\libucosii_bsp.a(iproute.o)
                0x0403e0a8                rt_lookup
                0x0403e22c                add_route
                0x0403e654                del_route
 .text          0x0403e798      0xe3c ../tcpip_test_bsp/\libucosii_bsp.a(udp.o)
                0x0403e798                udpdemux
                0x0403eff0                udp_send
                0x0403f2a8                udpswap
                0x0403f3d8                udp_socket
                0x0403f4a8                udp_alloc
                0x0403f568                udp_maxalloc
                0x0403f594                udp_free
 .text          0x0403f5d4      0x2f0 ../tcpip_test_bsp/\libucosii_bsp.a(igmp.o)
                0x0403f5d4                igmpv1_input
 .text          0x0403f8c4      0x7c0 ../tcpip_test_bsp/\libucosii_bsp.a(igmp2.o)
                0x0403f8c4                igmpv2_input
                0x0403fa24                igmpv2_process_report
                0x0403fb70                igmpv2_process_query
                0x0403fdbc                igmpv2_chk_set_timer
                0x0403ff14                igmpv2_chk4_rtr_alert_opt
 .text          0x04040084      0x8fc ../tcpip_test_bsp/\libucosii_bsp.a(ipopt.o)
                0x04040084                IPADDR_TO_NETP
                0x040401cc                ip_setmoptions
                0x040407bc                ip_getmoptions
                0x040408fc                ip_freemoptions
 .text          0x04040980      0x6ac ../tcpip_test_bsp/\libucosii_bsp.a(u_mctest.o)
                0x04040980                u_mctest_init
                0x040409b0                u_mctest_run
 .text          0x0404102c      0x388 ../tcpip_test_bsp/\libucosii_bsp.a(dhcsetup.o)
                0x0404102c                dhc_setup
                0x040412b0                dhc_main_ipset
 .text          0x040413b4      0x40c ../tcpip_test_bsp/\libucosii_bsp.a(memdev.o)
                0x040413b4                init_memdev
                0x0404142c                md_fopen
                0x04041454                md_fclose
                0x04041474                md_fread
                0x040415f4                md_fwrite
                0x04041674                md_fseek
                0x040416a0                md_ftell
                0x040416c4                md_fgetc
                0x0404179c                md_unlink
 .text          0x040417c0      0x810 ../tcpip_test_bsp/\libucosii_bsp.a(parseip.o)
                0x040417c0                parse_ipad
                0x04041adc                inet_addr
                0x04041b44                hextoa
                0x04041bb4                inet_pton
                0x04041c60                inet_ntop
                0x04041cec                print46_addr
                0x04041d4c                inet46_addr
                0x04041e10                inet_setport
                0x04041e84                convert_ip
 .text          0x04041fd0      0x1cc ../tcpip_test_bsp/\libucosii_bsp.a(tcpcksum.o)
                0x04041fd0                tcp_cksum
 .text          0x0404219c      0x900 ../tcpip_test_bsp/\libucosii_bsp.a(in_pcb.o)
                0x0404219c                in_pcballoc
                0x04042230                in_pcbdetach
                0x04042284                in_pcbbind
                0x040424d8                in_pcbconnect
                0x040426e8                in_pcbdisconnect
                0x04042748                in_setsockaddr
                0x040427c4                in_setpeeraddr
                0x04042840                in_pcblookup
 .text          0x04042a9c     0x1a74 ../tcpip_test_bsp/\libucosii_bsp.a(vfsfiles.o)
                0x04042a9c                set_vfopen_error
                0x04042ac4                get_vfopen_error
                0x04042ae4                vf_alloc_and_link_vop
                0x04042b60                vf_alloc_buffer
                0x04042c38                vf_free_buffer
                0x04042c88                vfopen_locked
                0x04042ff0                vfopen
                0x04043040                vfclose_locked
                0x040431e8                vfclose
                0x04043228                vfflush
                0x04043270                vfgets
                0x04043354                vfeof
                0x040433ac                vunlink_flag_open_files
                0x04043408                vunlink
                0x04043628                vfread
                0x040437d4                vfwrite_locked
                0x04043bbc                vfwrite
                0x04043c1c                vfseek
                0x04043d98                vftell
                0x04043ecc                vgetc_locked
                0x04043fec                vgetc
                0x04044034                vfslookup_locked
                0x0404416c                vfslookup
                0x040441b4                strippath
                0x0404439c                isvfile_locked
                0x04044400                isvfile
                0x04044448                vferror
                0x040444b4                vclearerr
 .text          0x04044510       0x24 ../tcpip_test_bsp/\libucosii_bsp.a(vfsport.o)
                0x04044510                prep_vfs
 .text          0x04044534      0x12c ../tcpip_test_bsp/\libucosii_bsp.a(alt_busy_sleep.o)
                0x04044534                alt_busy_sleep
 .text          0x04044660       0x78 ../tcpip_test_bsp/\libucosii_bsp.a(alt_dcache_flush.o)
                0x04044660                alt_dcache_flush
 .text          0x040446d8        0x0 ../tcpip_test_bsp/\libucosii_bsp.a(alt_exception_entry.o)
 .text          0x040446d8      0x1b4 ../tcpip_test_bsp/\libucosii_bsp.a(alt_fcntl.o)
                0x040446d8                alt_fcntl
 .text          0x0404488c      0x120 ../tcpip_test_bsp/\libucosii_bsp.a(alt_find_file.o)
                0x0404488c                alt_find_file
 .text          0x040449ac       0xf4 ../tcpip_test_bsp/\libucosii_bsp.a(alt_get_fd.o)
                0x040449ac                alt_get_fd
 .text          0x04044aa0       0x90 ../tcpip_test_bsp/\libucosii_bsp.a(alt_icache_flush.o)
                0x04044aa0                alt_icache_flush
 .text          0x04044b30     0x130c ../tcpip_test_bsp/\libucosii_bsp.a(icmp.o)
                0x04044b30                icmprcv
                0x04045764                icmp_destun
                0x04045ab4                icmp_timex
                0x04045de8                icmp_du
 .text          0x04045e3c       0x14 c:/altera/11.0sp1/nios2eds/bin/gnu/h-i686-mingw32/bin/../lib/gcc/nios2-elf/4.1.2/../../../../nios2-elf/lib\libc.a(lib_a-atexit.o)
                0x04045e3c                atexit
 .text          0x04045e50       0x18 c:/altera/11.0sp1/nios2eds/bin/gnu/h-i686-mingw32/bin/../lib/gcc/nios2-elf/4.1.2/../../../../nios2-elf/lib\libc.a(lib_a-atoi.o)
                0x04045e50                _atoi_r
                0x04045e5c                atoi
 .text          0x04045e68       0x1c c:/altera/11.0sp1/nios2eds/bin/gnu/h-i686-mingw32/bin/../lib/gcc/nios2-elf/4.1.2/../../../../nios2-elf/lib\libc.a(lib_a-calloc.o)
                0x04045e68                calloc
 .text          0x04045e84       0x38 c:/altera/11.0sp1/nios2eds/bin/gnu/h-i686-mingw32/bin/../lib/gcc/nios2-elf/4.1.2/../../../../nios2-elf/lib\libc.a(lib_a-exit.o)
                0x04045e84                exit
 .text          0x04045ebc      0x128 c:/altera/11.0sp1/nios2eds/bin/gnu/h-i686-mingw32/bin/../lib/gcc/nios2-elf/4.1.2/../../../../nios2-elf/lib\libc.a(lib_a-getc.o)
                0x04045ebc                getc
                0x04045f54                _getc_r
 .text          0x04045fe4       0x28 c:/altera/11.0sp1/nios2eds/bin/gnu/h-i686-mingw32/bin/../lib/gcc/nios2-elf/4.1.2/../../../../nios2-elf/lib\libc.a(lib_a-malloc.o)
                0x04045fe4                free
                0x04045ff8                malloc
 .text          0x0404600c       0x74 c:/altera/11.0sp1/nios2eds/bin/gnu/h-i686-mingw32/bin/../lib/gcc/nios2-elf/4.1.2/../../../../nios2-elf/lib\libc.a(lib_a-memcmp.o)
                0x0404600c                memcmp
 .text          0x04046080       0x60 c:/altera/11.0sp1/nios2eds/bin/gnu/h-i686-mingw32/bin/../lib/gcc/nios2-elf/4.1.2/../../../../nios2-elf/lib\libc.a(lib_a-rget.o)
                0x04046080                __srget_r
                0x040460cc                __srget
 .text          0x040460e0       0x8c c:/altera/11.0sp1/nios2eds/bin/gnu/h-i686-mingw32/bin/../lib/gcc/nios2-elf/4.1.2/../../../../nios2-elf/lib\libc.a(lib_a-strcpy.o)
                0x040460e0                strcpy
 .text          0x0404616c       0xf0 c:/altera/11.0sp1/nios2eds/bin/gnu/h-i686-mingw32/bin/../lib/gcc/nios2-elf/4.1.2/../../../../nios2-elf/lib\libc.a(lib_a-strncmp.o)
                0x0404616c                strncmp
 .text          0x0404625c       0xbc c:/altera/11.0sp1/nios2eds/bin/gnu/h-i686-mingw32/bin/../lib/gcc/nios2-elf/4.1.2/../../../../nios2-elf/lib\libc.a(lib_a-strncpy.o)
                0x0404625c                strncpy
 .text          0x04046318      0x268 c:/altera/11.0sp1/nios2eds/bin/gnu/h-i686-mingw32/bin/../lib/gcc/nios2-elf/4.1.2/../../../../nios2-elf/lib\libc.a(lib_a-strtol.o)
                0x04046318                _strtol_r
                0x0404655c                strtol
 .text          0x04046580       0x34 c:/altera/11.0sp1/nios2eds/bin/gnu/h-i686-mingw32/bin/../lib/gcc/nios2-elf/4.1.2/../../../../nios2-elf/lib\libc.a(lib_a-vprintf.o)
                0x04046580                _vprintf_r
                0x04046594                vprintf
 .text          0x040465b4       0x74 c:/altera/11.0sp1/nios2eds/bin/gnu/h-i686-mingw32/bin/../lib/gcc/nios2-elf/4.1.2/../../../../nios2-elf/lib\libc.a(lib_a-vsprintf.o)
                0x040465b4                _vsprintf_r
                0x04046604                vsprintf
 .text          0x04046628      0x134 c:/altera/11.0sp1/nios2eds/bin/gnu/h-i686-mingw32/bin/../lib/gcc/nios2-elf/4.1.2/../../../../nios2-elf/lib\libc.a(lib_a-__atexit.o)
                0x04046628                __register_exitproc
 .text          0x0404675c      0x1b4 c:/altera/11.0sp1/nios2eds/bin/gnu/h-i686-mingw32/bin/../lib/gcc/nios2-elf/4.1.2/../../../../nios2-elf/lib\libc.a(lib_a-__call_atexit.o)
                0x04046760                __call_exitprocs
 .text          0x04046910      0x1e0 c:/altera/11.0sp1/nios2eds/bin/gnu/h-i686-mingw32/bin/../lib/gcc/nios2-elf/4.1.2/../../../../nios2-elf/lib\libc.a(lib_a-refill.o)
                0x04046910                __srefill_r
 .text          0x04046af0       0x6c ../tcpip_test_bsp/\libucosii_bsp.a(alt_exit.o)
                0x04046b30                _exit
 *(.gnu.warning.*)
 *(.fini)
                0x04046b5c                PROVIDE (__etext, ABSOLUTE (.))
                0x04046b5c                PROVIDE (_etext, ABSOLUTE (.))
                0x04046b5c                PROVIDE (etext, ABSOLUTE (.))
 *(.eh_frame_hdr)
                0x04046b5c                . = ALIGN (0x4)
                0x04046b5c                PROVIDE (__preinit_array_start, ABSOLUTE (.))
 *(.preinit_array)
                0x04046b5c                PROVIDE (__preinit_array_end, ABSOLUTE (.))
                0x04046b5c                PROVIDE (__init_array_start, ABSOLUTE (.))
 *(.init_array)
                0x04046b5c                PROVIDE (__init_array_end, ABSOLUTE (.))
                0x04046b5c                PROVIDE (__fini_array_start, ABSOLUTE (.))
 *(.fini_array)
                0x04046b5c                PROVIDE (__fini_array_end, ABSOLUTE (.))
 *(.eh_frame)
 .eh_frame      0x04046b5c       0x40 c:/altera/11.0sp1/nios2eds/bin/gnu/h-i686-mingw32/bin/../lib/gcc/nios2-elf/4.1.2\libgcc.a(_udivdi3.o)
 .eh_frame      0x04046b9c       0x2c c:/altera/11.0sp1/nios2eds/bin/gnu/h-i686-mingw32/bin/../lib/gcc/nios2-elf/4.1.2\libgcc.a(_umoddi3.o)
                                 0x40 (size before relaxing)
 *(.gcc_except_table)
 *(.dynamic)
                0x04046bc8                PROVIDE (__CTOR_LIST__, ABSOLUTE (.))
 *(.ctors)
 *(SORT(.ctors.*))
 .ctors.65535   0x04046bc8        0x4 c:/altera/11.0sp1/nios2eds/bin/gnu/h-i686-mingw32/bin/../lib/gcc/nios2-elf/4.1.2/../../../../nios2-elf/lib\libc.a(lib_a-__call_atexit.o)
                0x04046bcc                PROVIDE (__CTOR_END__, ABSOLUTE (.))
                0x04046bcc                PROVIDE (__DTOR_LIST__, ABSOLUTE (.))
 *(.dtors)
 *(SORT(.dtors.*))
                0x04046bcc                PROVIDE (__DTOR_END__, ABSOLUTE (.))
 *(.jcr)
                0x04046bcc                . = ALIGN (0x4)

.rodata         0x04046bcc     0x5e6c
                0x04046bcc                PROVIDE (__ram_rodata_start, ABSOLUTE (.))
                0x04046bcc                . = ALIGN (0x4)
 *(.rodata .rodata.* .gnu.linkonce.r.*)
 .rodata        0x04046bcc      0xba4 obj/alt_error_handler.o
 .rodata        0x04047770       0x3c obj/iniche_init.o
 .rodata        0x040477ac       0x24 obj/led.o
 .rodata        0x040477d0       0x3c obj/network_utilities.o
 .rodata        0x0404780c      0x2b4 obj/simple_socket_server.o
 .rodata        0x04047ac0       0x70 obj/tse_my_system.o
 .rodata        0x04047b30      0x281 c:/altera/11.0sp1/nios2eds/bin/gnu/h-i686-mingw32/bin/../lib/gcc/nios2-elf/4.1.2/../../../../nios2-elf/lib\libc.a(lib_a-ctype_.o)
                0x04047b30                _ctype_
 *fill*         0x04047db1        0x3 00
 .rodata.str1.4
                0x04047db4        0x2 c:/altera/11.0sp1/nios2eds/bin/gnu/h-i686-mingw32/bin/../lib/gcc/nios2-elf/4.1.2/../../../../nios2-elf/lib\libc.a(lib_a-impure.o)
                                  0x4 (size before relaxing)
 *fill*         0x04047db6        0x2 00
 .rodata.str1.4
                0x04047db8        0x3 c:/altera/11.0sp1/nios2eds/bin/gnu/h-i686-mingw32/bin/../lib/gcc/nios2-elf/4.1.2/../../../../nios2-elf/lib\libc.a(lib_a-perror.o)
                                  0x4 (size before relaxing)
 *fill*         0x04047dbb        0x1 00
 .rodata.str1.4
                0x04047dbc        0x2 c:/altera/11.0sp1/nios2eds/bin/gnu/h-i686-mingw32/bin/../lib/gcc/nios2-elf/4.1.2/../../../../nios2-elf/lib\libc.a(lib_a-puts.o)
                                  0x4 (size before relaxing)
 *fill*         0x04047dbe        0x2 00
 .rodata.str1.4
                0x04047dc0      0x7a2 c:/altera/11.0sp1/nios2eds/bin/gnu/h-i686-mingw32/bin/../lib/gcc/nios2-elf/4.1.2/../../../../nios2-elf/lib\libc.a(lib_a-strerror.o)
                                0x7a8 (size before relaxing)
 *fill*         0x04048562        0x2 00
 .rodata.str1.4
                0x04048564       0x5e c:/altera/11.0sp1/nios2eds/bin/gnu/h-i686-mingw32/bin/../lib/gcc/nios2-elf/4.1.2/../../../../nios2-elf/lib\libc.a(lib_a-vfprintf.o)
                                 0x60 (size before relaxing)
 .rodata        0x040485c2       0x20 c:/altera/11.0sp1/nios2eds/bin/gnu/h-i686-mingw32/bin/../lib/gcc/nios2-elf/4.1.2/../../../../nios2-elf/lib\libc.a(lib_a-vfprintf.o)
 *fill*         0x040485e2        0x2 00
 .rodata.str1.4
                0x040485e4       0x10 c:/altera/11.0sp1/nios2eds/bin/gnu/h-i686-mingw32/bin/../lib/gcc/nios2-elf/4.1.2/../../../../nios2-elf/lib\libc.a(lib_a-dtoa.o)
                                 0x14 (size before relaxing)
 .rodata.str1.4
                0x040485f4       0x10 c:/altera/11.0sp1/nios2eds/bin/gnu/h-i686-mingw32/bin/../lib/gcc/nios2-elf/4.1.2/../../../../nios2-elf/lib\libc.a(lib_a-locale.o)
                                 0x18 (size before relaxing)
 .rodata        0x04048604       0x30 c:/altera/11.0sp1/nios2eds/bin/gnu/h-i686-mingw32/bin/../lib/gcc/nios2-elf/4.1.2/../../../../nios2-elf/lib\libc.a(lib_a-locale.o)
 .rodata        0x04048634      0x124 c:/altera/11.0sp1/nios2eds/bin/gnu/h-i686-mingw32/bin/../lib/gcc/nios2-elf/4.1.2/../../../../nios2-elf/lib\libc.a(lib_a-mprec.o)
                0x04048634                __mprec_tens
                0x040486fc                __mprec_bigtens
                0x04048724                __mprec_tinytens
 .rodata        0x04048758       0x14 c:/altera/11.0sp1/nios2eds/bin/gnu/h-i686-mingw32/bin/../lib/gcc/nios2-elf/4.1.2\libgcc.a(_thenan_df.o)
                0x04048758                __thenan_df
 .rodata        0x0404876c      0x100 c:/altera/11.0sp1/nios2eds/bin/gnu/h-i686-mingw32/bin/../lib/gcc/nios2-elf/4.1.2\libgcc.a(_clz.o)
                0x0404876c                __clz_tab
 .rodata        0x0404886c       0x10 ../tcpip_test_bsp/\libucosii_bsp.a(alt_main.o)
 .rodata        0x0404887c      0x120 ../tcpip_test_bsp/\libucosii_bsp.a(os_core.o)
                0x0404887c                OSUnMapTbl
 .rodata        0x0404899c       0x40 ../tcpip_test_bsp/\libucosii_bsp.a(alt_sys_init.o)
 .rodata        0x040489dc     0x1cc0 ../tcpip_test_bsp/\libucosii_bsp.a(altera_avalon_tse.o)
 .rodata        0x0404a69c      0x374 ../tcpip_test_bsp/\libucosii_bsp.a(ins_tse_mac.o)
 .rodata        0x0404aa10       0xd8 ../tcpip_test_bsp/\libucosii_bsp.a(ipnet.o)
 .rodata        0x0404aae8       0xec ../tcpip_test_bsp/\libucosii_bsp.a(ipstart.o)
 .rodata        0x0404abd4      0x54c ../tcpip_test_bsp/\libucosii_bsp.a(igmp_cmn.o)
 .rodata        0x0404b120       0xb8 ../tcpip_test_bsp/\libucosii_bsp.a(in_utils.o)
 .rodata        0x0404b1d8       0x34 ../tcpip_test_bsp/\libucosii_bsp.a(netmain.o)
 .rodata        0x0404b20c      0x1a8 ../tcpip_test_bsp/\libucosii_bsp.a(tk_crnos.o)
 .rodata        0x0404b3b4        0x8 ../tcpip_test_bsp/\libucosii_bsp.a(dhcpclnt.o)
 .rodata        0x0404b3bc      0x118 ../tcpip_test_bsp/\libucosii_bsp.a(pktalloc.o)
 .rodata        0x0404b4d4       0x84 ../tcpip_test_bsp/\libucosii_bsp.a(udp_open.o)
 .rodata        0x0404b558       0x2c ../tcpip_test_bsp/\libucosii_bsp.a(brdutils.o)
 .rodata        0x0404b584      0x26c ../tcpip_test_bsp/\libucosii_bsp.a(osportco.o)
 .rodata        0x0404b7f0       0xa0 ../tcpip_test_bsp/\libucosii_bsp.a(targnios.o)
 .rodata        0x0404b890       0x90 ../tcpip_test_bsp/\libucosii_bsp.a(nptcp.o)
 .rodata        0x0404b920        0x8 ../tcpip_test_bsp/\libucosii_bsp.a(sockcall.o)
 .rodata        0x0404b928       0x50 ../tcpip_test_bsp/\libucosii_bsp.a(socket.o)
 .rodata        0x0404b978       0x40 ../tcpip_test_bsp/\libucosii_bsp.a(socket2.o)
 .rodata        0x0404b9b8       0x20 ../tcpip_test_bsp/\libucosii_bsp.a(tcp_in.o)
 .rodata        0x0404b9d8       0x40 ../tcpip_test_bsp/\libucosii_bsp.a(tcp_out.o)
 .rodata        0x0404ba18       0x24 ../tcpip_test_bsp/\libucosii_bsp.a(tcp_subr.o)
 .rodata        0x0404ba3c       0x2c ../tcpip_test_bsp/\libucosii_bsp.a(tcp_usr.o)
 .rodata        0x0404ba68        0xc ../tcpip_test_bsp/\libucosii_bsp.a(alt_dev.o)
 .rodata        0x0404ba74        0x4 ../tcpip_test_bsp/\libucosii_bsp.a(os_cpu_c.o)
 .rodata        0x0404ba78      0x1d4 ../tcpip_test_bsp/\libucosii_bsp.a(allports.o)
 .rodata        0x0404bc4c       0x34 ../tcpip_test_bsp/\libucosii_bsp.a(tk_misc.o)
 .rodata        0x0404bc80       0x44 ../tcpip_test_bsp/\libucosii_bsp.a(et_arp.o)
 .rodata        0x0404bcc4      0x1dc ../tcpip_test_bsp/\libucosii_bsp.a(ip.o)
 .rodata        0x0404bea0      0x158 ../tcpip_test_bsp/\libucosii_bsp.a(ip_reasm.o)
 .rodata        0x0404bff8      0x120 ../tcpip_test_bsp/\libucosii_bsp.a(ipdemux.o)
 .rodata        0x0404c118       0x34 ../tcpip_test_bsp/\libucosii_bsp.a(ipport.o)
 .rodata        0x0404c14c       0x24 ../tcpip_test_bsp/\libucosii_bsp.a(ipraw.o)
 .rodata        0x0404c170       0x38 ../tcpip_test_bsp/\libucosii_bsp.a(iproute.o)
 .rodata        0x0404c1a8       0xe8 ../tcpip_test_bsp/\libucosii_bsp.a(udp.o)
 .rodata        0x0404c290      0x2d0 ../tcpip_test_bsp/\libucosii_bsp.a(u_mctest.o)
 .rodata        0x0404c560       0xf8 ../tcpip_test_bsp/\libucosii_bsp.a(dhcsetup.o)
 .rodata        0x0404c658       0x94 ../tcpip_test_bsp/\libucosii_bsp.a(parseip.o)
 .rodata        0x0404c6ec       0x34 ../tcpip_test_bsp/\libucosii_bsp.a(vfsfiles.o)
 .rodata        0x0404c720      0x318 ../tcpip_test_bsp/\libucosii_bsp.a(icmp.o)
 *(.rodata1)
                0x0404ca38                . = ALIGN (0x4)
                0x0404ca38                PROVIDE (__ram_rodata_end, ABSOLUTE (.))
                0x04046bcc                PROVIDE (__flash_rodata_start, LOADADDR (.rodata))

.rwdata         0x0404ca38     0x1e0c load address 0x0404e844
                0x0404ca38                PROVIDE (__ram_rwdata_start, ABSOLUTE (.))
                0x0404ca38                . = ALIGN (0x4)
 *(.got.plt)
 *(.got)
 *(.data1)
 *(.data .data.* .gnu.linkonce.d.*)
 .data          0x0404ca38        0x0 ../tcpip_test_bsp//obj/HAL/src/crt0.o
 .data          0x0404ca38        0x0 obj/alt_error_handler.o
 .data          0x0404ca38       0x18 obj/iniche_init.o
                0x0404ca38                ssstask
 .data          0x0404ca50        0x0 obj/led.o
 .data          0x0404ca50        0x0 obj/network_utilities.o
 .data          0x0404ca50        0x0 obj/simple_socket_server.o
 .data          0x0404ca50        0x0 obj/tse_my_system.o
 .data          0x0404ca50        0x0 c:/altera/11.0sp1/nios2eds/bin/gnu/h-i686-mingw32/bin/../lib/gcc/nios2-elf/4.1.2/../../../../nios2-elf/lib\libc.a(lib_a-ctype_.o)
 .data          0x0404ca50        0x0 c:/altera/11.0sp1/nios2eds/bin/gnu/h-i686-mingw32/bin/../lib/gcc/nios2-elf/4.1.2/../../../../nios2-elf/lib\libc.a(lib_a-fprintf.o)
 .data          0x0404ca50        0x0 c:/altera/11.0sp1/nios2eds/bin/gnu/h-i686-mingw32/bin/../lib/gcc/nios2-elf/4.1.2/../../../../nios2-elf/lib\libc.a(lib_a-fwrite.o)
 .data          0x0404ca50      0x400 c:/altera/11.0sp1/nios2eds/bin/gnu/h-i686-mingw32/bin/../lib/gcc/nios2-elf/4.1.2/../../../../nios2-elf/lib\libc.a(lib_a-impure.o)
 .data          0x0404ce50        0x0 c:/altera/11.0sp1/nios2eds/bin/gnu/h-i686-mingw32/bin/../lib/gcc/nios2-elf/4.1.2/../../../../nios2-elf/lib\libc.a(lib_a-memcpy.o)
 .data          0x0404ce50        0x0 c:/altera/11.0sp1/nios2eds/bin/gnu/h-i686-mingw32/bin/../lib/gcc/nios2-elf/4.1.2/../../../../nios2-elf/lib\libc.a(lib_a-memmove.o)
 .data          0x0404ce50        0x0 c:/altera/11.0sp1/nios2eds/bin/gnu/h-i686-mingw32/bin/../lib/gcc/nios2-elf/4.1.2/../../../../nios2-elf/lib\libc.a(lib_a-memset.o)
 .data          0x0404ce50        0x0 c:/altera/11.0sp1/nios2eds/bin/gnu/h-i686-mingw32/bin/../lib/gcc/nios2-elf/4.1.2/../../../../nios2-elf/lib\libc.a(lib_a-perror.o)
 .data          0x0404ce50        0x0 c:/altera/11.0sp1/nios2eds/bin/gnu/h-i686-mingw32/bin/../lib/gcc/nios2-elf/4.1.2/../../../../nios2-elf/lib\libc.a(lib_a-printf.o)
 .data          0x0404ce50        0x0 c:/altera/11.0sp1/nios2eds/bin/gnu/h-i686-mingw32/bin/../lib/gcc/nios2-elf/4.1.2/../../../../nios2-elf/lib\libc.a(lib_a-puts.o)
 .data          0x0404ce50        0x0 c:/altera/11.0sp1/nios2eds/bin/gnu/h-i686-mingw32/bin/../lib/gcc/nios2-elf/4.1.2/../../../../nios2-elf/lib\libc.a(lib_a-sprintf.o)
 .data          0x0404ce50        0x0 c:/altera/11.0sp1/nios2eds/bin/gnu/h-i686-mingw32/bin/../lib/gcc/nios2-elf/4.1.2/../../../../nios2-elf/lib\libc.a(lib_a-strchr.o)
 .data          0x0404ce50        0x0 c:/altera/11.0sp1/nios2eds/bin/gnu/h-i686-mingw32/bin/../lib/gcc/nios2-elf/4.1.2/../../../../nios2-elf/lib\libc.a(lib_a-strerror.o)
 .data          0x0404ce50        0x0 c:/altera/11.0sp1/nios2eds/bin/gnu/h-i686-mingw32/bin/../lib/gcc/nios2-elf/4.1.2/../../../../nios2-elf/lib\libc.a(lib_a-strlen.o)
 .data          0x0404ce50        0x0 c:/altera/11.0sp1/nios2eds/bin/gnu/h-i686-mingw32/bin/../lib/gcc/nios2-elf/4.1.2/../../../../nios2-elf/lib\libc.a(lib_a-u_strerr.o)
 .data          0x0404ce50        0x0 c:/altera/11.0sp1/nios2eds/bin/gnu/h-i686-mingw32/bin/../lib/gcc/nios2-elf/4.1.2/../../../../nios2-elf/lib\libc.a(lib_a-vfprintf.o)
 .data          0x0404ce50        0x0 c:/altera/11.0sp1/nios2eds/bin/gnu/h-i686-mingw32/bin/../lib/gcc/nios2-elf/4.1.2/../../../../nios2-elf/lib\libc.a(lib_a-wsetup.o)
 .data          0x0404ce50        0x0 c:/altera/11.0sp1/nios2eds/bin/gnu/h-i686-mingw32/bin/../lib/gcc/nios2-elf/4.1.2/../../../../nios2-elf/lib\libc.a(lib_a-dtoa.o)
 .data          0x0404ce50        0x0 c:/altera/11.0sp1/nios2eds/bin/gnu/h-i686-mingw32/bin/../lib/gcc/nios2-elf/4.1.2/../../../../nios2-elf/lib\libc.a(lib_a-fflush.o)
 .data          0x0404ce50        0x0 c:/altera/11.0sp1/nios2eds/bin/gnu/h-i686-mingw32/bin/../lib/gcc/nios2-elf/4.1.2/../../../../nios2-elf/lib\libc.a(lib_a-findfp.o)
 .data          0x0404ce50        0x0 c:/altera/11.0sp1/nios2eds/bin/gnu/h-i686-mingw32/bin/../lib/gcc/nios2-elf/4.1.2/../../../../nios2-elf/lib\libc.a(lib_a-fputc.o)
 .data          0x0404ce50        0x0 c:/altera/11.0sp1/nios2eds/bin/gnu/h-i686-mingw32/bin/../lib/gcc/nios2-elf/4.1.2/../../../../nios2-elf/lib\libc.a(lib_a-fputs.o)
 .data          0x0404ce50        0x0 c:/altera/11.0sp1/nios2eds/bin/gnu/h-i686-mingw32/bin/../lib/gcc/nios2-elf/4.1.2/../../../../nios2-elf/lib\libc.a(lib_a-freer.o)
 .data          0x0404ce50        0x0 c:/altera/11.0sp1/nios2eds/bin/gnu/h-i686-mingw32/bin/../lib/gcc/nios2-elf/4.1.2/../../../../nios2-elf/lib\libc.a(lib_a-fvwrite.o)
 .data          0x0404ce50        0x0 c:/altera/11.0sp1/nios2eds/bin/gnu/h-i686-mingw32/bin/../lib/gcc/nios2-elf/4.1.2/../../../../nios2-elf/lib\libc.a(lib_a-fwalk.o)
 .data          0x0404ce50        0xc c:/altera/11.0sp1/nios2eds/bin/gnu/h-i686-mingw32/bin/../lib/gcc/nios2-elf/4.1.2/../../../../nios2-elf/lib\libc.a(lib_a-locale.o)
                0x0404ce50                __lc_ctype
 .data          0x0404ce5c        0x0 c:/altera/11.0sp1/nios2eds/bin/gnu/h-i686-mingw32/bin/../lib/gcc/nios2-elf/4.1.2/../../../../nios2-elf/lib\libc.a(lib_a-makebuf.o)
 .data          0x0404ce5c      0x408 c:/altera/11.0sp1/nios2eds/bin/gnu/h-i686-mingw32/bin/../lib/gcc/nios2-elf/4.1.2/../../../../nios2-elf/lib\libc.a(lib_a-mallocr.o)
                0x0404ce5c                __malloc_av_
 .data          0x0404d264        0x0 c:/altera/11.0sp1/nios2eds/bin/gnu/h-i686-mingw32/bin/../lib/gcc/nios2-elf/4.1.2/../../../../nios2-elf/lib\libc.a(lib_a-memchr.o)
 .data          0x0404d264        0x0 c:/altera/11.0sp1/nios2eds/bin/gnu/h-i686-mingw32/bin/../lib/gcc/nios2-elf/4.1.2/../../../../nios2-elf/lib\libc.a(lib_a-mprec.o)
 .data          0x0404d264        0x0 c:/altera/11.0sp1/nios2eds/bin/gnu/h-i686-mingw32/bin/../lib/gcc/nios2-elf/4.1.2/../../../../nios2-elf/lib\libc.a(lib_a-putc.o)
 .data          0x0404d264        0x0 c:/altera/11.0sp1/nios2eds/bin/gnu/h-i686-mingw32/bin/../lib/gcc/nios2-elf/4.1.2/../../../../nios2-elf/lib\libc.a(lib_a-reallocr.o)
 .data          0x0404d264        0x0 c:/altera/11.0sp1/nios2eds/bin/gnu/h-i686-mingw32/bin/../lib/gcc/nios2-elf/4.1.2/../../../../nios2-elf/lib\libc.a(lib_a-s_isinfd.o)
 .data          0x0404d264        0x0 c:/altera/11.0sp1/nios2eds/bin/gnu/h-i686-mingw32/bin/../lib/gcc/nios2-elf/4.1.2/../../../../nios2-elf/lib\libc.a(lib_a-s_isnand.o)
 .data          0x0404d264        0x0 c:/altera/11.0sp1/nios2eds/bin/gnu/h-i686-mingw32/bin/../lib/gcc/nios2-elf/4.1.2/../../../../nios2-elf/lib\libc.a(lib_a-sbrkr.o)
 .data          0x0404d264        0x0 c:/altera/11.0sp1/nios2eds/bin/gnu/h-i686-mingw32/bin/../lib/gcc/nios2-elf/4.1.2/../../../../nios2-elf/lib\libc.a(lib_a-stdio.o)
 .data          0x0404d264        0x0 c:/altera/11.0sp1/nios2eds/bin/gnu/h-i686-mingw32/bin/../lib/gcc/nios2-elf/4.1.2/../../../../nios2-elf/lib\libc.a(lib_a-strcmp.o)
 .data          0x0404d264        0x0 c:/altera/11.0sp1/nios2eds/bin/gnu/h-i686-mingw32/bin/../lib/gcc/nios2-elf/4.1.2/../../../../nios2-elf/lib\libc.a(lib_a-wbuf.o)
 .data          0x0404d264        0x0 c:/altera/11.0sp1/nios2eds/bin/gnu/h-i686-mingw32/bin/../lib/gcc/nios2-elf/4.1.2/../../../../nios2-elf/lib\libc.a(lib_a-writer.o)
 .data          0x0404d264        0x0 c:/altera/11.0sp1/nios2eds/bin/gnu/h-i686-mingw32/bin/../lib/gcc/nios2-elf/4.1.2/../../../../nios2-elf/lib\libc.a(lib_a-callocr.o)
 .data          0x0404d264        0x0 c:/altera/11.0sp1/nios2eds/bin/gnu/h-i686-mingw32/bin/../lib/gcc/nios2-elf/4.1.2/../../../../nios2-elf/lib\libc.a(lib_a-closer.o)
 .data          0x0404d264        0x0 c:/altera/11.0sp1/nios2eds/bin/gnu/h-i686-mingw32/bin/../lib/gcc/nios2-elf/4.1.2/../../../../nios2-elf/lib\libc.a(lib_a-fclose.o)
 .data          0x0404d264        0x0 c:/altera/11.0sp1/nios2eds/bin/gnu/h-i686-mingw32/bin/../lib/gcc/nios2-elf/4.1.2/../../../../nios2-elf/lib\libc.a(lib_a-fstatr.o)
 .data          0x0404d264        0x0 c:/altera/11.0sp1/nios2eds/bin/gnu/h-i686-mingw32/bin/../lib/gcc/nios2-elf/4.1.2/../../../../nios2-elf/lib\libc.a(lib_a-int_errno.o)
 .data          0x0404d264        0x0 c:/altera/11.0sp1/nios2eds/bin/gnu/h-i686-mingw32/bin/../lib/gcc/nios2-elf/4.1.2/../../../../nios2-elf/lib\libc.a(lib_a-isattyr.o)
 .data          0x0404d264        0x0 c:/altera/11.0sp1/nios2eds/bin/gnu/h-i686-mingw32/bin/../lib/gcc/nios2-elf/4.1.2/../../../../nios2-elf/lib\libc.a(lib_a-lseekr.o)
 .data          0x0404d264        0x0 c:/altera/11.0sp1/nios2eds/bin/gnu/h-i686-mingw32/bin/../lib/gcc/nios2-elf/4.1.2/../../../../nios2-elf/lib\libc.a(lib_a-readr.o)
 .data          0x0404d264        0x0 c:/altera/11.0sp1/nios2eds/bin/gnu/h-i686-mingw32/bin/../lib/gcc/nios2-elf/4.1.2\libgcc.a(_udivdi3.o)
 .data          0x0404d264        0x0 c:/altera/11.0sp1/nios2eds/bin/gnu/h-i686-mingw32/bin/../lib/gcc/nios2-elf/4.1.2\libgcc.a(_umoddi3.o)
 .data          0x0404d264        0x0 c:/altera/11.0sp1/nios2eds/bin/gnu/h-i686-mingw32/bin/../lib/gcc/nios2-elf/4.1.2\libgcc.a(_addsub_df.o)
 .data          0x0404d264        0x0 c:/altera/11.0sp1/nios2eds/bin/gnu/h-i686-mingw32/bin/../lib/gcc/nios2-elf/4.1.2\libgcc.a(_mul_df.o)
 .data          0x0404d264        0x0 c:/altera/11.0sp1/nios2eds/bin/gnu/h-i686-mingw32/bin/../lib/gcc/nios2-elf/4.1.2\libgcc.a(_div_df.o)
 .data          0x0404d264        0x0 c:/altera/11.0sp1/nios2eds/bin/gnu/h-i686-mingw32/bin/../lib/gcc/nios2-elf/4.1.2\libgcc.a(_eq_df.o)
 .data          0x0404d264        0x0 c:/altera/11.0sp1/nios2eds/bin/gnu/h-i686-mingw32/bin/../lib/gcc/nios2-elf/4.1.2\libgcc.a(_ne_df.o)
 .data          0x0404d264        0x0 c:/altera/11.0sp1/nios2eds/bin/gnu/h-i686-mingw32/bin/../lib/gcc/nios2-elf/4.1.2\libgcc.a(_gt_df.o)
 .data          0x0404d264        0x0 c:/altera/11.0sp1/nios2eds/bin/gnu/h-i686-mingw32/bin/../lib/gcc/nios2-elf/4.1.2\libgcc.a(_ge_df.o)
 .data          0x0404d264        0x0 c:/altera/11.0sp1/nios2eds/bin/gnu/h-i686-mingw32/bin/../lib/gcc/nios2-elf/4.1.2\libgcc.a(_lt_df.o)
 .data          0x0404d264        0x0 c:/altera/11.0sp1/nios2eds/bin/gnu/h-i686-mingw32/bin/../lib/gcc/nios2-elf/4.1.2\libgcc.a(_si_to_df.o)
 .data          0x0404d264        0x0 c:/altera/11.0sp1/nios2eds/bin/gnu/h-i686-mingw32/bin/../lib/gcc/nios2-elf/4.1.2\libgcc.a(_df_to_si.o)
 .data          0x0404d264        0x0 c:/altera/11.0sp1/nios2eds/bin/gnu/h-i686-mingw32/bin/../lib/gcc/nios2-elf/4.1.2\libgcc.a(_thenan_df.o)
 .data          0x0404d264        0x0 c:/altera/11.0sp1/nios2eds/bin/gnu/h-i686-mingw32/bin/../lib/gcc/nios2-elf/4.1.2\libgcc.a(_usi_to_df.o)
 .data          0x0404d264        0x0 c:/altera/11.0sp1/nios2eds/bin/gnu/h-i686-mingw32/bin/../lib/gcc/nios2-elf/4.1.2\libgcc.a(lib2-divmod.o)
 .data          0x0404d264        0x0 c:/altera/11.0sp1/nios2eds/bin/gnu/h-i686-mingw32/bin/../lib/gcc/nios2-elf/4.1.2\libgcc.a(_muldi3.o)
 .data          0x0404d264        0x0 c:/altera/11.0sp1/nios2eds/bin/gnu/h-i686-mingw32/bin/../lib/gcc/nios2-elf/4.1.2\libgcc.a(_clz.o)
 .data          0x0404d264        0x0 c:/altera/11.0sp1/nios2eds/bin/gnu/h-i686-mingw32/bin/../lib/gcc/nios2-elf/4.1.2\libgcc.a(_clzsi2.o)
 .data          0x0404d264        0x0 c:/altera/11.0sp1/nios2eds/bin/gnu/h-i686-mingw32/bin/../lib/gcc/nios2-elf/4.1.2\libgcc.a(_pack_df.o)
 .data          0x0404d264        0x0 c:/altera/11.0sp1/nios2eds/bin/gnu/h-i686-mingw32/bin/../lib/gcc/nios2-elf/4.1.2\libgcc.a(_unpack_df.o)
 .data          0x0404d264        0x0 c:/altera/11.0sp1/nios2eds/bin/gnu/h-i686-mingw32/bin/../lib/gcc/nios2-elf/4.1.2\libgcc.a(_fpcmp_parts_df.o)
 .data          0x0404d264        0x0 ../tcpip_test_bsp/\libucosii_bsp.a(alt_fstat.o)
 .data          0x0404d264        0x0 ../tcpip_test_bsp/\libucosii_bsp.a(alt_isatty.o)
 .data          0x0404d264        0x0 ../tcpip_test_bsp/\libucosii_bsp.a(alt_load.o)
 .data          0x0404d264        0x0 ../tcpip_test_bsp/\libucosii_bsp.a(alt_lseek.o)
 .data          0x0404d264        0x0 ../tcpip_test_bsp/\libucosii_bsp.a(alt_main.o)
 .data          0x0404d264        0x0 ../tcpip_test_bsp/\libucosii_bsp.a(alt_sbrk.o)
 .data          0x0404d264        0x0 ../tcpip_test_bsp/\libucosii_bsp.a(alt_env_lock.o)
 .data          0x0404d264        0x0 ../tcpip_test_bsp/\libucosii_bsp.a(alt_malloc_lock.o)
 .data          0x0404d264        0x0 ../tcpip_test_bsp/\libucosii_bsp.a(os_core.o)
 .data          0x0404d264        0x0 ../tcpip_test_bsp/\libucosii_bsp.a(os_dbg.o)
 .data          0x0404d264        0x0 ../tcpip_test_bsp/\libucosii_bsp.a(os_flag.o)
 .data          0x0404d264        0x0 ../tcpip_test_bsp/\libucosii_bsp.a(os_mem.o)
 .data          0x0404d264        0x0 ../tcpip_test_bsp/\libucosii_bsp.a(os_q.o)
 .data          0x0404d264        0x0 ../tcpip_test_bsp/\libucosii_bsp.a(os_sem.o)
 .data          0x0404d264        0x0 ../tcpip_test_bsp/\libucosii_bsp.a(os_task.o)
 .data          0x0404d264        0x0 ../tcpip_test_bsp/\libucosii_bsp.a(os_time.o)
 .data          0x0404d264     0x10cc ../tcpip_test_bsp/\libucosii_bsp.a(alt_sys_init.o)
 .data          0x0404e330        0x0 ../tcpip_test_bsp/\libucosii_bsp.a(altera_avalon_jtag_uart_fd.o)
 .data          0x0404e330        0x0 ../tcpip_test_bsp/\libucosii_bsp.a(altera_avalon_jtag_uart_init.o)
 .data          0x0404e330        0x0 ../tcpip_test_bsp/\libucosii_bsp.a(altera_avalon_jtag_uart_ioctl.o)
 .data          0x0404e330        0x0 ../tcpip_test_bsp/\libucosii_bsp.a(altera_avalon_jtag_uart_read.o)
 .data          0x0404e330        0x0 ../tcpip_test_bsp/\libucosii_bsp.a(altera_avalon_jtag_uart_write.o)
 .data          0x0404e330        0x0 ../tcpip_test_bsp/\libucosii_bsp.a(altera_avalon_sgdma.o)
 .data          0x0404e330        0x0 ../tcpip_test_bsp/\libucosii_bsp.a(altera_avalon_timer_sc.o)
 .data          0x0404e330        0x0 ../tcpip_test_bsp/\libucosii_bsp.a(altera_avalon_tse.o)
 .data          0x0404e330        0x0 ../tcpip_test_bsp/\libucosii_bsp.a(altera_avalon_tse_system_info.o)
 .data          0x0404e330        0x0 ../tcpip_test_bsp/\libucosii_bsp.a(ins_tse_mac.o)
 .data          0x0404e330        0x0 ../tcpip_test_bsp/\libucosii_bsp.a(alt_iniche_close.o)
 .data          0x0404e330        0x0 ../tcpip_test_bsp/\libucosii_bsp.a(alt_iniche_dev.o)
 .data          0x0404e330        0x0 ../tcpip_test_bsp/\libucosii_bsp.a(alt_iniche_read.o)
 .data          0x0404e330        0x0 ../tcpip_test_bsp/\libucosii_bsp.a(alt_iniche_write.o)
 .data          0x0404e330        0x0 ../tcpip_test_bsp/\libucosii_bsp.a(ipnet.o)
 .data          0x0404e330        0x0 ../tcpip_test_bsp/\libucosii_bsp.a(ipstart.o)
 .data          0x0404e330        0x0 ../tcpip_test_bsp/\libucosii_bsp.a(igmp_cmn.o)
 .data          0x0404e330        0x0 ../tcpip_test_bsp/\libucosii_bsp.a(bsdsock.o)
 .data          0x0404e330        0x0 ../tcpip_test_bsp/\libucosii_bsp.a(cksum.o)
 .data          0x0404e330        0x0 ../tcpip_test_bsp/\libucosii_bsp.a(in_utils.o)
 .data          0x0404e330       0x30 ../tcpip_test_bsp/\libucosii_bsp.a(netmain.o)
                0x0404e330                nettasks
 .data          0x0404e360        0x0 ../tcpip_test_bsp/\libucosii_bsp.a(tk_crnos.o)
 .data          0x0404e360        0x0 ../tcpip_test_bsp/\libucosii_bsp.a(dhcpclnt.o)
 .data          0x0404e360        0x0 ../tcpip_test_bsp/\libucosii_bsp.a(dhcputil.o)
 .data          0x0404e360        0x0 ../tcpip_test_bsp/\libucosii_bsp.a(pktalloc.o)
 .data          0x0404e360        0x0 ../tcpip_test_bsp/\libucosii_bsp.a(q.o)
 .data          0x0404e360        0x0 ../tcpip_test_bsp/\libucosii_bsp.a(udp_open.o)
 .data          0x0404e360        0x0 ../tcpip_test_bsp/\libucosii_bsp.a(asm_cksum.o)
 .data          0x0404e360        0x0 ../tcpip_test_bsp/\libucosii_bsp.a(brdutils.o)
 .data          0x0404e360        0x0 ../tcpip_test_bsp/\libucosii_bsp.a(osportco.o)
 .data          0x0404e360        0x0 ../tcpip_test_bsp/\libucosii_bsp.a(targnios.o)
 .data          0x0404e360       0x48 ../tcpip_test_bsp/\libucosii_bsp.a(nptcp.o)
                0x0404e360                tcp_protosw
                0x0404e378                udp_protosw
                0x0404e390                rawip_protosw
 .data          0x0404e3a8        0x0 ../tcpip_test_bsp/\libucosii_bsp.a(rawsock.o)
 .data          0x0404e3a8        0x0 ../tcpip_test_bsp/\libucosii_bsp.a(sockcall.o)
 .data          0x0404e3a8        0x0 ../tcpip_test_bsp/\libucosii_bsp.a(socket.o)
 .data          0x0404e3a8        0x0 ../tcpip_test_bsp/\libucosii_bsp.a(socket2.o)
 .data          0x0404e3a8        0x0 ../tcpip_test_bsp/\libucosii_bsp.a(soselect.o)
 .data          0x0404e3a8        0x0 ../tcpip_test_bsp/\libucosii_bsp.a(tcp_in.o)
 .data          0x0404e3a8        0xb ../tcpip_test_bsp/\libucosii_bsp.a(tcp_out.o)
                0x0404e3a8                tcp_outflags
 .data          0x0404e3b3        0x0 ../tcpip_test_bsp/\libucosii_bsp.a(tcp_subr.o)
 .data          0x0404e3b3        0xd ../tcpip_test_bsp/\libucosii_bsp.a(tcp_timr.o)
                0x0404e3b3                tcp_backoff
 .data          0x0404e3c0        0x0 ../tcpip_test_bsp/\libucosii_bsp.a(tcp_usr.o)
 .data          0x0404e3c0        0x0 ../tcpip_test_bsp/\libucosii_bsp.a(tcpport.o)
 .data          0x0404e3c0        0x0 ../tcpip_test_bsp/\libucosii_bsp.a(udpsock.o)
 .data          0x0404e3c0        0x0 ../tcpip_test_bsp/\libucosii_bsp.a(alt_alarm_start.o)
 .data          0x0404e3c0        0x0 ../tcpip_test_bsp/\libucosii_bsp.a(alt_close.o)
 .data          0x0404e3c0        0x0 ../tcpip_test_bsp/\libucosii_bsp.a(alt_dcache_flush_all.o)
 .data          0x0404e3c0      0x1a8 ../tcpip_test_bsp/\libucosii_bsp.a(alt_dev.o)
                0x0404e3c0                alt_dev_null
                0x0404e3e8                alt_fd_list
 .data          0x0404e568        0x0 ../tcpip_test_bsp/\libucosii_bsp.a(alt_dev_llist_insert.o)
 .data          0x0404e568        0x0 ../tcpip_test_bsp/\libucosii_bsp.a(alt_do_ctors.o)
 .data          0x0404e568        0x0 ../tcpip_test_bsp/\libucosii_bsp.a(alt_do_dtors.o)
 .data          0x0404e568        0x0 ../tcpip_test_bsp/\libucosii_bsp.a(alt_errno.o)
 .data          0x0404e568        0x0 ../tcpip_test_bsp/\libucosii_bsp.a(alt_find_dev.o)
 .data          0x0404e568        0x0 ../tcpip_test_bsp/\libucosii_bsp.a(alt_icache_flush_all.o)
 .data          0x0404e568        0x0 ../tcpip_test_bsp/\libucosii_bsp.a(alt_iic.o)
 .data          0x0404e568        0x0 ../tcpip_test_bsp/\libucosii_bsp.a(alt_iic_isr_register.o)
 .data          0x0404e568        0x0 ../tcpip_test_bsp/\libucosii_bsp.a(alt_io_redirect.o)
 .data          0x0404e568        0x0 ../tcpip_test_bsp/\libucosii_bsp.a(alt_irq_entry.o)
 .data          0x0404e568        0x0 ../tcpip_test_bsp/\libucosii_bsp.a(alt_irq_handler.o)
 .data          0x0404e568        0x0 ../tcpip_test_bsp/\libucosii_bsp.a(alt_irq_vars.o)
 .data          0x0404e568        0x0 ../tcpip_test_bsp/\libucosii_bsp.a(alt_open.o)
 .data          0x0404e568        0x0 ../tcpip_test_bsp/\libucosii_bsp.a(alt_read.o)
 .data          0x0404e568        0x0 ../tcpip_test_bsp/\libucosii_bsp.a(alt_release_fd.o)
 .data          0x0404e568        0x0 ../tcpip_test_bsp/\libucosii_bsp.a(alt_remap_cached.o)
 .data          0x0404e568        0x0 ../tcpip_test_bsp/\libucosii_bsp.a(alt_remap_uncached.o)
 .data          0x0404e568        0x0 ../tcpip_test_bsp/\libucosii_bsp.a(alt_tick.o)
 .data          0x0404e568        0x0 ../tcpip_test_bsp/\libucosii_bsp.a(alt_uncached_malloc.o)
 .data          0x0404e568        0x0 ../tcpip_test_bsp/\libucosii_bsp.a(alt_usleep.o)
 .data          0x0404e568        0x0 ../tcpip_test_bsp/\libucosii_bsp.a(alt_write.o)
 .data          0x0404e568        0x0 ../tcpip_test_bsp/\libucosii_bsp.a(altera_nios2_irq.o)
 .data          0x0404e568        0x0 ../tcpip_test_bsp/\libucosii_bsp.a(os_cpu_a.o)
 .data          0x0404e568        0x0 ../tcpip_test_bsp/\libucosii_bsp.a(os_cpu_c.o)
 .data          0x0404e568       0x18 ../tcpip_test_bsp/\libucosii_bsp.a(allports.o)
                0x0404e568                icmpdu_types
 .data          0x0404e580        0x0 ../tcpip_test_bsp/\libucosii_bsp.a(timeouts.o)
 .data          0x0404e580        0x0 ../tcpip_test_bsp/\libucosii_bsp.a(tk_misc.o)
 .data          0x0404e580        0x0 ../tcpip_test_bsp/\libucosii_bsp.a(alt_iniche_fcntl.o)
 .data          0x0404e580        0x0 ../tcpip_test_bsp/\libucosii_bsp.a(et_arp.o)
 .data          0x0404e580        0x0 ../tcpip_test_bsp/\libucosii_bsp.a(iface.o)
 .data          0x0404e580        0x0 ../tcpip_test_bsp/\libucosii_bsp.a(ip.o)
 .data          0x0404e580        0x0 ../tcpip_test_bsp/\libucosii_bsp.a(ip_reasm.o)
 .data          0x0404e580        0x0 ../tcpip_test_bsp/\libucosii_bsp.a(ipdemux.o)
 .data          0x0404e580        0x0 ../tcpip_test_bsp/\libucosii_bsp.a(ipmc.o)
 .data          0x0404e580        0x0 ../tcpip_test_bsp/\libucosii_bsp.a(ipport.o)
 .data          0x0404e580        0x0 ../tcpip_test_bsp/\libucosii_bsp.a(ipraw.o)
 .data          0x0404e580        0x9 ../tcpip_test_bsp/\libucosii_bsp.a(iproute.o)
                0x0404e580                rtp_priority
 .data          0x0404e589        0x0 ../tcpip_test_bsp/\libucosii_bsp.a(udp.o)
 .data          0x0404e589        0x0 ../tcpip_test_bsp/\libucosii_bsp.a(igmp.o)
 .data          0x0404e589        0x0 ../tcpip_test_bsp/\libucosii_bsp.a(igmp2.o)
 .data          0x0404e589        0x0 ../tcpip_test_bsp/\libucosii_bsp.a(ipopt.o)
 .data          0x0404e589        0x0 ../tcpip_test_bsp/\libucosii_bsp.a(u_mctest.o)
 .data          0x0404e589        0x0 ../tcpip_test_bsp/\libucosii_bsp.a(dhcsetup.o)
 *fill*         0x0404e589        0x3 00
 .data          0x0404e58c       0xd4 ../tcpip_test_bsp/\libucosii_bsp.a(memdev.o)
                0x0404e58c                mdio
                0x0404e5b0                mdlist
 .data          0x0404e660        0x0 ../tcpip_test_bsp/\libucosii_bsp.a(parseip.o)
 .data          0x0404e660        0x0 ../tcpip_test_bsp/\libucosii_bsp.a(tcpcksum.o)
 .data          0x0404e660        0x0 ../tcpip_test_bsp/\libucosii_bsp.a(in_pcb.o)
 .data          0x0404e660       0x80 ../tcpip_test_bsp/\libucosii_bsp.a(vfsfiles.o)
                0x0404e660                vfs_root_path
 .data          0x0404e6e0        0x0 ../tcpip_test_bsp/\libucosii_bsp.a(vfsport.o)
 .data          0x0404e6e0        0x0 ../tcpip_test_bsp/\libucosii_bsp.a(alt_busy_sleep.o)
 .data          0x0404e6e0        0x0 ../tcpip_test_bsp/\libucosii_bsp.a(alt_dcache_flush.o)
 .data          0x0404e6e0        0x0 ../tcpip_test_bsp/\libucosii_bsp.a(alt_exception_entry.o)
 .data          0x0404e6e0        0x0 ../tcpip_test_bsp/\libucosii_bsp.a(alt_fcntl.o)
 .data          0x0404e6e0        0x0 ../tcpip_test_bsp/\libucosii_bsp.a(alt_find_file.o)
 .data          0x0404e6e0        0x0 ../tcpip_test_bsp/\libucosii_bsp.a(alt_get_fd.o)
 .data          0x0404e6e0        0x0 ../tcpip_test_bsp/\libucosii_bsp.a(alt_icache_flush.o)
 .data          0x0404e6e0       0x18 ../tcpip_test_bsp/\libucosii_bsp.a(icmp.o)
 .data          0x0404e6f8        0x0 c:/altera/11.0sp1/nios2eds/bin/gnu/h-i686-mingw32/bin/../lib/gcc/nios2-elf/4.1.2/../../../../nios2-elf/lib\libc.a(lib_a-atexit.o)
 .data          0x0404e6f8        0x0 c:/altera/11.0sp1/nios2eds/bin/gnu/h-i686-mingw32/bin/../lib/gcc/nios2-elf/4.1.2/../../../../nios2-elf/lib\libc.a(lib_a-atoi.o)
 .data          0x0404e6f8        0x0 c:/altera/11.0sp1/nios2eds/bin/gnu/h-i686-mingw32/bin/../lib/gcc/nios2-elf/4.1.2/../../../../nios2-elf/lib\libc.a(lib_a-calloc.o)
 .data          0x0404e6f8        0x0 c:/altera/11.0sp1/nios2eds/bin/gnu/h-i686-mingw32/bin/../lib/gcc/nios2-elf/4.1.2/../../../../nios2-elf/lib\libc.a(lib_a-exit.o)
 .data          0x0404e6f8        0x0 c:/altera/11.0sp1/nios2eds/bin/gnu/h-i686-mingw32/bin/../lib/gcc/nios2-elf/4.1.2/../../../../nios2-elf/lib\libc.a(lib_a-getc.o)
 .data          0x0404e6f8        0x0 c:/altera/11.0sp1/nios2eds/bin/gnu/h-i686-mingw32/bin/../lib/gcc/nios2-elf/4.1.2/../../../../nios2-elf/lib\libc.a(lib_a-malloc.o)
 .data          0x0404e6f8        0x0 c:/altera/11.0sp1/nios2eds/bin/gnu/h-i686-mingw32/bin/../lib/gcc/nios2-elf/4.1.2/../../../../nios2-elf/lib\libc.a(lib_a-memcmp.o)
 .data          0x0404e6f8        0x0 c:/altera/11.0sp1/nios2eds/bin/gnu/h-i686-mingw32/bin/../lib/gcc/nios2-elf/4.1.2/../../../../nios2-elf/lib\libc.a(lib_a-rget.o)
 .data          0x0404e6f8        0x0 c:/altera/11.0sp1/nios2eds/bin/gnu/h-i686-mingw32/bin/../lib/gcc/nios2-elf/4.1.2/../../../../nios2-elf/lib\libc.a(lib_a-strcpy.o)
 .data          0x0404e6f8        0x0 c:/altera/11.0sp1/nios2eds/bin/gnu/h-i686-mingw32/bin/../lib/gcc/nios2-elf/4.1.2/../../../../nios2-elf/lib\libc.a(lib_a-strncmp.o)
 .data          0x0404e6f8        0x0 c:/altera/11.0sp1/nios2eds/bin/gnu/h-i686-mingw32/bin/../lib/gcc/nios2-elf/4.1.2/../../../../nios2-elf/lib\libc.a(lib_a-strncpy.o)
 .data          0x0404e6f8        0x0 c:/altera/11.0sp1/nios2eds/bin/gnu/h-i686-mingw32/bin/../lib/gcc/nios2-elf/4.1.2/../../../../nios2-elf/lib\libc.a(lib_a-strtol.o)
 .data          0x0404e6f8        0x0 c:/altera/11.0sp1/nios2eds/bin/gnu/h-i686-mingw32/bin/../lib/gcc/nios2-elf/4.1.2/../../../../nios2-elf/lib\libc.a(lib_a-vprintf.o)
 .data          0x0404e6f8        0x0 c:/altera/11.0sp1/nios2eds/bin/gnu/h-i686-mingw32/bin/../lib/gcc/nios2-elf/4.1.2/../../../../nios2-elf/lib\libc.a(lib_a-vsprintf.o)
 .data          0x0404e6f8        0x0 c:/altera/11.0sp1/nios2eds/bin/gnu/h-i686-mingw32/bin/../lib/gcc/nios2-elf/4.1.2/../../../../nios2-elf/lib\libc.a(lib_a-__atexit.o)
 .data          0x0404e6f8        0x0 c:/altera/11.0sp1/nios2eds/bin/gnu/h-i686-mingw32/bin/../lib/gcc/nios2-elf/4.1.2/../../../../nios2-elf/lib\libc.a(lib_a-__call_atexit.o)
 .data          0x0404e6f8        0x0 c:/altera/11.0sp1/nios2eds/bin/gnu/h-i686-mingw32/bin/../lib/gcc/nios2-elf/4.1.2/../../../../nios2-elf/lib\libc.a(lib_a-refill.o)
 .data          0x0404e6f8        0x0 ../tcpip_test_bsp/\libucosii_bsp.a(alt_exit.o)
                0x040566f8                _gp = ABSOLUTE ((. + 0x8000))
                0x040566f8                PROVIDE (gp, _gp)
 *(.rwdata .rwdata.*)
 *(.sdata .sdata.* .gnu.linkonce.s.*)
 .sdata         0x0404e6f8        0x4 c:/altera/11.0sp1/nios2eds/bin/gnu/h-i686-mingw32/bin/../lib/gcc/nios2-elf/4.1.2/../../../../nios2-elf/lib\libc.a(lib_a-ctype_.o)
                0x0404e6f8                __ctype_ptr
 .sdata         0x0404e6fc        0x8 c:/altera/11.0sp1/nios2eds/bin/gnu/h-i686-mingw32/bin/../lib/gcc/nios2-elf/4.1.2/../../../../nios2-elf/lib\libc.a(lib_a-impure.o)
                0x0404e6fc                _impure_ptr
                0x0404e700                _global_impure_ptr
 .sdata         0x0404e704        0x8 c:/altera/11.0sp1/nios2eds/bin/gnu/h-i686-mingw32/bin/../lib/gcc/nios2-elf/4.1.2/../../../../nios2-elf/lib\libc.a(lib_a-locale.o)
                0x0404e704                __mb_cur_max
 .sdata         0x0404e70c        0x8 c:/altera/11.0sp1/nios2eds/bin/gnu/h-i686-mingw32/bin/../lib/gcc/nios2-elf/4.1.2/../../../../nios2-elf/lib\libc.a(lib_a-mallocr.o)
                0x0404e70c                __malloc_trim_threshold
                0x0404e710                __malloc_sbrk_base
 .sdata         0x0404e714        0x4 ../tcpip_test_bsp/\libucosii_bsp.a(alt_sbrk.o)
 .sdata         0x0404e718        0x4 ../tcpip_test_bsp/\libucosii_bsp.a(alt_env_lock.o)
 .sdata         0x0404e71c        0x4 ../tcpip_test_bsp/\libucosii_bsp.a(alt_malloc_lock.o)
 .sdata         0x0404e720       0x74 ../tcpip_test_bsp/\libucosii_bsp.a(os_dbg.o)
                0x0404e720                OSDebugEn
                0x0404e724                OSEndiannessTest
                0x0404e728                OSEventEn
                0x0404e72a                OSEventMax
                0x0404e72c                OSEventNameSize
                0x0404e72e                OSEventSize
                0x0404e730                OSEventTblSize
                0x0404e732                OSEventMultiEn
                0x0404e734                OSFlagEn
                0x0404e736                OSFlagGrpSize
                0x0404e738                OSFlagNodeSize
                0x0404e73a                OSFlagWidth
                0x0404e73c                OSFlagMax
                0x0404e73e                OSFlagNameSize
                0x0404e740                OSLowestPrio
                0x0404e742                OSMboxEn
                0x0404e744                OSMemEn
                0x0404e746                OSMemMax
                0x0404e748                OSMemNameSize
                0x0404e74a                OSMemSize
                0x0404e74c                OSMemTblSize
                0x0404e74e                OSMutexEn
                0x0404e750                OSPtrSize
                0x0404e752                OSQEn
                0x0404e754                OSQMax
                0x0404e756                OSQSize
                0x0404e758                OSRdyTblSize
                0x0404e75a                OSSemEn
                0x0404e75c                OSStkWidth
                0x0404e75e                OSTaskCreateEn
                0x0404e760                OSTaskCreateExtEn
                0x0404e762                OSTaskDelEn
                0x0404e764                OSTaskIdleStkSize
                0x0404e766                OSTaskProfileEn
                0x0404e768                OSTaskMax
                0x0404e76a                OSTaskNameSize
                0x0404e76c                OSTaskStatEn
                0x0404e76e                OSTaskStatStkSize
                0x0404e770                OSTaskStatStkChkEn
                0x0404e772                OSTaskSwHookEn
                0x0404e774                OSTCBPrioTblMax
                0x0404e776                OSTCBSize
                0x0404e778                OSTicksPerSec
                0x0404e77a                OSTimeTickHookEn
                0x0404e77c                OSVersionNbr
                0x0404e77e                OSTmrEn
                0x0404e780                OSTmrCfgMax
                0x0404e782                OSTmrCfgNameSize
                0x0404e784                OSTmrCfgWheelSize
                0x0404e786                OSTmrCfgTicksPerSec
                0x0404e788                OSTmrSize
                0x0404e78a                OSTmrTblSize
                0x0404e78c                OSTmrWheelSize
                0x0404e78e                OSTmrWheelTblSize
                0x0404e790                OSDataSize
 .sdata         0x0404e794        0x4 ../tcpip_test_bsp/\libucosii_bsp.a(alt_sys_init.o)
                0x0404e794                ethernet_1_name
 .sdata         0x0404e798        0x8 ../tcpip_test_bsp/\libucosii_bsp.a(altera_avalon_sgdma.o)
                0x0404e798                alt_sgdma_list
 .sdata         0x0404e7a0        0x1 ../tcpip_test_bsp/\libucosii_bsp.a(altera_avalon_tse.o)
                0x0404e7a0                max_mac_system
 *fill*         0x0404e7a1        0x3 00
 .sdata         0x0404e7a4        0x8 ../tcpip_test_bsp/\libucosii_bsp.a(alt_iniche_dev.o)
                0x0404e7a4                alt_iniche_dev_list
 .sdata         0x0404e7ac        0x4 ../tcpip_test_bsp/\libucosii_bsp.a(ipstart.o)
                0x0404e7ac                ipmcfail_str
 .sdata         0x0404e7b0        0x4 ../tcpip_test_bsp/\libucosii_bsp.a(cksum.o)
 .sdata         0x0404e7b4        0x4 ../tcpip_test_bsp/\libucosii_bsp.a(netmain.o)
                0x0404e7b4                num_net_tasks
 .sdata         0x0404e7b8        0xc ../tcpip_test_bsp/\libucosii_bsp.a(dhcpclnt.o)
                0x0404e7b8                xids
                0x0404e7bc                reqlist
                0x0404e7c0                reqlist_len
 .sdata         0x0404e7c4       0x10 ../tcpip_test_bsp/\libucosii_bsp.a(pktalloc.o)
                0x0404e7c4                lilbufs
                0x0404e7c8                lilbufsiz
                0x0404e7cc                bigbufs
                0x0404e7d0                bigbufsiz
 .sdata         0x0404e7d4        0x4 ../tcpip_test_bsp/\libucosii_bsp.a(brdutils.o)
                0x0404e7d4                kb_last
 .sdata         0x0404e7d8        0x4 ../tcpip_test_bsp/\libucosii_bsp.a(nptcp.o)
                0x0404e7d8                TCPTV_MSL
 .sdata         0x0404e7dc        0x2 ../tcpip_test_bsp/\libucosii_bsp.a(socket.o)
                0x0404e7dc                socket_defaults
 .sdata         0x0404e7de        0x1 ../tcpip_test_bsp/\libucosii_bsp.a(tcp_in.o)
                0x0404e7de                tcprexmtthresh
 *fill*         0x0404e7df        0x1 00
 .sdata         0x0404e7e0        0x4 ../tcpip_test_bsp/\libucosii_bsp.a(tcp_subr.o)
                0x0404e7e0                tcp_ttl
 .sdata         0x0404e7e4        0x8 ../tcpip_test_bsp/\libucosii_bsp.a(tcp_timr.o)
                0x0404e7e4                tcp_keepidle
                0x0404e7e8                tcp_keepintvl
 .sdata         0x0404e7ec        0x8 ../tcpip_test_bsp/\libucosii_bsp.a(tcp_usr.o)
                0x0404e7ec                tcp_sendspace
                0x0404e7f0                tcp_recvspace
 .sdata         0x0404e7f4       0x14 ../tcpip_test_bsp/\libucosii_bsp.a(alt_dev.o)
                0x0404e7f4                alt_fs_list
                0x0404e7fc                alt_dev_list
                0x0404e804                alt_max_fd
 .sdata         0x0404e808        0x4 ../tcpip_test_bsp/\libucosii_bsp.a(alt_errno.o)
                0x0404e808                alt_errno
 .sdata         0x0404e80c        0x4 ../tcpip_test_bsp/\libucosii_bsp.a(alt_irq_vars.o)
                0x0404e80c                alt_priority_mask
 .sdata         0x0404e810        0x8 ../tcpip_test_bsp/\libucosii_bsp.a(alt_tick.o)
                0x0404e810                alt_alarm_list
 .sdata         0x0404e818       0x10 ../tcpip_test_bsp/\libucosii_bsp.a(allports.o)
                0x0404e818                name
                0x0404e81c                prompt
                0x0404e820                pingdelay
                0x0404e824                deflength
 .sdata         0x0404e828        0x4 ../tcpip_test_bsp/\libucosii_bsp.a(et_arp.o)
                0x0404e828                arp_ageout
 .sdata         0x0404e82c        0x8 ../tcpip_test_bsp/\libucosii_bsp.a(ip.o)
                0x0404e830                ipRoutes
 .sdata         0x0404e834        0x4 ../tcpip_test_bsp/\libucosii_bsp.a(u_mctest.o)
 .sdata         0x0404e838        0x4 ../tcpip_test_bsp/\libucosii_bsp.a(memdev.o)
                0x0404e838                mdlist_size
 .sdata         0x0404e83c        0x4 ../tcpip_test_bsp/\libucosii_bsp.a(parseip.o)
                0x0404e83c                pton_error
 .sdata         0x0404e840        0x4 ../tcpip_test_bsp/\libucosii_bsp.a(vfsfiles.o)
                0x0404e840                http_root_path
 *(.sdata2 .sdata2.* .gnu.linkonce.s2.*)
                0x0404e844                . = ALIGN (0x4)
                0x0404e844                _edata = ABSOLUTE (.)
                0x0404e844                PROVIDE (edata, ABSOLUTE (.))
                0x0404e844                PROVIDE (__ram_rwdata_end, ABSOLUTE (.))
                0x0404e844                PROVIDE (__flash_rwdata_start, LOADADDR (.rwdata))

.bss            0x04050650     0x8d58
                0x04050650                __bss_start = ABSOLUTE (.)
                0x04050650                PROVIDE (__sbss_start, ABSOLUTE (.))
                0x04050650                PROVIDE (___sbss_start, ABSOLUTE (.))
 *(.dynsbss)
 *(.sbss .sbss.* .gnu.linkonce.sb.*)
 .sbss          0x04050650        0x1 obj/iniche_init.o
                0x04050650                to_ssstask
 *fill*         0x04050651        0x3 00
 .sbss          0x04050654       0x10 obj/simple_socket_server.o
                0x04050658                SSSLEDCommandQ
                0x0405065c                SSSLEDLightshowSem
                0x04050660                SSSLEDEventFlag
 .sbss          0x04050664        0xc c:/altera/11.0sp1/nios2eds/bin/gnu/h-i686-mingw32/bin/../lib/gcc/nios2-elf/4.1.2/../../../../nios2-elf/lib\libc.a(lib_a-locale.o)
                0x04050664                __nlocale_changed
                0x04050668                __mlocale_changed
                0x0405066c                _PathLocale
 .sbss          0x04050670        0xc c:/altera/11.0sp1/nios2eds/bin/gnu/h-i686-mingw32/bin/../lib/gcc/nios2-elf/4.1.2/../../../../nios2-elf/lib\libc.a(lib_a-mallocr.o)
                0x04050670                __malloc_top_pad
                0x04050674                __malloc_max_sbrked_mem
                0x04050678                __malloc_max_total_mem
 .sbss          0x0405067c        0x4 c:/altera/11.0sp1/nios2eds/bin/gnu/h-i686-mingw32/bin/../lib/gcc/nios2-elf/4.1.2/../../../../nios2-elf/lib\libc.a(lib_a-int_errno.o)
                0x0405067c                errno
 .sbss          0x04050680        0xc ../tcpip_test_bsp/\libucosii_bsp.a(alt_main.o)
                0x04050680                alt_argc
                0x04050684                alt_argv
                0x04050688                alt_envp
 .sbss          0x0405068c        0x8 ../tcpip_test_bsp/\libucosii_bsp.a(alt_env_lock.o)
                0x04050690                alt_envsem
 .sbss          0x04050694        0x8 ../tcpip_test_bsp/\libucosii_bsp.a(alt_malloc_lock.o)
                0x04050698                alt_heapsem
 .sbss          0x0405069c       0x50 ../tcpip_test_bsp/\libucosii_bsp.a(os_core.o)
                0x0405069c                OSLockNesting
                0x0405069d                OSRunning
                0x040506a0                OSIdleCtr
                0x040506a4                OSPrioHighRdy
                0x040506a5                OSPrioCur
                0x040506a8                OSTCBList
                0x040506ac                OSTickStepState
                0x040506b0                OSCtxSwCtr
                0x040506b4                OSIdleCtrMax
                0x040506b8                OSTCBFreeList
                0x040506bc                OSCPUUsage
                0x040506bd                OSTaskCtr
                0x040506c0                OSMemFreeList
                0x040506c4                OSTCBHighRdy
                0x040506c8                OSQFreeList
                0x040506cc                OSRdyGrp
                0x040506cd                OSRdyTbl
                0x040506d0                OSEventFreeList
                0x040506d4                OSIntNesting
                0x040506d8                OSTCBCur
                0x040506dc                OSTime
                0x040506e0                OSFlagFreeList
                0x040506e4                OSStatRdy
                0x040506e8                OSIdleCtrRun
 .sbss          0x040506ec        0x4 ../tcpip_test_bsp/\libucosii_bsp.a(altera_avalon_tse.o)
                0x040506ec                phy_profile_count
                0x040506ed                mac_group_count
 .sbss          0x040506f0        0x1 ../tcpip_test_bsp/\libucosii_bsp.a(ins_tse_mac.o)
                0x040506f0                number_of_tse_mac
 *fill*         0x040506f1        0x3 00
 .sbss          0x040506f4        0xc ../tcpip_test_bsp/\libucosii_bsp.a(ipnet.o)
                0x040506f4                MaxLnh
                0x040506f8                MaxMtu
                0x040506fc                NDEBUG
 .sbss          0x04050700        0x8 ../tcpip_test_bsp/\libucosii_bsp.a(ipstart.o)
                0x04050700                ifNumber
 .sbss          0x04050708       0x10 ../tcpip_test_bsp/\libucosii_bsp.a(igmp_cmn.o)
                0x04050708                igmp_timers_are_running
                0x0405070c                igmp_cticks
                0x04050710                igmp_all_hosts_group
                0x04050714                igmp_all_rtrs_group
 .sbss          0x04050718        0xe ../tcpip_test_bsp/\libucosii_bsp.a(netmain.o)
                0x04050718                netmain_wakes
                0x0405071c                nettick_wakes
                0x04050720                iniche_net_ready
                0x04050724                to_netmain
                0x04050725                to_nettick
 *fill*         0x04050726        0x2 00
 .sbss          0x04050728        0x4 ../tcpip_test_bsp/\libucosii_bsp.a(tk_crnos.o)
                0x04050728                tcp_sleep_timeout
 .sbss          0x0405072c       0x34 ../tcpip_test_bsp/\libucosii_bsp.a(dhcpclnt.o)
                0x0405072c                dhc_conn
                0x04050730                dsc_errors
                0x04050734                dsc_discovers
                0x04050738                dsc_offers
                0x0405073c                dsc_requests
                0x04050740                dsc_acks
                0x04050744                dsc_bpreplys
                0x04050748                dsc_declines
                0x0405074c                dsc_releases
                0x04050750                dsc_naks
                0x04050754                dsc_renew
                0x04050758                dsc_rebind
                0x0405075c                dsc_rlyerrs
 .sbss          0x04050760        0x4 ../tcpip_test_bsp/\libucosii_bsp.a(udp_open.o)
                0x04050760                firstudp
 .sbss          0x04050764       0x18 ../tcpip_test_bsp/\libucosii_bsp.a(brdutils.o)
                0x04050768                cticks_initialized
                0x0405076c                irq_level
                0x04050774                cticks_factor
                0x04050778                OS_TPS
 .sbss          0x0405077c       0x18 ../tcpip_test_bsp/\libucosii_bsp.a(osportco.o)
                0x0405077c                tcp_sleep_count
                0x04050780                tcp_wakeup_count
                0x04050784                netq_intmask
                0x04050788                old_mode
                0x0405078c                global_TCPwakeup_setIndx
                0x04050790                cticks
 .sbss          0x04050794        0xc ../tcpip_test_bsp/\libucosii_bsp.a(targnios.o)
                0x04050794                memtrapsize
                0x04050798                mheap_sem_ptr
                0x0405079c                rcvdq_sem_ptr
 .sbss          0x040507a0       0x12 ../tcpip_test_bsp/\libucosii_bsp.a(nptcp.o)
                0x040507a0                nextslow
                0x040507a8                mbstat
                0x040507b0                select_wait
 *fill*         0x040507b2        0x2 00
 .sbss          0x040507b4        0x8 ../tcpip_test_bsp/\libucosii_bsp.a(tcp_in.o)
                0x040507b4                tcpprintfs
                0x040507b8                dropline
 .sbss          0x040507bc        0x4 ../tcpip_test_bsp/\libucosii_bsp.a(tcp_out.o)
                0x040507bc                tcp_optionbuf
 .sbss          0x040507c0        0x8 ../tcpip_test_bsp/\libucosii_bsp.a(tcp_timr.o)
                0x040507c0                tcp_maxidle
                0x040507c4                tcp_iss
 .sbss          0x040507c8        0x4 ../tcpip_test_bsp/\libucosii_bsp.a(alt_dev.o)
                0x040507c8                alt_fd_list_lock
 .sbss          0x040507cc        0x4 ../tcpip_test_bsp/\libucosii_bsp.a(alt_irq_vars.o)
                0x040507cc                alt_irq_active
 .sbss          0x040507d0        0x8 ../tcpip_test_bsp/\libucosii_bsp.a(alt_tick.o)
                0x040507d0                _alt_tick_rate
                0x040507d4                _alt_nticks
 .sbss          0x040507d8        0x8 ../tcpip_test_bsp/\libucosii_bsp.a(allports.o)
                0x040507d8                activehost
 .sbss          0x040507e0        0xc ../tcpip_test_bsp/\libucosii_bsp.a(timeouts.o)
                0x040507e0                nextppp
                0x040507e4                port_1s_callout
 .sbss          0x040507ec       0x1c ../tcpip_test_bsp/\libucosii_bsp.a(et_arp.o)
                0x040507f0                arpcache
                0x040507f4                arpReqsIn
                0x040507f8                arpReqsOut
                0x040507fc                arpRepsIn
                0x04050800                arpRepsOut
 .sbss          0x04050808        0x4 ../tcpip_test_bsp/\libucosii_bsp.a(ip.o)
                0x04050808                rt_mib
 .sbss          0x0405080c        0xc ../tcpip_test_bsp/\libucosii_bsp.a(ip_reasm.o)
                0x0405080c                ipr_curr_mem
                0x04050810                h_ireq
                0x04050814                ire_cticks
 .sbss          0x04050818       0x11 ../tcpip_test_bsp/\libucosii_bsp.a(ipport.o)
                0x04050818                port_prep
                0x0405081c                net_system_exit
                0x04050820                so_evtmap_create
                0x04050824                so_evtmap_delete
                0x04050828                so_evtmap
 *fill*         0x04050829        0x3 00
 .sbss          0x0405082c        0x4 ../tcpip_test_bsp/\libucosii_bsp.a(ipraw.o)
                0x0405082c                ipraw_eps
 .sbss          0x04050830        0x4 ../tcpip_test_bsp/\libucosii_bsp.a(iproute.o)
                0x04050830                cachedRoute
 .sbss          0x04050834        0x2 ../tcpip_test_bsp/\libucosii_bsp.a(udp.o)
 *fill*         0x04050836        0x2 00
 .sbss          0x04050838        0x8 ../tcpip_test_bsp/\libucosii_bsp.a(in_pcb.o)
                0x04050838                inpcb_cachehits
                0x0405083c                inpcb_cachemiss
 .sbss          0x04050840       0x20 ../tcpip_test_bsp/\libucosii_bsp.a(vfsfiles.o)
                0x04050840                vfsystems
                0x04050844                vfiles
                0x04050848                vfsfiles
                0x0405084c                vfopen_error
                0x04050850                vfs_dir_stale
                0x04050854                vfs_open_files
                0x04050858                vfs_total_rw_space
                0x0405085c                vfs_total_dyna_files
 .sbss          0x04050860        0x4 ../tcpip_test_bsp/\libucosii_bsp.a(icmp.o)
                0x04050860                icmpdu_hook
 *(.sbss2 .sbss2.* .gnu.linkonce.sb2.*)
 *(.scommon)
                0x04050864                PROVIDE (__sbss_end, ABSOLUTE (.))
                0x04050864                PROVIDE (___sbss_end, ABSOLUTE (.))
 *(.dynbss)
 *(.bss .bss.* .gnu.linkonce.b.*)
 .bss           0x04050864        0x0 ../tcpip_test_bsp//obj/HAL/src/crt0.o
 .bss           0x04050864        0x0 obj/alt_error_handler.o
 .bss           0x04050864        0x0 obj/iniche_init.o
 .bss           0x04050864        0x0 obj/led.o
 .bss           0x04050864        0x0 obj/network_utilities.o
 .bss           0x04050864      0x5f0 obj/simple_socket_server.o
 .bss           0x04050e54        0x0 obj/tse_my_system.o
 .bss           0x04050e54        0x0 c:/altera/11.0sp1/nios2eds/bin/gnu/h-i686-mingw32/bin/../lib/gcc/nios2-elf/4.1.2/../../../../nios2-elf/lib\libc.a(lib_a-ctype_.o)
 .bss           0x04050e54        0x0 c:/altera/11.0sp1/nios2eds/bin/gnu/h-i686-mingw32/bin/../lib/gcc/nios2-elf/4.1.2/../../../../nios2-elf/lib\libc.a(lib_a-fprintf.o)
 .bss           0x04050e54        0x0 c:/altera/11.0sp1/nios2eds/bin/gnu/h-i686-mingw32/bin/../lib/gcc/nios2-elf/4.1.2/../../../../nios2-elf/lib\libc.a(lib_a-fwrite.o)
 .bss           0x04050e54        0x0 c:/altera/11.0sp1/nios2eds/bin/gnu/h-i686-mingw32/bin/../lib/gcc/nios2-elf/4.1.2/../../../../nios2-elf/lib\libc.a(lib_a-impure.o)
 .bss           0x04050e54        0x0 c:/altera/11.0sp1/nios2eds/bin/gnu/h-i686-mingw32/bin/../lib/gcc/nios2-elf/4.1.2/../../../../nios2-elf/lib\libc.a(lib_a-memcpy.o)
 .bss           0x04050e54        0x0 c:/altera/11.0sp1/nios2eds/bin/gnu/h-i686-mingw32/bin/../lib/gcc/nios2-elf/4.1.2/../../../../nios2-elf/lib\libc.a(lib_a-memmove.o)
 .bss           0x04050e54        0x0 c:/altera/11.0sp1/nios2eds/bin/gnu/h-i686-mingw32/bin/../lib/gcc/nios2-elf/4.1.2/../../../../nios2-elf/lib\libc.a(lib_a-memset.o)
 .bss           0x04050e54        0x0 c:/altera/11.0sp1/nios2eds/bin/gnu/h-i686-mingw32/bin/../lib/gcc/nios2-elf/4.1.2/../../../../nios2-elf/lib\libc.a(lib_a-perror.o)
 .bss           0x04050e54        0x0 c:/altera/11.0sp1/nios2eds/bin/gnu/h-i686-mingw32/bin/../lib/gcc/nios2-elf/4.1.2/../../../../nios2-elf/lib\libc.a(lib_a-printf.o)
 .bss           0x04050e54        0x0 c:/altera/11.0sp1/nios2eds/bin/gnu/h-i686-mingw32/bin/../lib/gcc/nios2-elf/4.1.2/../../../../nios2-elf/lib\libc.a(lib_a-puts.o)
 .bss           0x04050e54        0x0 c:/altera/11.0sp1/nios2eds/bin/gnu/h-i686-mingw32/bin/../lib/gcc/nios2-elf/4.1.2/../../../../nios2-elf/lib\libc.a(lib_a-sprintf.o)
 .bss           0x04050e54        0x0 c:/altera/11.0sp1/nios2eds/bin/gnu/h-i686-mingw32/bin/../lib/gcc/nios2-elf/4.1.2/../../../../nios2-elf/lib\libc.a(lib_a-strchr.o)
 .bss           0x04050e54        0x0 c:/altera/11.0sp1/nios2eds/bin/gnu/h-i686-mingw32/bin/../lib/gcc/nios2-elf/4.1.2/../../../../nios2-elf/lib\libc.a(lib_a-strerror.o)
 .bss           0x04050e54        0x0 c:/altera/11.0sp1/nios2eds/bin/gnu/h-i686-mingw32/bin/../lib/gcc/nios2-elf/4.1.2/../../../../nios2-elf/lib\libc.a(lib_a-strlen.o)
 .bss           0x04050e54        0x0 c:/altera/11.0sp1/nios2eds/bin/gnu/h-i686-mingw32/bin/../lib/gcc/nios2-elf/4.1.2/../../../../nios2-elf/lib\libc.a(lib_a-u_strerr.o)
 .bss           0x04050e54        0x0 c:/altera/11.0sp1/nios2eds/bin/gnu/h-i686-mingw32/bin/../lib/gcc/nios2-elf/4.1.2/../../../../nios2-elf/lib\libc.a(lib_a-vfprintf.o)
 .bss           0x04050e54        0x0 c:/altera/11.0sp1/nios2eds/bin/gnu/h-i686-mingw32/bin/../lib/gcc/nios2-elf/4.1.2/../../../../nios2-elf/lib\libc.a(lib_a-wsetup.o)
 .bss           0x04050e54        0x0 c:/altera/11.0sp1/nios2eds/bin/gnu/h-i686-mingw32/bin/../lib/gcc/nios2-elf/4.1.2/../../../../nios2-elf/lib\libc.a(lib_a-dtoa.o)
 .bss           0x04050e54        0x0 c:/altera/11.0sp1/nios2eds/bin/gnu/h-i686-mingw32/bin/../lib/gcc/nios2-elf/4.1.2/../../../../nios2-elf/lib\libc.a(lib_a-fflush.o)
 .bss           0x04050e54        0x0 c:/altera/11.0sp1/nios2eds/bin/gnu/h-i686-mingw32/bin/../lib/gcc/nios2-elf/4.1.2/../../../../nios2-elf/lib\libc.a(lib_a-findfp.o)
 .bss           0x04050e54        0x0 c:/altera/11.0sp1/nios2eds/bin/gnu/h-i686-mingw32/bin/../lib/gcc/nios2-elf/4.1.2/../../../../nios2-elf/lib\libc.a(lib_a-fputc.o)
 .bss           0x04050e54        0x0 c:/altera/11.0sp1/nios2eds/bin/gnu/h-i686-mingw32/bin/../lib/gcc/nios2-elf/4.1.2/../../../../nios2-elf/lib\libc.a(lib_a-fputs.o)
 .bss           0x04050e54        0x0 c:/altera/11.0sp1/nios2eds/bin/gnu/h-i686-mingw32/bin/../lib/gcc/nios2-elf/4.1.2/../../../../nios2-elf/lib\libc.a(lib_a-freer.o)
 .bss           0x04050e54        0x0 c:/altera/11.0sp1/nios2eds/bin/gnu/h-i686-mingw32/bin/../lib/gcc/nios2-elf/4.1.2/../../../../nios2-elf/lib\libc.a(lib_a-fvwrite.o)
 .bss           0x04050e54        0x0 c:/altera/11.0sp1/nios2eds/bin/gnu/h-i686-mingw32/bin/../lib/gcc/nios2-elf/4.1.2/../../../../nios2-elf/lib\libc.a(lib_a-fwalk.o)
 .bss           0x04050e54        0x0 c:/altera/11.0sp1/nios2eds/bin/gnu/h-i686-mingw32/bin/../lib/gcc/nios2-elf/4.1.2/../../../../nios2-elf/lib\libc.a(lib_a-locale.o)
 .bss           0x04050e54        0x0 c:/altera/11.0sp1/nios2eds/bin/gnu/h-i686-mingw32/bin/../lib/gcc/nios2-elf/4.1.2/../../../../nios2-elf/lib\libc.a(lib_a-makebuf.o)
 .bss           0x04050e54       0x28 c:/altera/11.0sp1/nios2eds/bin/gnu/h-i686-mingw32/bin/../lib/gcc/nios2-elf/4.1.2/../../../../nios2-elf/lib\libc.a(lib_a-mallocr.o)
                0x04050e54                __malloc_current_mallinfo
 .bss           0x04050e7c        0x0 c:/altera/11.0sp1/nios2eds/bin/gnu/h-i686-mingw32/bin/../lib/gcc/nios2-elf/4.1.2/../../../../nios2-elf/lib\libc.a(lib_a-memchr.o)
 .bss           0x04050e7c        0x0 c:/altera/11.0sp1/nios2eds/bin/gnu/h-i686-mingw32/bin/../lib/gcc/nios2-elf/4.1.2/../../../../nios2-elf/lib\libc.a(lib_a-mprec.o)
 .bss           0x04050e7c        0x0 c:/altera/11.0sp1/nios2eds/bin/gnu/h-i686-mingw32/bin/../lib/gcc/nios2-elf/4.1.2/../../../../nios2-elf/lib\libc.a(lib_a-putc.o)
 .bss           0x04050e7c        0x0 c:/altera/11.0sp1/nios2eds/bin/gnu/h-i686-mingw32/bin/../lib/gcc/nios2-elf/4.1.2/../../../../nios2-elf/lib\libc.a(lib_a-reallocr.o)
 .bss           0x04050e7c        0x0 c:/altera/11.0sp1/nios2eds/bin/gnu/h-i686-mingw32/bin/../lib/gcc/nios2-elf/4.1.2/../../../../nios2-elf/lib\libc.a(lib_a-s_isinfd.o)
 .bss           0x04050e7c        0x0 c:/altera/11.0sp1/nios2eds/bin/gnu/h-i686-mingw32/bin/../lib/gcc/nios2-elf/4.1.2/../../../../nios2-elf/lib\libc.a(lib_a-s_isnand.o)
 .bss           0x04050e7c        0x0 c:/altera/11.0sp1/nios2eds/bin/gnu/h-i686-mingw32/bin/../lib/gcc/nios2-elf/4.1.2/../../../../nios2-elf/lib\libc.a(lib_a-sbrkr.o)
 .bss           0x04050e7c        0x0 c:/altera/11.0sp1/nios2eds/bin/gnu/h-i686-mingw32/bin/../lib/gcc/nios2-elf/4.1.2/../../../../nios2-elf/lib\libc.a(lib_a-stdio.o)
 .bss           0x04050e7c        0x0 c:/altera/11.0sp1/nios2eds/bin/gnu/h-i686-mingw32/bin/../lib/gcc/nios2-elf/4.1.2/../../../../nios2-elf/lib\libc.a(lib_a-strcmp.o)
 .bss           0x04050e7c        0x0 c:/altera/11.0sp1/nios2eds/bin/gnu/h-i686-mingw32/bin/../lib/gcc/nios2-elf/4.1.2/../../../../nios2-elf/lib\libc.a(lib_a-wbuf.o)
 .bss           0x04050e7c        0x0 c:/altera/11.0sp1/nios2eds/bin/gnu/h-i686-mingw32/bin/../lib/gcc/nios2-elf/4.1.2/../../../../nios2-elf/lib\libc.a(lib_a-writer.o)
 .bss           0x04050e7c        0x0 c:/altera/11.0sp1/nios2eds/bin/gnu/h-i686-mingw32/bin/../lib/gcc/nios2-elf/4.1.2/../../../../nios2-elf/lib\libc.a(lib_a-callocr.o)
 .bss           0x04050e7c        0x0 c:/altera/11.0sp1/nios2eds/bin/gnu/h-i686-mingw32/bin/../lib/gcc/nios2-elf/4.1.2/../../../../nios2-elf/lib\libc.a(lib_a-closer.o)
 .bss           0x04050e7c        0x0 c:/altera/11.0sp1/nios2eds/bin/gnu/h-i686-mingw32/bin/../lib/gcc/nios2-elf/4.1.2/../../../../nios2-elf/lib\libc.a(lib_a-fclose.o)
 .bss           0x04050e7c        0x0 c:/altera/11.0sp1/nios2eds/bin/gnu/h-i686-mingw32/bin/../lib/gcc/nios2-elf/4.1.2/../../../../nios2-elf/lib\libc.a(lib_a-fstatr.o)
 .bss           0x04050e7c        0x0 c:/altera/11.0sp1/nios2eds/bin/gnu/h-i686-mingw32/bin/../lib/gcc/nios2-elf/4.1.2/../../../../nios2-elf/lib\libc.a(lib_a-int_errno.o)
 .bss           0x04050e7c        0x0 c:/altera/11.0sp1/nios2eds/bin/gnu/h-i686-mingw32/bin/../lib/gcc/nios2-elf/4.1.2/../../../../nios2-elf/lib\libc.a(lib_a-isattyr.o)
 .bss           0x04050e7c        0x0 c:/altera/11.0sp1/nios2eds/bin/gnu/h-i686-mingw32/bin/../lib/gcc/nios2-elf/4.1.2/../../../../nios2-elf/lib\libc.a(lib_a-lseekr.o)
 .bss           0x04050e7c        0x0 c:/altera/11.0sp1/nios2eds/bin/gnu/h-i686-mingw32/bin/../lib/gcc/nios2-elf/4.1.2/../../../../nios2-elf/lib\libc.a(lib_a-readr.o)
 .bss           0x04050e7c        0x0 c:/altera/11.0sp1/nios2eds/bin/gnu/h-i686-mingw32/bin/../lib/gcc/nios2-elf/4.1.2\libgcc.a(_udivdi3.o)
 .bss           0x04050e7c        0x0 c:/altera/11.0sp1/nios2eds/bin/gnu/h-i686-mingw32/bin/../lib/gcc/nios2-elf/4.1.2\libgcc.a(_umoddi3.o)
 .bss           0x04050e7c        0x0 c:/altera/11.0sp1/nios2eds/bin/gnu/h-i686-mingw32/bin/../lib/gcc/nios2-elf/4.1.2\libgcc.a(_addsub_df.o)
 .bss           0x04050e7c        0x0 c:/altera/11.0sp1/nios2eds/bin/gnu/h-i686-mingw32/bin/../lib/gcc/nios2-elf/4.1.2\libgcc.a(_mul_df.o)
 .bss           0x04050e7c        0x0 c:/altera/11.0sp1/nios2eds/bin/gnu/h-i686-mingw32/bin/../lib/gcc/nios2-elf/4.1.2\libgcc.a(_div_df.o)
 .bss           0x04050e7c        0x0 c:/altera/11.0sp1/nios2eds/bin/gnu/h-i686-mingw32/bin/../lib/gcc/nios2-elf/4.1.2\libgcc.a(_eq_df.o)
 .bss           0x04050e7c        0x0 c:/altera/11.0sp1/nios2eds/bin/gnu/h-i686-mingw32/bin/../lib/gcc/nios2-elf/4.1.2\libgcc.a(_ne_df.o)
 .bss           0x04050e7c        0x0 c:/altera/11.0sp1/nios2eds/bin/gnu/h-i686-mingw32/bin/../lib/gcc/nios2-elf/4.1.2\libgcc.a(_gt_df.o)
 .bss           0x04050e7c        0x0 c:/altera/11.0sp1/nios2eds/bin/gnu/h-i686-mingw32/bin/../lib/gcc/nios2-elf/4.1.2\libgcc.a(_ge_df.o)
 .bss           0x04050e7c        0x0 c:/altera/11.0sp1/nios2eds/bin/gnu/h-i686-mingw32/bin/../lib/gcc/nios2-elf/4.1.2\libgcc.a(_lt_df.o)
 .bss           0x04050e7c        0x0 c:/altera/11.0sp1/nios2eds/bin/gnu/h-i686-mingw32/bin/../lib/gcc/nios2-elf/4.1.2\libgcc.a(_si_to_df.o)
 .bss           0x04050e7c        0x0 c:/altera/11.0sp1/nios2eds/bin/gnu/h-i686-mingw32/bin/../lib/gcc/nios2-elf/4.1.2\libgcc.a(_df_to_si.o)
 .bss           0x04050e7c        0x0 c:/altera/11.0sp1/nios2eds/bin/gnu/h-i686-mingw32/bin/../lib/gcc/nios2-elf/4.1.2\libgcc.a(_thenan_df.o)
 .bss           0x04050e7c        0x0 c:/altera/11.0sp1/nios2eds/bin/gnu/h-i686-mingw32/bin/../lib/gcc/nios2-elf/4.1.2\libgcc.a(_usi_to_df.o)
 .bss           0x04050e7c        0x0 c:/altera/11.0sp1/nios2eds/bin/gnu/h-i686-mingw32/bin/../lib/gcc/nios2-elf/4.1.2\libgcc.a(lib2-divmod.o)
 .bss           0x04050e7c        0x0 c:/altera/11.0sp1/nios2eds/bin/gnu/h-i686-mingw32/bin/../lib/gcc/nios2-elf/4.1.2\libgcc.a(_muldi3.o)
 .bss           0x04050e7c        0x0 c:/altera/11.0sp1/nios2eds/bin/gnu/h-i686-mingw32/bin/../lib/gcc/nios2-elf/4.1.2\libgcc.a(_clz.o)
 .bss           0x04050e7c        0x0 c:/altera/11.0sp1/nios2eds/bin/gnu/h-i686-mingw32/bin/../lib/gcc/nios2-elf/4.1.2\libgcc.a(_clzsi2.o)
 .bss           0x04050e7c        0x0 c:/altera/11.0sp1/nios2eds/bin/gnu/h-i686-mingw32/bin/../lib/gcc/nios2-elf/4.1.2\libgcc.a(_pack_df.o)
 .bss           0x04050e7c        0x0 c:/altera/11.0sp1/nios2eds/bin/gnu/h-i686-mingw32/bin/../lib/gcc/nios2-elf/4.1.2\libgcc.a(_unpack_df.o)
 .bss           0x04050e7c        0x0 c:/altera/11.0sp1/nios2eds/bin/gnu/h-i686-mingw32/bin/../lib/gcc/nios2-elf/4.1.2\libgcc.a(_fpcmp_parts_df.o)
 .bss           0x04050e7c        0x0 ../tcpip_test_bsp/\libucosii_bsp.a(alt_fstat.o)
 .bss           0x04050e7c        0x0 ../tcpip_test_bsp/\libucosii_bsp.a(alt_isatty.o)
 .bss           0x04050e7c        0x0 ../tcpip_test_bsp/\libucosii_bsp.a(alt_load.o)
 .bss           0x04050e7c        0x0 ../tcpip_test_bsp/\libucosii_bsp.a(alt_lseek.o)
 .bss           0x04050e7c        0x0 ../tcpip_test_bsp/\libucosii_bsp.a(alt_main.o)
 .bss           0x04050e7c        0x0 ../tcpip_test_bsp/\libucosii_bsp.a(alt_sbrk.o)
 .bss           0x04050e7c        0x0 ../tcpip_test_bsp/\libucosii_bsp.a(alt_env_lock.o)
 .bss           0x04050e7c        0x0 ../tcpip_test_bsp/\libucosii_bsp.a(alt_malloc_lock.o)
 .bss           0x04050e7c        0x0 ../tcpip_test_bsp/\libucosii_bsp.a(os_core.o)
 .bss           0x04050e7c        0x0 ../tcpip_test_bsp/\libucosii_bsp.a(os_dbg.o)
 .bss           0x04050e7c        0x0 ../tcpip_test_bsp/\libucosii_bsp.a(os_flag.o)
 .bss           0x04050e7c        0x0 ../tcpip_test_bsp/\libucosii_bsp.a(os_mem.o)
 .bss           0x04050e7c        0x0 ../tcpip_test_bsp/\libucosii_bsp.a(os_q.o)
 .bss           0x04050e7c        0x0 ../tcpip_test_bsp/\libucosii_bsp.a(os_sem.o)
 .bss           0x04050e7c        0x0 ../tcpip_test_bsp/\libucosii_bsp.a(os_task.o)
 .bss           0x04050e7c        0x0 ../tcpip_test_bsp/\libucosii_bsp.a(os_time.o)
 .bss           0x04050e7c        0x0 ../tcpip_test_bsp/\libucosii_bsp.a(alt_sys_init.o)
 .bss           0x04050e7c        0x0 ../tcpip_test_bsp/\libucosii_bsp.a(altera_avalon_jtag_uart_fd.o)
 .bss           0x04050e7c        0x0 ../tcpip_test_bsp/\libucosii_bsp.a(altera_avalon_jtag_uart_init.o)
 .bss           0x04050e7c        0x0 ../tcpip_test_bsp/\libucosii_bsp.a(altera_avalon_jtag_uart_ioctl.o)
 .bss           0x04050e7c        0x0 ../tcpip_test_bsp/\libucosii_bsp.a(altera_avalon_jtag_uart_read.o)
 .bss           0x04050e7c        0x0 ../tcpip_test_bsp/\libucosii_bsp.a(altera_avalon_jtag_uart_write.o)
 .bss           0x04050e7c        0x0 ../tcpip_test_bsp/\libucosii_bsp.a(altera_avalon_sgdma.o)
 .bss           0x04050e7c        0x0 ../tcpip_test_bsp/\libucosii_bsp.a(altera_avalon_timer_sc.o)
 .bss           0x04050e7c        0x0 ../tcpip_test_bsp/\libucosii_bsp.a(altera_avalon_tse.o)
 .bss           0x04050e7c      0x120 ../tcpip_test_bsp/\libucosii_bsp.a(altera_avalon_tse_system_info.o)
                0x04050e7c                tse_mac_device
 .bss           0x04050f9c        0x0 ../tcpip_test_bsp/\libucosii_bsp.a(ins_tse_mac.o)
 .bss           0x04050f9c        0x0 ../tcpip_test_bsp/\libucosii_bsp.a(alt_iniche_close.o)
 .bss           0x04050f9c        0x0 ../tcpip_test_bsp/\libucosii_bsp.a(alt_iniche_dev.o)
 .bss           0x04050f9c        0x0 ../tcpip_test_bsp/\libucosii_bsp.a(alt_iniche_read.o)
 .bss           0x04050f9c        0x0 ../tcpip_test_bsp/\libucosii_bsp.a(alt_iniche_write.o)
 .bss           0x04050f9c        0x0 ../tcpip_test_bsp/\libucosii_bsp.a(ipnet.o)
 .bss           0x04050f9c       0x3c ../tcpip_test_bsp/\libucosii_bsp.a(ipstart.o)
 .bss           0x04050fd8        0x0 ../tcpip_test_bsp/\libucosii_bsp.a(igmp_cmn.o)
 .bss           0x04050fd8        0x0 ../tcpip_test_bsp/\libucosii_bsp.a(bsdsock.o)
 .bss           0x04050fd8        0x0 ../tcpip_test_bsp/\libucosii_bsp.a(cksum.o)
 .bss           0x04050fd8       0x18 ../tcpip_test_bsp/\libucosii_bsp.a(in_utils.o)
 .bss           0x04050ff0        0x0 ../tcpip_test_bsp/\libucosii_bsp.a(netmain.o)
 .bss           0x04050ff0        0x0 ../tcpip_test_bsp/\libucosii_bsp.a(tk_crnos.o)
 .bss           0x04050ff0        0x0 ../tcpip_test_bsp/\libucosii_bsp.a(dhcpclnt.o)
 .bss           0x04050ff0        0x0 ../tcpip_test_bsp/\libucosii_bsp.a(dhcputil.o)
 .bss           0x04050ff0        0x0 ../tcpip_test_bsp/\libucosii_bsp.a(pktalloc.o)
 .bss           0x04050ff0        0x0 ../tcpip_test_bsp/\libucosii_bsp.a(q.o)
 .bss           0x04050ff0        0x0 ../tcpip_test_bsp/\libucosii_bsp.a(udp_open.o)
 .bss           0x04050ff0        0x0 ../tcpip_test_bsp/\libucosii_bsp.a(asm_cksum.o)
 .bss           0x04050ff0        0x0 ../tcpip_test_bsp/\libucosii_bsp.a(brdutils.o)
 .bss           0x04050ff0        0x0 ../tcpip_test_bsp/\libucosii_bsp.a(osportco.o)
 .bss           0x04050ff0        0x0 ../tcpip_test_bsp/\libucosii_bsp.a(targnios.o)
 .bss           0x04050ff0        0x0 ../tcpip_test_bsp/\libucosii_bsp.a(nptcp.o)
 .bss           0x04050ff0        0x0 ../tcpip_test_bsp/\libucosii_bsp.a(rawsock.o)
 .bss           0x04050ff0        0x0 ../tcpip_test_bsp/\libucosii_bsp.a(sockcall.o)
 .bss           0x04050ff0        0x0 ../tcpip_test_bsp/\libucosii_bsp.a(socket.o)
 .bss           0x04050ff0        0x0 ../tcpip_test_bsp/\libucosii_bsp.a(socket2.o)
 .bss           0x04050ff0        0x0 ../tcpip_test_bsp/\libucosii_bsp.a(soselect.o)
 .bss           0x04050ff0        0x0 ../tcpip_test_bsp/\libucosii_bsp.a(tcp_in.o)
 .bss           0x04050ff0        0x0 ../tcpip_test_bsp/\libucosii_bsp.a(tcp_out.o)
 .bss           0x04050ff0        0x0 ../tcpip_test_bsp/\libucosii_bsp.a(tcp_subr.o)
 .bss           0x04050ff0        0x0 ../tcpip_test_bsp/\libucosii_bsp.a(tcp_timr.o)
 .bss           0x04050ff0        0x0 ../tcpip_test_bsp/\libucosii_bsp.a(tcp_usr.o)
 .bss           0x04050ff0        0x0 ../tcpip_test_bsp/\libucosii_bsp.a(tcpport.o)
 .bss           0x04050ff0        0x0 ../tcpip_test_bsp/\libucosii_bsp.a(udpsock.o)
 .bss           0x04050ff0        0x0 ../tcpip_test_bsp/\libucosii_bsp.a(alt_alarm_start.o)
 .bss           0x04050ff0        0x0 ../tcpip_test_bsp/\libucosii_bsp.a(alt_close.o)
 .bss           0x04050ff0        0x0 ../tcpip_test_bsp/\libucosii_bsp.a(alt_dcache_flush_all.o)
 .bss           0x04050ff0        0x0 ../tcpip_test_bsp/\libucosii_bsp.a(alt_dev.o)
 .bss           0x04050ff0        0x0 ../tcpip_test_bsp/\libucosii_bsp.a(alt_dev_llist_insert.o)
 .bss           0x04050ff0        0x0 ../tcpip_test_bsp/\libucosii_bsp.a(alt_do_ctors.o)
 .bss           0x04050ff0        0x0 ../tcpip_test_bsp/\libucosii_bsp.a(alt_do_dtors.o)
 .bss           0x04050ff0        0x0 ../tcpip_test_bsp/\libucosii_bsp.a(alt_errno.o)
 .bss           0x04050ff0        0x0 ../tcpip_test_bsp/\libucosii_bsp.a(alt_find_dev.o)
 .bss           0x04050ff0        0x0 ../tcpip_test_bsp/\libucosii_bsp.a(alt_icache_flush_all.o)
 .bss           0x04050ff0        0x0 ../tcpip_test_bsp/\libucosii_bsp.a(alt_iic.o)
 .bss           0x04050ff0        0x0 ../tcpip_test_bsp/\libucosii_bsp.a(alt_iic_isr_register.o)
 .bss           0x04050ff0        0x0 ../tcpip_test_bsp/\libucosii_bsp.a(alt_io_redirect.o)
 .bss           0x04050ff0        0x0 ../tcpip_test_bsp/\libucosii_bsp.a(alt_irq_entry.o)
 .bss           0x04050ff0        0x0 ../tcpip_test_bsp/\libucosii_bsp.a(alt_irq_handler.o)
 .bss           0x04050ff0        0x0 ../tcpip_test_bsp/\libucosii_bsp.a(alt_irq_vars.o)
 .bss           0x04050ff0        0x0 ../tcpip_test_bsp/\libucosii_bsp.a(alt_open.o)
 .bss           0x04050ff0        0x0 ../tcpip_test_bsp/\libucosii_bsp.a(alt_read.o)
 .bss           0x04050ff0        0x0 ../tcpip_test_bsp/\libucosii_bsp.a(alt_release_fd.o)
 .bss           0x04050ff0        0x0 ../tcpip_test_bsp/\libucosii_bsp.a(alt_remap_cached.o)
 .bss           0x04050ff0        0x0 ../tcpip_test_bsp/\libucosii_bsp.a(alt_remap_uncached.o)
 .bss           0x04050ff0        0x0 ../tcpip_test_bsp/\libucosii_bsp.a(alt_tick.o)
 .bss           0x04050ff0        0x0 ../tcpip_test_bsp/\libucosii_bsp.a(alt_uncached_malloc.o)
 .bss           0x04050ff0        0x0 ../tcpip_test_bsp/\libucosii_bsp.a(alt_usleep.o)
 .bss           0x04050ff0        0x0 ../tcpip_test_bsp/\libucosii_bsp.a(alt_write.o)
 .bss           0x04050ff0        0x0 ../tcpip_test_bsp/\libucosii_bsp.a(altera_nios2_irq.o)
 .bss           0x04050ff0        0x0 ../tcpip_test_bsp/\libucosii_bsp.a(os_cpu_a.o)
 .bss           0x04050ff0        0x0 ../tcpip_test_bsp/\libucosii_bsp.a(os_cpu_c.o)
 .bss           0x04050ff0        0x0 ../tcpip_test_bsp/\libucosii_bsp.a(allports.o)
 .bss           0x04050ff0        0x0 ../tcpip_test_bsp/\libucosii_bsp.a(timeouts.o)
 .bss           0x04050ff0        0x0 ../tcpip_test_bsp/\libucosii_bsp.a(tk_misc.o)
 .bss           0x04050ff0        0x0 ../tcpip_test_bsp/\libucosii_bsp.a(alt_iniche_fcntl.o)
 .bss           0x04050ff0        0x0 ../tcpip_test_bsp/\libucosii_bsp.a(et_arp.o)
 .bss           0x04050ff0        0x0 ../tcpip_test_bsp/\libucosii_bsp.a(iface.o)
 .bss           0x04050ff0        0x0 ../tcpip_test_bsp/\libucosii_bsp.a(ip.o)
 .bss           0x04050ff0        0x0 ../tcpip_test_bsp/\libucosii_bsp.a(ip_reasm.o)
 .bss           0x04050ff0        0x0 ../tcpip_test_bsp/\libucosii_bsp.a(ipdemux.o)
 .bss           0x04050ff0        0x0 ../tcpip_test_bsp/\libucosii_bsp.a(ipmc.o)
 .bss           0x04050ff0        0x0 ../tcpip_test_bsp/\libucosii_bsp.a(ipport.o)
 .bss           0x04050ff0        0x0 ../tcpip_test_bsp/\libucosii_bsp.a(ipraw.o)
 .bss           0x04050ff0        0x0 ../tcpip_test_bsp/\libucosii_bsp.a(iproute.o)
 .bss           0x04050ff0        0x0 ../tcpip_test_bsp/\libucosii_bsp.a(udp.o)
 .bss           0x04050ff0        0x0 ../tcpip_test_bsp/\libucosii_bsp.a(igmp.o)
 .bss           0x04050ff0        0x0 ../tcpip_test_bsp/\libucosii_bsp.a(igmp2.o)
 .bss           0x04050ff0        0x0 ../tcpip_test_bsp/\libucosii_bsp.a(ipopt.o)
 .bss           0x04050ff0        0x0 ../tcpip_test_bsp/\libucosii_bsp.a(u_mctest.o)
 .bss           0x04050ff0        0x0 ../tcpip_test_bsp/\libucosii_bsp.a(dhcsetup.o)
 .bss           0x04050ff0        0x0 ../tcpip_test_bsp/\libucosii_bsp.a(memdev.o)
 .bss           0x04050ff0       0x1e ../tcpip_test_bsp/\libucosii_bsp.a(parseip.o)
 .bss           0x0405100e        0x0 ../tcpip_test_bsp/\libucosii_bsp.a(tcpcksum.o)
 .bss           0x0405100e        0x0 ../tcpip_test_bsp/\libucosii_bsp.a(in_pcb.o)
 .bss           0x0405100e        0x0 ../tcpip_test_bsp/\libucosii_bsp.a(vfsfiles.o)
 .bss           0x0405100e        0x0 ../tcpip_test_bsp/\libucosii_bsp.a(vfsport.o)
 .bss           0x0405100e        0x0 ../tcpip_test_bsp/\libucosii_bsp.a(alt_busy_sleep.o)
 .bss           0x0405100e        0x0 ../tcpip_test_bsp/\libucosii_bsp.a(alt_dcache_flush.o)
 .bss           0x0405100e        0x0 ../tcpip_test_bsp/\libucosii_bsp.a(alt_exception_entry.o)
 .bss           0x0405100e        0x0 ../tcpip_test_bsp/\libucosii_bsp.a(alt_fcntl.o)
 .bss           0x0405100e        0x0 ../tcpip_test_bsp/\libucosii_bsp.a(alt_find_file.o)
 .bss           0x0405100e        0x0 ../tcpip_test_bsp/\libucosii_bsp.a(alt_get_fd.o)
 .bss           0x0405100e        0x0 ../tcpip_test_bsp/\libucosii_bsp.a(alt_icache_flush.o)
 .bss           0x0405100e        0x0 ../tcpip_test_bsp/\libucosii_bsp.a(icmp.o)
 .bss           0x0405100e        0x0 c:/altera/11.0sp1/nios2eds/bin/gnu/h-i686-mingw32/bin/../lib/gcc/nios2-elf/4.1.2/../../../../nios2-elf/lib\libc.a(lib_a-atexit.o)
 .bss           0x0405100e        0x0 c:/altera/11.0sp1/nios2eds/bin/gnu/h-i686-mingw32/bin/../lib/gcc/nios2-elf/4.1.2/../../../../nios2-elf/lib\libc.a(lib_a-atoi.o)
 .bss           0x0405100e        0x0 c:/altera/11.0sp1/nios2eds/bin/gnu/h-i686-mingw32/bin/../lib/gcc/nios2-elf/4.1.2/../../../../nios2-elf/lib\libc.a(lib_a-calloc.o)
 .bss           0x0405100e        0x0 c:/altera/11.0sp1/nios2eds/bin/gnu/h-i686-mingw32/bin/../lib/gcc/nios2-elf/4.1.2/../../../../nios2-elf/lib\libc.a(lib_a-exit.o)
 .bss           0x0405100e        0x0 c:/altera/11.0sp1/nios2eds/bin/gnu/h-i686-mingw32/bin/../lib/gcc/nios2-elf/4.1.2/../../../../nios2-elf/lib\libc.a(lib_a-getc.o)
 .bss           0x0405100e        0x0 c:/altera/11.0sp1/nios2eds/bin/gnu/h-i686-mingw32/bin/../lib/gcc/nios2-elf/4.1.2/../../../../nios2-elf/lib\libc.a(lib_a-malloc.o)
 .bss           0x0405100e        0x0 c:/altera/11.0sp1/nios2eds/bin/gnu/h-i686-mingw32/bin/../lib/gcc/nios2-elf/4.1.2/../../../../nios2-elf/lib\libc.a(lib_a-memcmp.o)
 .bss           0x0405100e        0x0 c:/altera/11.0sp1/nios2eds/bin/gnu/h-i686-mingw32/bin/../lib/gcc/nios2-elf/4.1.2/../../../../nios2-elf/lib\libc.a(lib_a-rget.o)
 .bss           0x0405100e        0x0 c:/altera/11.0sp1/nios2eds/bin/gnu/h-i686-mingw32/bin/../lib/gcc/nios2-elf/4.1.2/../../../../nios2-elf/lib\libc.a(lib_a-strcpy.o)
 .bss           0x0405100e        0x0 c:/altera/11.0sp1/nios2eds/bin/gnu/h-i686-mingw32/bin/../lib/gcc/nios2-elf/4.1.2/../../../../nios2-elf/lib\libc.a(lib_a-strncmp.o)
 .bss           0x0405100e        0x0 c:/altera/11.0sp1/nios2eds/bin/gnu/h-i686-mingw32/bin/../lib/gcc/nios2-elf/4.1.2/../../../../nios2-elf/lib\libc.a(lib_a-strncpy.o)
 .bss           0x0405100e        0x0 c:/altera/11.0sp1/nios2eds/bin/gnu/h-i686-mingw32/bin/../lib/gcc/nios2-elf/4.1.2/../../../../nios2-elf/lib\libc.a(lib_a-strtol.o)
 .bss           0x0405100e        0x0 c:/altera/11.0sp1/nios2eds/bin/gnu/h-i686-mingw32/bin/../lib/gcc/nios2-elf/4.1.2/../../../../nios2-elf/lib\libc.a(lib_a-vprintf.o)
 .bss           0x0405100e        0x0 c:/altera/11.0sp1/nios2eds/bin/gnu/h-i686-mingw32/bin/../lib/gcc/nios2-elf/4.1.2/../../../../nios2-elf/lib\libc.a(lib_a-vsprintf.o)
 .bss           0x0405100e        0x0 c:/altera/11.0sp1/nios2eds/bin/gnu/h-i686-mingw32/bin/../lib/gcc/nios2-elf/4.1.2/../../../../nios2-elf/lib\libc.a(lib_a-__atexit.o)
 .bss           0x0405100e        0x0 c:/altera/11.0sp1/nios2eds/bin/gnu/h-i686-mingw32/bin/../lib/gcc/nios2-elf/4.1.2/../../../../nios2-elf/lib\libc.a(lib_a-__call_atexit.o)
 .bss           0x0405100e        0x0 c:/altera/11.0sp1/nios2eds/bin/gnu/h-i686-mingw32/bin/../lib/gcc/nios2-elf/4.1.2/../../../../nios2-elf/lib\libc.a(lib_a-refill.o)
 .bss           0x0405100e        0x0 ../tcpip_test_bsp/\libucosii_bsp.a(alt_exit.o)
 *(COMMON)
 *fill*         0x0405100e        0x2 00
 COMMON         0x04051010     0x2000 obj/iniche_init.o
                0x04051010                SSSInitialTaskStk
 COMMON         0x04053010     0x2078 obj/simple_socket_server.o
                0x04053010                SSSLEDCommandQTbl
                0x04053088                LEDManagementTaskStk
 COMMON         0x04055088     0x3224 ../tcpip_test_bsp/\libucosii_bsp.a(os_core.o)
                0x04055088                OSFlagTbl
                0x040553f8                OSMemTbl
                0x04056028                OSTaskStatStk
                0x04056828                OSQTbl
                0x04056a08                OSTaskIdleStk
                0x04057208                OSEventTbl
                0x04057d48                OSTCBTbl
                0x04058258                OSTCBPrioTbl
 COMMON         0x040582ac       0xe0 ../tcpip_test_bsp/\libucosii_bsp.a(alt_sys_init.o)
                0x040582ac                ethernet_1_if
 COMMON         0x0405838c       0x20 ../tcpip_test_bsp/\libucosii_bsp.a(altera_avalon_tse.o)
                0x0405838c                pmac_groups
                0x0405839c                pphy_profiles
 COMMON         0x040583ac      0x160 ../tcpip_test_bsp/\libucosii_bsp.a(ins_tse_mac.o)
                0x040583ac                tse_iniche_dev_driver_data
                0x040583dc                tse
 COMMON         0x0405850c       0x14 ../tcpip_test_bsp/\libucosii_bsp.a(ipnet.o)
                0x0405850c                rcvdq
 COMMON         0x04058520      0x310 ../tcpip_test_bsp/\libucosii_bsp.a(ipstart.o)
                0x04058520                netstatic
                0x04058820                nets
 COMMON         0x04058830       0x64 ../tcpip_test_bsp/\libucosii_bsp.a(igmp_cmn.o)
                0x04058830                igmpstats
 COMMON         0x04058894       0x24 ../tcpip_test_bsp/\libucosii_bsp.a(in_utils.o)
                0x04058894                eth_prt_buf
                0x040588a6                ipreturn
 COMMON         0x040588b8       0xf0 ../tcpip_test_bsp/\libucosii_bsp.a(dhcpclnt.o)
                0x040588b8                dhc_states
 COMMON         0x040589a8      0x128 ../tcpip_test_bsp/\libucosii_bsp.a(pktalloc.o)
                0x040589a8                lilfreeq
                0x040589bc                memestats
                0x040589cc                pktlog
                0x04058abc                bigfreeq
 COMMON         0x04058ad0      0x1ec ../tcpip_test_bsp/\libucosii_bsp.a(osportco.o)
                0x04058ad0                global_tcb_ext
                0x04058bcc                global_TCPwakeup_set
 COMMON         0x04058cbc       0x58 ../tcpip_test_bsp/\libucosii_bsp.a(targnios.o)
                0x04058cbc                resid_semaphore
                0x04058cfc                app_semaphore
 COMMON         0x04058d14       0x78 ../tcpip_test_bsp/\libucosii_bsp.a(nptcp.o)
                0x04058d14                soq
                0x04058d28                tcpmib
                0x04058d64                mbufq
                0x04058d78                mfreeq
 COMMON         0x04058d8c       0x28 ../tcpip_test_bsp/\libucosii_bsp.a(tcp_in.o)
                0x04058d8c                tcp_saveti
 COMMON         0x04058db4      0x10c ../tcpip_test_bsp/\libucosii_bsp.a(tcp_subr.o)
                0x04058db4                tcb
                0x04058de0                tcpstat
 COMMON         0x04058ec0      0x100 ../tcpip_test_bsp/\libucosii_bsp.a(alt_irq_handler.o)
                0x04058ec0                alt_irq
 COMMON         0x04058fc0       0x64 ../tcpip_test_bsp/\libucosii_bsp.a(timeouts.o)
                0x04058fc0                intimers
 COMMON         0x04059024      0x100 ../tcpip_test_bsp/\libucosii_bsp.a(et_arp.o)
                0x04059024                arp_table
 COMMON         0x04059124       0x14 ../tcpip_test_bsp/\libucosii_bsp.a(iface.o)
                0x04059124                netlist
 COMMON         0x04059138       0x50 ../tcpip_test_bsp/\libucosii_bsp.a(ip.o)
                0x04059138                ip_mib
 COMMON         0x04059188       0x18 ../tcpip_test_bsp/\libucosii_bsp.a(ip_reasm.o)
                0x04059188                ire_stats
 COMMON         0x040591a0       0x10 ../tcpip_test_bsp/\libucosii_bsp.a(udp.o)
                0x040591a0                udp_mib
 COMMON         0x040591b0       0x68 ../tcpip_test_bsp/\libucosii_bsp.a(icmp.o)
                0x040591b0                icmp_mib
 COMMON         0x04059218      0x190 c:/altera/11.0sp1/nios2eds/bin/gnu/h-i686-mingw32/bin/../lib/gcc/nios2-elf/4.1.2/../../../../nios2-elf/lib\libc.a(lib_a-atexit.o)
                0x04059218                _atexit0
                0x040593a8                . = ALIGN (0x4)
                0x040593a8                __bss_end = ABSOLUTE (.)

.sdram          0x040593a8        0x0
                0x040593a8                PROVIDE (_alt_partition_sdram_start, ABSOLUTE (.))
 *(.sdram. sdram.*)
                0x040593a8                . = ALIGN (0x4)
                0x040593a8                PROVIDE (_alt_partition_sdram_end, ABSOLUTE (.))
                0x040593a8                _end = ABSOLUTE (.)
                0x040593a8                end = ABSOLUTE (.)
                0x040593a8                __alt_stack_base = ABSOLUTE (.)
                0x040593a8                PROVIDE (_alt_partition_sdram_load_addr, LOADADDR (.sdram))

.stab
 *(.stab)

.stabstr
 *(.stabstr)

.stab.excl
 *(.stab.excl)

.stab.exclstr
 *(.stab.exclstr)

.stab.index
 *(.stab.index)

.stab.indexstr
 *(.stab.indexstr)

.comment        0x00000000       0x26
 *(.comment)
 .comment       0x00000000       0x26 obj/alt_error_handler.o
                                 0x27 (size before relaxing)
 .comment       0x00000000       0x27 obj/iniche_init.o
 .comment       0x00000000       0x27 obj/led.o
 .comment       0x00000000       0x27 obj/network_utilities.o
 .comment       0x00000000       0x27 obj/simple_socket_server.o
 .comment       0x00000000       0x27 obj/tse_my_system.o
 .comment       0x00000000       0x27 c:/altera/11.0sp1/nios2eds/bin/gnu/h-i686-mingw32/bin/../lib/gcc/nios2-elf/4.1.2/../../../../nios2-elf/lib\libc.a(lib_a-ctype_.o)
 .comment       0x00000000       0x27 c:/altera/11.0sp1/nios2eds/bin/gnu/h-i686-mingw32/bin/../lib/gcc/nios2-elf/4.1.2/../../../../nios2-elf/lib\libc.a(lib_a-fprintf.o)
 .comment       0x00000000       0x27 c:/altera/11.0sp1/nios2eds/bin/gnu/h-i686-mingw32/bin/../lib/gcc/nios2-elf/4.1.2/../../../../nios2-elf/lib\libc.a(lib_a-fwrite.o)
 .comment       0x00000000       0x27 c:/altera/11.0sp1/nios2eds/bin/gnu/h-i686-mingw32/bin/../lib/gcc/nios2-elf/4.1.2/../../../../nios2-elf/lib\libc.a(lib_a-impure.o)
 .comment       0x00000000       0x27 c:/altera/11.0sp1/nios2eds/bin/gnu/h-i686-mingw32/bin/../lib/gcc/nios2-elf/4.1.2/../../../../nios2-elf/lib\libc.a(lib_a-memcpy.o)
 .comment       0x00000000       0x27 c:/altera/11.0sp1/nios2eds/bin/gnu/h-i686-mingw32/bin/../lib/gcc/nios2-elf/4.1.2/../../../../nios2-elf/lib\libc.a(lib_a-memmove.o)
 .comment       0x00000000       0x27 c:/altera/11.0sp1/nios2eds/bin/gnu/h-i686-mingw32/bin/../lib/gcc/nios2-elf/4.1.2/../../../../nios2-elf/lib\libc.a(lib_a-memset.o)
 .comment       0x00000000       0x27 c:/altera/11.0sp1/nios2eds/bin/gnu/h-i686-mingw32/bin/../lib/gcc/nios2-elf/4.1.2/../../../../nios2-elf/lib\libc.a(lib_a-perror.o)
 .comment       0x00000000       0x27 c:/altera/11.0sp1/nios2eds/bin/gnu/h-i686-mingw32/bin/../lib/gcc/nios2-elf/4.1.2/../../../../nios2-elf/lib\libc.a(lib_a-printf.o)
 .comment       0x00000000       0x27 c:/altera/11.0sp1/nios2eds/bin/gnu/h-i686-mingw32/bin/../lib/gcc/nios2-elf/4.1.2/../../../../nios2-elf/lib\libc.a(lib_a-puts.o)
 .comment       0x00000000       0x27 c:/altera/11.0sp1/nios2eds/bin/gnu/h-i686-mingw32/bin/../lib/gcc/nios2-elf/4.1.2/../../../../nios2-elf/lib\libc.a(lib_a-sprintf.o)
 .comment       0x00000000       0x27 c:/altera/11.0sp1/nios2eds/bin/gnu/h-i686-mingw32/bin/../lib/gcc/nios2-elf/4.1.2/../../../../nios2-elf/lib\libc.a(lib_a-strchr.o)
 .comment       0x00000000       0x27 c:/altera/11.0sp1/nios2eds/bin/gnu/h-i686-mingw32/bin/../lib/gcc/nios2-elf/4.1.2/../../../../nios2-elf/lib\libc.a(lib_a-strerror.o)
 .comment       0x00000000       0x27 c:/altera/11.0sp1/nios2eds/bin/gnu/h-i686-mingw32/bin/../lib/gcc/nios2-elf/4.1.2/../../../../nios2-elf/lib\libc.a(lib_a-strlen.o)
 .comment       0x00000000       0x27 c:/altera/11.0sp1/nios2eds/bin/gnu/h-i686-mingw32/bin/../lib/gcc/nios2-elf/4.1.2/../../../../nios2-elf/lib\libc.a(lib_a-u_strerr.o)
 .comment       0x00000000       0x27 c:/altera/11.0sp1/nios2eds/bin/gnu/h-i686-mingw32/bin/../lib/gcc/nios2-elf/4.1.2/../../../../nios2-elf/lib\libc.a(lib_a-vfprintf.o)
 .comment       0x00000000       0x27 c:/altera/11.0sp1/nios2eds/bin/gnu/h-i686-mingw32/bin/../lib/gcc/nios2-elf/4.1.2/../../../../nios2-elf/lib\libc.a(lib_a-wsetup.o)
 .comment       0x00000000       0x27 c:/altera/11.0sp1/nios2eds/bin/gnu/h-i686-mingw32/bin/../lib/gcc/nios2-elf/4.1.2/../../../../nios2-elf/lib\libc.a(lib_a-dtoa.o)
 .comment       0x00000000       0x27 c:/altera/11.0sp1/nios2eds/bin/gnu/h-i686-mingw32/bin/../lib/gcc/nios2-elf/4.1.2/../../../../nios2-elf/lib\libc.a(lib_a-fflush.o)
 .comment       0x00000000       0x27 c:/altera/11.0sp1/nios2eds/bin/gnu/h-i686-mingw32/bin/../lib/gcc/nios2-elf/4.1.2/../../../../nios2-elf/lib\libc.a(lib_a-findfp.o)
 .comment       0x00000000       0x27 c:/altera/11.0sp1/nios2eds/bin/gnu/h-i686-mingw32/bin/../lib/gcc/nios2-elf/4.1.2/../../../../nios2-elf/lib\libc.a(lib_a-fputc.o)
 .comment       0x00000000       0x27 c:/altera/11.0sp1/nios2eds/bin/gnu/h-i686-mingw32/bin/../lib/gcc/nios2-elf/4.1.2/../../../../nios2-elf/lib\libc.a(lib_a-fputs.o)
 .comment       0x00000000       0x27 c:/altera/11.0sp1/nios2eds/bin/gnu/h-i686-mingw32/bin/../lib/gcc/nios2-elf/4.1.2/../../../../nios2-elf/lib\libc.a(lib_a-freer.o)
 .comment       0x00000000       0x27 c:/altera/11.0sp1/nios2eds/bin/gnu/h-i686-mingw32/bin/../lib/gcc/nios2-elf/4.1.2/../../../../nios2-elf/lib\libc.a(lib_a-fvwrite.o)
 .comment       0x00000000       0x27 c:/altera/11.0sp1/nios2eds/bin/gnu/h-i686-mingw32/bin/../lib/gcc/nios2-elf/4.1.2/../../../../nios2-elf/lib\libc.a(lib_a-fwalk.o)
 .comment       0x00000000       0x27 c:/altera/11.0sp1/nios2eds/bin/gnu/h-i686-mingw32/bin/../lib/gcc/nios2-elf/4.1.2/../../../../nios2-elf/lib\libc.a(lib_a-locale.o)
 .comment       0x00000000       0x27 c:/altera/11.0sp1/nios2eds/bin/gnu/h-i686-mingw32/bin/../lib/gcc/nios2-elf/4.1.2/../../../../nios2-elf/lib\libc.a(lib_a-makebuf.o)
 .comment       0x00000000       0x27 c:/altera/11.0sp1/nios2eds/bin/gnu/h-i686-mingw32/bin/../lib/gcc/nios2-elf/4.1.2/../../../../nios2-elf/lib\libc.a(lib_a-mallocr.o)
 .comment       0x00000000       0x27 c:/altera/11.0sp1/nios2eds/bin/gnu/h-i686-mingw32/bin/../lib/gcc/nios2-elf/4.1.2/../../../../nios2-elf/lib\libc.a(lib_a-memchr.o)
 .comment       0x00000000       0x27 c:/altera/11.0sp1/nios2eds/bin/gnu/h-i686-mingw32/bin/../lib/gcc/nios2-elf/4.1.2/../../../../nios2-elf/lib\libc.a(lib_a-mprec.o)
 .comment       0x00000000       0x27 c:/altera/11.0sp1/nios2eds/bin/gnu/h-i686-mingw32/bin/../lib/gcc/nios2-elf/4.1.2/../../../../nios2-elf/lib\libc.a(lib_a-putc.o)
 .comment       0x00000000       0x27 c:/altera/11.0sp1/nios2eds/bin/gnu/h-i686-mingw32/bin/../lib/gcc/nios2-elf/4.1.2/../../../../nios2-elf/lib\libc.a(lib_a-reallocr.o)
 .comment       0x00000000       0x27 c:/altera/11.0sp1/nios2eds/bin/gnu/h-i686-mingw32/bin/../lib/gcc/nios2-elf/4.1.2/../../../../nios2-elf/lib\libc.a(lib_a-s_isinfd.o)
 .comment       0x00000000       0x27 c:/altera/11.0sp1/nios2eds/bin/gnu/h-i686-mingw32/bin/../lib/gcc/nios2-elf/4.1.2/../../../../nios2-elf/lib\libc.a(lib_a-s_isnand.o)
 .comment       0x00000000       0x27 c:/altera/11.0sp1/nios2eds/bin/gnu/h-i686-mingw32/bin/../lib/gcc/nios2-elf/4.1.2/../../../../nios2-elf/lib\libc.a(lib_a-sbrkr.o)
 .comment       0x00000000       0x27 c:/altera/11.0sp1/nios2eds/bin/gnu/h-i686-mingw32/bin/../lib/gcc/nios2-elf/4.1.2/../../../../nios2-elf/lib\libc.a(lib_a-stdio.o)
 .comment       0x00000000       0x27 c:/altera/11.0sp1/nios2eds/bin/gnu/h-i686-mingw32/bin/../lib/gcc/nios2-elf/4.1.2/../../../../nios2-elf/lib\libc.a(lib_a-strcmp.o)
 .comment       0x00000000       0x27 c:/altera/11.0sp1/nios2eds/bin/gnu/h-i686-mingw32/bin/../lib/gcc/nios2-elf/4.1.2/../../../../nios2-elf/lib\libc.a(lib_a-wbuf.o)
 .comment       0x00000000       0x27 c:/altera/11.0sp1/nios2eds/bin/gnu/h-i686-mingw32/bin/../lib/gcc/nios2-elf/4.1.2/../../../../nios2-elf/lib\libc.a(lib_a-writer.o)
 .comment       0x00000000       0x27 c:/altera/11.0sp1/nios2eds/bin/gnu/h-i686-mingw32/bin/../lib/gcc/nios2-elf/4.1.2/../../../../nios2-elf/lib\libc.a(lib_a-callocr.o)
 .comment       0x00000000       0x27 c:/altera/11.0sp1/nios2eds/bin/gnu/h-i686-mingw32/bin/../lib/gcc/nios2-elf/4.1.2/../../../../nios2-elf/lib\libc.a(lib_a-closer.o)
 .comment       0x00000000       0x27 c:/altera/11.0sp1/nios2eds/bin/gnu/h-i686-mingw32/bin/../lib/gcc/nios2-elf/4.1.2/../../../../nios2-elf/lib\libc.a(lib_a-fclose.o)
 .comment       0x00000000       0x27 c:/altera/11.0sp1/nios2eds/bin/gnu/h-i686-mingw32/bin/../lib/gcc/nios2-elf/4.1.2/../../../../nios2-elf/lib\libc.a(lib_a-fstatr.o)
 .comment       0x00000000       0x27 c:/altera/11.0sp1/nios2eds/bin/gnu/h-i686-mingw32/bin/../lib/gcc/nios2-elf/4.1.2/../../../../nios2-elf/lib\libc.a(lib_a-int_errno.o)
 .comment       0x00000000       0x27 c:/altera/11.0sp1/nios2eds/bin/gnu/h-i686-mingw32/bin/../lib/gcc/nios2-elf/4.1.2/../../../../nios2-elf/lib\libc.a(lib_a-isattyr.o)
 .comment       0x00000000       0x27 c:/altera/11.0sp1/nios2eds/bin/gnu/h-i686-mingw32/bin/../lib/gcc/nios2-elf/4.1.2/../../../../nios2-elf/lib\libc.a(lib_a-lseekr.o)
 .comment       0x00000000       0x27 c:/altera/11.0sp1/nios2eds/bin/gnu/h-i686-mingw32/bin/../lib/gcc/nios2-elf/4.1.2/../../../../nios2-elf/lib\libc.a(lib_a-readr.o)
 .comment       0x00000000       0x27 c:/altera/11.0sp1/nios2eds/bin/gnu/h-i686-mingw32/bin/../lib/gcc/nios2-elf/4.1.2\libgcc.a(_udivdi3.o)
 .comment       0x00000000       0x27 c:/altera/11.0sp1/nios2eds/bin/gnu/h-i686-mingw32/bin/../lib/gcc/nios2-elf/4.1.2\libgcc.a(_umoddi3.o)
 .comment       0x00000000       0x27 c:/altera/11.0sp1/nios2eds/bin/gnu/h-i686-mingw32/bin/../lib/gcc/nios2-elf/4.1.2\libgcc.a(_addsub_df.o)
 .comment       0x00000000       0x27 c:/altera/11.0sp1/nios2eds/bin/gnu/h-i686-mingw32/bin/../lib/gcc/nios2-elf/4.1.2\libgcc.a(_mul_df.o)
 .comment       0x00000000       0x27 c:/altera/11.0sp1/nios2eds/bin/gnu/h-i686-mingw32/bin/../lib/gcc/nios2-elf/4.1.2\libgcc.a(_div_df.o)
 .comment       0x00000000       0x27 c:/altera/11.0sp1/nios2eds/bin/gnu/h-i686-mingw32/bin/../lib/gcc/nios2-elf/4.1.2\libgcc.a(_eq_df.o)
 .comment       0x00000000       0x27 c:/altera/11.0sp1/nios2eds/bin/gnu/h-i686-mingw32/bin/../lib/gcc/nios2-elf/4.1.2\libgcc.a(_ne_df.o)
 .comment       0x00000000       0x27 c:/altera/11.0sp1/nios2eds/bin/gnu/h-i686-mingw32/bin/../lib/gcc/nios2-elf/4.1.2\libgcc.a(_gt_df.o)
 .comment       0x00000000       0x27 c:/altera/11.0sp1/nios2eds/bin/gnu/h-i686-mingw32/bin/../lib/gcc/nios2-elf/4.1.2\libgcc.a(_ge_df.o)
 .comment       0x00000000       0x27 c:/altera/11.0sp1/nios2eds/bin/gnu/h-i686-mingw32/bin/../lib/gcc/nios2-elf/4.1.2\libgcc.a(_lt_df.o)
 .comment       0x00000000       0x27 c:/altera/11.0sp1/nios2eds/bin/gnu/h-i686-mingw32/bin/../lib/gcc/nios2-elf/4.1.2\libgcc.a(_si_to_df.o)
 .comment       0x00000000       0x27 c:/altera/11.0sp1/nios2eds/bin/gnu/h-i686-mingw32/bin/../lib/gcc/nios2-elf/4.1.2\libgcc.a(_df_to_si.o)
 .comment       0x00000000       0x27 c:/altera/11.0sp1/nios2eds/bin/gnu/h-i686-mingw32/bin/../lib/gcc/nios2-elf/4.1.2\libgcc.a(_thenan_df.o)
 .comment       0x00000000       0x27 c:/altera/11.0sp1/nios2eds/bin/gnu/h-i686-mingw32/bin/../lib/gcc/nios2-elf/4.1.2\libgcc.a(_usi_to_df.o)
 .comment       0x00000000       0x27 c:/altera/11.0sp1/nios2eds/bin/gnu/h-i686-mingw32/bin/../lib/gcc/nios2-elf/4.1.2\libgcc.a(lib2-divmod.o)
 .comment       0x00000000       0x27 c:/altera/11.0sp1/nios2eds/bin/gnu/h-i686-mingw32/bin/../lib/gcc/nios2-elf/4.1.2\libgcc.a(_muldi3.o)
 .comment       0x00000000       0x27 c:/altera/11.0sp1/nios2eds/bin/gnu/h-i686-mingw32/bin/../lib/gcc/nios2-elf/4.1.2\libgcc.a(_clz.o)
 .comment       0x00000000       0x27 c:/altera/11.0sp1/nios2eds/bin/gnu/h-i686-mingw32/bin/../lib/gcc/nios2-elf/4.1.2\libgcc.a(_clzsi2.o)
 .comment       0x00000000       0x27 c:/altera/11.0sp1/nios2eds/bin/gnu/h-i686-mingw32/bin/../lib/gcc/nios2-elf/4.1.2\libgcc.a(_pack_df.o)
 .comment       0x00000000       0x27 c:/altera/11.0sp1/nios2eds/bin/gnu/h-i686-mingw32/bin/../lib/gcc/nios2-elf/4.1.2\libgcc.a(_unpack_df.o)
 .comment       0x00000000       0x27 c:/altera/11.0sp1/nios2eds/bin/gnu/h-i686-mingw32/bin/../lib/gcc/nios2-elf/4.1.2\libgcc.a(_fpcmp_parts_df.o)
 .comment       0x00000000       0x27 ../tcpip_test_bsp/\libucosii_bsp.a(alt_fstat.o)
 .comment       0x00000000       0x27 ../tcpip_test_bsp/\libucosii_bsp.a(alt_isatty.o)
 .comment       0x00000000       0x27 ../tcpip_test_bsp/\libucosii_bsp.a(alt_load.o)
 .comment       0x00000000       0x27 ../tcpip_test_bsp/\libucosii_bsp.a(alt_lseek.o)
 .comment       0x00000000       0x27 ../tcpip_test_bsp/\libucosii_bsp.a(alt_main.o)
 .comment       0x00000000       0x27 ../tcpip_test_bsp/\libucosii_bsp.a(alt_sbrk.o)
 .comment       0x00000000       0x27 ../tcpip_test_bsp/\libucosii_bsp.a(alt_env_lock.o)
 .comment       0x00000000       0x27 ../tcpip_test_bsp/\libucosii_bsp.a(alt_malloc_lock.o)
 .comment       0x00000000       0x27 ../tcpip_test_bsp/\libucosii_bsp.a(os_core.o)
 .comment       0x00000000       0x27 ../tcpip_test_bsp/\libucosii_bsp.a(os_dbg.o)
 .comment       0x00000000       0x27 ../tcpip_test_bsp/\libucosii_bsp.a(os_flag.o)
 .comment       0x00000000       0x27 ../tcpip_test_bsp/\libucosii_bsp.a(os_mem.o)
 .comment       0x00000000       0x27 ../tcpip_test_bsp/\libucosii_bsp.a(os_q.o)
 .comment       0x00000000       0x27 ../tcpip_test_bsp/\libucosii_bsp.a(os_sem.o)
 .comment       0x00000000       0x27 ../tcpip_test_bsp/\libucosii_bsp.a(os_task.o)
 .comment       0x00000000       0x27 ../tcpip_test_bsp/\libucosii_bsp.a(os_time.o)
 .comment       0x00000000       0x27 ../tcpip_test_bsp/\libucosii_bsp.a(alt_sys_init.o)
 .comment       0x00000000       0x27 ../tcpip_test_bsp/\libucosii_bsp.a(altera_avalon_jtag_uart_fd.o)
 .comment       0x00000000       0x27 ../tcpip_test_bsp/\libucosii_bsp.a(altera_avalon_jtag_uart_init.o)
 .comment       0x00000000       0x27 ../tcpip_test_bsp/\libucosii_bsp.a(altera_avalon_jtag_uart_ioctl.o)
 .comment       0x00000000       0x27 ../tcpip_test_bsp/\libucosii_bsp.a(altera_avalon_jtag_uart_read.o)
 .comment       0x00000000       0x27 ../tcpip_test_bsp/\libucosii_bsp.a(altera_avalon_jtag_uart_write.o)
 .comment       0x00000000       0x27 ../tcpip_test_bsp/\libucosii_bsp.a(altera_avalon_sgdma.o)
 .comment       0x00000000       0x27 ../tcpip_test_bsp/\libucosii_bsp.a(altera_avalon_timer_sc.o)
 .comment       0x00000000       0x27 ../tcpip_test_bsp/\libucosii_bsp.a(altera_avalon_tse.o)
 .comment       0x00000000       0x27 ../tcpip_test_bsp/\libucosii_bsp.a(altera_avalon_tse_system_info.o)
 .comment       0x00000000       0x27 ../tcpip_test_bsp/\libucosii_bsp.a(ins_tse_mac.o)
 .comment       0x00000000       0x27 ../tcpip_test_bsp/\libucosii_bsp.a(alt_iniche_close.o)
 .comment       0x00000000       0x27 ../tcpip_test_bsp/\libucosii_bsp.a(alt_iniche_dev.o)
 .comment       0x00000000       0x27 ../tcpip_test_bsp/\libucosii_bsp.a(alt_iniche_read.o)
 .comment       0x00000000       0x27 ../tcpip_test_bsp/\libucosii_bsp.a(alt_iniche_write.o)
 .comment       0x00000000       0x27 ../tcpip_test_bsp/\libucosii_bsp.a(ipnet.o)
 .comment       0x00000000       0x27 ../tcpip_test_bsp/\libucosii_bsp.a(ipstart.o)
 .comment       0x00000000       0x27 ../tcpip_test_bsp/\libucosii_bsp.a(igmp_cmn.o)
 .comment       0x00000000       0x27 ../tcpip_test_bsp/\libucosii_bsp.a(bsdsock.o)
 .comment       0x00000000       0x27 ../tcpip_test_bsp/\libucosii_bsp.a(cksum.o)
 .comment       0x00000000       0x27 ../tcpip_test_bsp/\libucosii_bsp.a(in_utils.o)
 .comment       0x00000000       0x27 ../tcpip_test_bsp/\libucosii_bsp.a(netmain.o)
 .comment       0x00000000       0x27 ../tcpip_test_bsp/\libucosii_bsp.a(tk_crnos.o)
 .comment       0x00000000       0x27 ../tcpip_test_bsp/\libucosii_bsp.a(dhcpclnt.o)
 .comment       0x00000000       0x27 ../tcpip_test_bsp/\libucosii_bsp.a(dhcputil.o)
 .comment       0x00000000       0x27 ../tcpip_test_bsp/\libucosii_bsp.a(pktalloc.o)
 .comment       0x00000000       0x27 ../tcpip_test_bsp/\libucosii_bsp.a(q.o)
 .comment       0x00000000       0x27 ../tcpip_test_bsp/\libucosii_bsp.a(udp_open.o)
 .comment       0x00000000       0x27 ../tcpip_test_bsp/\libucosii_bsp.a(brdutils.o)
 .comment       0x00000000       0x27 ../tcpip_test_bsp/\libucosii_bsp.a(osportco.o)
 .comment       0x00000000       0x27 ../tcpip_test_bsp/\libucosii_bsp.a(targnios.o)
 .comment       0x00000000       0x27 ../tcpip_test_bsp/\libucosii_bsp.a(nptcp.o)
 .comment       0x00000000       0x27 ../tcpip_test_bsp/\libucosii_bsp.a(rawsock.o)
 .comment       0x00000000       0x27 ../tcpip_test_bsp/\libucosii_bsp.a(sockcall.o)
 .comment       0x00000000       0x27 ../tcpip_test_bsp/\libucosii_bsp.a(socket.o)
 .comment       0x00000000       0x27 ../tcpip_test_bsp/\libucosii_bsp.a(socket2.o)
 .comment       0x00000000       0x27 ../tcpip_test_bsp/\libucosii_bsp.a(soselect.o)
 .comment       0x00000000       0x27 ../tcpip_test_bsp/\libucosii_bsp.a(tcp_in.o)
 .comment       0x00000000       0x27 ../tcpip_test_bsp/\libucosii_bsp.a(tcp_out.o)
 .comment       0x00000000       0x27 ../tcpip_test_bsp/\libucosii_bsp.a(tcp_subr.o)
 .comment       0x00000000       0x27 ../tcpip_test_bsp/\libucosii_bsp.a(tcp_timr.o)
 .comment       0x00000000       0x27 ../tcpip_test_bsp/\libucosii_bsp.a(tcp_usr.o)
 .comment       0x00000000       0x27 ../tcpip_test_bsp/\libucosii_bsp.a(tcpport.o)
 .comment       0x00000000       0x27 ../tcpip_test_bsp/\libucosii_bsp.a(udpsock.o)
 .comment       0x00000000       0x27 ../tcpip_test_bsp/\libucosii_bsp.a(alt_alarm_start.o)
 .comment       0x00000000       0x27 ../tcpip_test_bsp/\libucosii_bsp.a(alt_close.o)
 .comment       0x00000000       0x27 ../tcpip_test_bsp/\libucosii_bsp.a(alt_dcache_flush_all.o)
 .comment       0x00000000       0x27 ../tcpip_test_bsp/\libucosii_bsp.a(alt_dev.o)
 .comment       0x00000000       0x27 ../tcpip_test_bsp/\libucosii_bsp.a(alt_dev_llist_insert.o)
 .comment       0x00000000       0x27 ../tcpip_test_bsp/\libucosii_bsp.a(alt_do_ctors.o)
 .comment       0x00000000       0x27 ../tcpip_test_bsp/\libucosii_bsp.a(alt_do_dtors.o)
 .comment       0x00000000       0x27 ../tcpip_test_bsp/\libucosii_bsp.a(alt_errno.o)
 .comment       0x00000000       0x27 ../tcpip_test_bsp/\libucosii_bsp.a(alt_find_dev.o)
 .comment       0x00000000       0x27 ../tcpip_test_bsp/\libucosii_bsp.a(alt_icache_flush_all.o)
 .comment       0x00000000       0x27 ../tcpip_test_bsp/\libucosii_bsp.a(alt_iic.o)
 .comment       0x00000000       0x27 ../tcpip_test_bsp/\libucosii_bsp.a(alt_iic_isr_register.o)
 .comment       0x00000000       0x27 ../tcpip_test_bsp/\libucosii_bsp.a(alt_io_redirect.o)
 .comment       0x00000000       0x27 ../tcpip_test_bsp/\libucosii_bsp.a(alt_irq_handler.o)
 .comment       0x00000000       0x27 ../tcpip_test_bsp/\libucosii_bsp.a(alt_irq_vars.o)
 .comment       0x00000000       0x27 ../tcpip_test_bsp/\libucosii_bsp.a(alt_open.o)
 .comment       0x00000000       0x27 ../tcpip_test_bsp/\libucosii_bsp.a(alt_read.o)
 .comment       0x00000000       0x27 ../tcpip_test_bsp/\libucosii_bsp.a(alt_release_fd.o)
 .comment       0x00000000       0x27 ../tcpip_test_bsp/\libucosii_bsp.a(alt_remap_cached.o)
 .comment       0x00000000       0x27 ../tcpip_test_bsp/\libucosii_bsp.a(alt_remap_uncached.o)
 .comment       0x00000000       0x27 ../tcpip_test_bsp/\libucosii_bsp.a(alt_tick.o)
 .comment       0x00000000       0x27 ../tcpip_test_bsp/\libucosii_bsp.a(alt_uncached_malloc.o)
 .comment       0x00000000       0x27 ../tcpip_test_bsp/\libucosii_bsp.a(alt_usleep.o)
 .comment       0x00000000       0x27 ../tcpip_test_bsp/\libucosii_bsp.a(alt_write.o)
 .comment       0x00000000       0x27 ../tcpip_test_bsp/\libucosii_bsp.a(altera_nios2_irq.o)
 .comment       0x00000000       0x27 ../tcpip_test_bsp/\libucosii_bsp.a(os_cpu_c.o)
 .comment       0x00000000       0x27 ../tcpip_test_bsp/\libucosii_bsp.a(allports.o)
 .comment       0x00000000       0x27 ../tcpip_test_bsp/\libucosii_bsp.a(timeouts.o)
 .comment       0x00000000       0x27 ../tcpip_test_bsp/\libucosii_bsp.a(tk_misc.o)
 .comment       0x00000000       0x27 ../tcpip_test_bsp/\libucosii_bsp.a(alt_iniche_fcntl.o)
 .comment       0x00000000       0x27 ../tcpip_test_bsp/\libucosii_bsp.a(et_arp.o)
 .comment       0x00000000       0x27 ../tcpip_test_bsp/\libucosii_bsp.a(iface.o)
 .comment       0x00000000       0x27 ../tcpip_test_bsp/\libucosii_bsp.a(ip.o)
 .comment       0x00000000       0x27 ../tcpip_test_bsp/\libucosii_bsp.a(ip_reasm.o)
 .comment       0x00000000       0x27 ../tcpip_test_bsp/\libucosii_bsp.a(ipdemux.o)
 .comment       0x00000000       0x27 ../tcpip_test_bsp/\libucosii_bsp.a(ipmc.o)
 .comment       0x00000000       0x27 ../tcpip_test_bsp/\libucosii_bsp.a(ipport.o)
 .comment       0x00000000       0x27 ../tcpip_test_bsp/\libucosii_bsp.a(ipraw.o)
 .comment       0x00000000       0x27 ../tcpip_test_bsp/\libucosii_bsp.a(iproute.o)
 .comment       0x00000000       0x27 ../tcpip_test_bsp/\libucosii_bsp.a(udp.o)
 .comment       0x00000000       0x27 ../tcpip_test_bsp/\libucosii_bsp.a(igmp.o)
 .comment       0x00000000       0x27 ../tcpip_test_bsp/\libucosii_bsp.a(igmp2.o)
 .comment       0x00000000       0x27 ../tcpip_test_bsp/\libucosii_bsp.a(ipopt.o)
 .comment       0x00000000       0x27 ../tcpip_test_bsp/\libucosii_bsp.a(u_mctest.o)
 .comment       0x00000000       0x27 ../tcpip_test_bsp/\libucosii_bsp.a(dhcsetup.o)
 .comment       0x00000000       0x27 ../tcpip_test_bsp/\libucosii_bsp.a(memdev.o)
 .comment       0x00000000       0x27 ../tcpip_test_bsp/\libucosii_bsp.a(parseip.o)
 .comment       0x00000000       0x27 ../tcpip_test_bsp/\libucosii_bsp.a(tcpcksum.o)
 .comment       0x00000000       0x27 ../tcpip_test_bsp/\libucosii_bsp.a(in_pcb.o)
 .comment       0x00000000       0x27 ../tcpip_test_bsp/\libucosii_bsp.a(vfsfiles.o)
 .comment       0x00000000       0x27 ../tcpip_test_bsp/\libucosii_bsp.a(vfsport.o)
 .comment       0x00000000       0x27 ../tcpip_test_bsp/\libucosii_bsp.a(alt_busy_sleep.o)
 .comment       0x00000000       0x27 ../tcpip_test_bsp/\libucosii_bsp.a(alt_dcache_flush.o)
 .comment       0x00000000       0x27 ../tcpip_test_bsp/\libucosii_bsp.a(alt_fcntl.o)
 .comment       0x00000000       0x27 ../tcpip_test_bsp/\libucosii_bsp.a(alt_find_file.o)
 .comment       0x00000000       0x27 ../tcpip_test_bsp/\libucosii_bsp.a(alt_get_fd.o)
 .comment       0x00000000       0x27 ../tcpip_test_bsp/\libucosii_bsp.a(alt_icache_flush.o)
 .comment       0x00000000       0x27 ../tcpip_test_bsp/\libucosii_bsp.a(icmp.o)
 .comment       0x00000000       0x27 c:/altera/11.0sp1/nios2eds/bin/gnu/h-i686-mingw32/bin/../lib/gcc/nios2-elf/4.1.2/../../../../nios2-elf/lib\libc.a(lib_a-atexit.o)
 .comment       0x00000000       0x27 c:/altera/11.0sp1/nios2eds/bin/gnu/h-i686-mingw32/bin/../lib/gcc/nios2-elf/4.1.2/../../../../nios2-elf/lib\libc.a(lib_a-atoi.o)
 .comment       0x00000000       0x27 c:/altera/11.0sp1/nios2eds/bin/gnu/h-i686-mingw32/bin/../lib/gcc/nios2-elf/4.1.2/../../../../nios2-elf/lib\libc.a(lib_a-calloc.o)
 .comment       0x00000000       0x27 c:/altera/11.0sp1/nios2eds/bin/gnu/h-i686-mingw32/bin/../lib/gcc/nios2-elf/4.1.2/../../../../nios2-elf/lib\libc.a(lib_a-exit.o)
 .comment       0x00000000       0x27 c:/altera/11.0sp1/nios2eds/bin/gnu/h-i686-mingw32/bin/../lib/gcc/nios2-elf/4.1.2/../../../../nios2-elf/lib\libc.a(lib_a-getc.o)
 .comment       0x00000000       0x27 c:/altera/11.0sp1/nios2eds/bin/gnu/h-i686-mingw32/bin/../lib/gcc/nios2-elf/4.1.2/../../../../nios2-elf/lib\libc.a(lib_a-malloc.o)
 .comment       0x00000000       0x27 c:/altera/11.0sp1/nios2eds/bin/gnu/h-i686-mingw32/bin/../lib/gcc/nios2-elf/4.1.2/../../../../nios2-elf/lib\libc.a(lib_a-memcmp.o)
 .comment       0x00000000       0x27 c:/altera/11.0sp1/nios2eds/bin/gnu/h-i686-mingw32/bin/../lib/gcc/nios2-elf/4.1.2/../../../../nios2-elf/lib\libc.a(lib_a-rget.o)
 .comment       0x00000000       0x27 c:/altera/11.0sp1/nios2eds/bin/gnu/h-i686-mingw32/bin/../lib/gcc/nios2-elf/4.1.2/../../../../nios2-elf/lib\libc.a(lib_a-strcpy.o)
 .comment       0x00000000       0x27 c:/altera/11.0sp1/nios2eds/bin/gnu/h-i686-mingw32/bin/../lib/gcc/nios2-elf/4.1.2/../../../../nios2-elf/lib\libc.a(lib_a-strncmp.o)
 .comment       0x00000000       0x27 c:/altera/11.0sp1/nios2eds/bin/gnu/h-i686-mingw32/bin/../lib/gcc/nios2-elf/4.1.2/../../../../nios2-elf/lib\libc.a(lib_a-strncpy.o)
 .comment       0x00000000       0x27 c:/altera/11.0sp1/nios2eds/bin/gnu/h-i686-mingw32/bin/../lib/gcc/nios2-elf/4.1.2/../../../../nios2-elf/lib\libc.a(lib_a-strtol.o)
 .comment       0x00000000       0x27 c:/altera/11.0sp1/nios2eds/bin/gnu/h-i686-mingw32/bin/../lib/gcc/nios2-elf/4.1.2/../../../../nios2-elf/lib\libc.a(lib_a-vprintf.o)
 .comment       0x00000000       0x27 c:/altera/11.0sp1/nios2eds/bin/gnu/h-i686-mingw32/bin/../lib/gcc/nios2-elf/4.1.2/../../../../nios2-elf/lib\libc.a(lib_a-vsprintf.o)
 .comment       0x00000000       0x27 c:/altera/11.0sp1/nios2eds/bin/gnu/h-i686-mingw32/bin/../lib/gcc/nios2-elf/4.1.2/../../../../nios2-elf/lib\libc.a(lib_a-__atexit.o)
 .comment       0x00000000       0x27 c:/altera/11.0sp1/nios2eds/bin/gnu/h-i686-mingw32/bin/../lib/gcc/nios2-elf/4.1.2/../../../../nios2-elf/lib\libc.a(lib_a-__call_atexit.o)
 .comment       0x00000000       0x27 c:/altera/11.0sp1/nios2eds/bin/gnu/h-i686-mingw32/bin/../lib/gcc/nios2-elf/4.1.2/../../../../nios2-elf/lib\libc.a(lib_a-refill.o)
 .comment       0x00000000       0x27 ../tcpip_test_bsp/\libucosii_bsp.a(alt_exit.o)

.debug
 *(.debug)

.line
 *(.line)

.debug_srcinfo
 *(.debug_srcinfo)

.debug_sfnames
 *(.debug_sfnames)

.debug_aranges  0x00000000     0x1a18
 *(.debug_aranges)
 .debug_aranges
                0x00000000       0x28 ../tcpip_test_bsp//obj/HAL/src/crt0.o
 .debug_aranges
                0x00000028       0x20 obj/alt_error_handler.o
 .debug_aranges
                0x00000048       0x20 obj/iniche_init.o
 .debug_aranges
                0x00000068       0x20 obj/led.o
 .debug_aranges
                0x00000088       0x20 obj/network_utilities.o
 .debug_aranges
                0x000000a8       0x20 obj/simple_socket_server.o
 .debug_aranges
                0x000000c8       0x20 obj/tse_my_system.o
 .debug_aranges
                0x000000e8       0x20 c:/altera/11.0sp1/nios2eds/bin/gnu/h-i686-mingw32/bin/../lib/gcc/nios2-elf/4.1.2/../../../../nios2-elf/lib\libc.a(lib_a-fprintf.o)
 .debug_aranges
                0x00000108       0x20 c:/altera/11.0sp1/nios2eds/bin/gnu/h-i686-mingw32/bin/../lib/gcc/nios2-elf/4.1.2/../../../../nios2-elf/lib\libc.a(lib_a-fwrite.o)
 .debug_aranges
                0x00000128       0x20 c:/altera/11.0sp1/nios2eds/bin/gnu/h-i686-mingw32/bin/../lib/gcc/nios2-elf/4.1.2/../../../../nios2-elf/lib\libc.a(lib_a-memcpy.o)
 .debug_aranges
                0x00000148       0x20 c:/altera/11.0sp1/nios2eds/bin/gnu/h-i686-mingw32/bin/../lib/gcc/nios2-elf/4.1.2/../../../../nios2-elf/lib\libc.a(lib_a-memmove.o)
 .debug_aranges
                0x00000168       0x20 c:/altera/11.0sp1/nios2eds/bin/gnu/h-i686-mingw32/bin/../lib/gcc/nios2-elf/4.1.2/../../../../nios2-elf/lib\libc.a(lib_a-memset.o)
 .debug_aranges
                0x00000188       0x20 c:/altera/11.0sp1/nios2eds/bin/gnu/h-i686-mingw32/bin/../lib/gcc/nios2-elf/4.1.2/../../../../nios2-elf/lib\libc.a(lib_a-perror.o)
 .debug_aranges
                0x000001a8       0x20 c:/altera/11.0sp1/nios2eds/bin/gnu/h-i686-mingw32/bin/../lib/gcc/nios2-elf/4.1.2/../../../../nios2-elf/lib\libc.a(lib_a-printf.o)
 .debug_aranges
                0x000001c8       0x20 c:/altera/11.0sp1/nios2eds/bin/gnu/h-i686-mingw32/bin/../lib/gcc/nios2-elf/4.1.2/../../../../nios2-elf/lib\libc.a(lib_a-puts.o)
 .debug_aranges
                0x000001e8       0x20 c:/altera/11.0sp1/nios2eds/bin/gnu/h-i686-mingw32/bin/../lib/gcc/nios2-elf/4.1.2/../../../../nios2-elf/lib\libc.a(lib_a-sprintf.o)
 .debug_aranges
                0x00000208       0x20 c:/altera/11.0sp1/nios2eds/bin/gnu/h-i686-mingw32/bin/../lib/gcc/nios2-elf/4.1.2/../../../../nios2-elf/lib\libc.a(lib_a-strchr.o)
 .debug_aranges
                0x00000228       0x20 c:/altera/11.0sp1/nios2eds/bin/gnu/h-i686-mingw32/bin/../lib/gcc/nios2-elf/4.1.2/../../../../nios2-elf/lib\libc.a(lib_a-strerror.o)
 .debug_aranges
                0x00000248       0x20 c:/altera/11.0sp1/nios2eds/bin/gnu/h-i686-mingw32/bin/../lib/gcc/nios2-elf/4.1.2/../../../../nios2-elf/lib\libc.a(lib_a-strlen.o)
 .debug_aranges
                0x00000268       0x20 c:/altera/11.0sp1/nios2eds/bin/gnu/h-i686-mingw32/bin/../lib/gcc/nios2-elf/4.1.2/../../../../nios2-elf/lib\libc.a(lib_a-u_strerr.o)
 .debug_aranges
                0x00000288       0x20 c:/altera/11.0sp1/nios2eds/bin/gnu/h-i686-mingw32/bin/../lib/gcc/nios2-elf/4.1.2/../../../../nios2-elf/lib\libc.a(lib_a-vfprintf.o)
 .debug_aranges
                0x000002a8       0x20 c:/altera/11.0sp1/nios2eds/bin/gnu/h-i686-mingw32/bin/../lib/gcc/nios2-elf/4.1.2/../../../../nios2-elf/lib\libc.a(lib_a-wsetup.o)
 .debug_aranges
                0x000002c8       0x20 c:/altera/11.0sp1/nios2eds/bin/gnu/h-i686-mingw32/bin/../lib/gcc/nios2-elf/4.1.2/../../../../nios2-elf/lib\libc.a(lib_a-dtoa.o)
 .debug_aranges
                0x000002e8       0x20 c:/altera/11.0sp1/nios2eds/bin/gnu/h-i686-mingw32/bin/../lib/gcc/nios2-elf/4.1.2/../../../../nios2-elf/lib\libc.a(lib_a-fflush.o)
 .debug_aranges
                0x00000308       0x20 c:/altera/11.0sp1/nios2eds/bin/gnu/h-i686-mingw32/bin/../lib/gcc/nios2-elf/4.1.2/../../../../nios2-elf/lib\libc.a(lib_a-findfp.o)
 .debug_aranges
                0x00000328       0x20 c:/altera/11.0sp1/nios2eds/bin/gnu/h-i686-mingw32/bin/../lib/gcc/nios2-elf/4.1.2/../../../../nios2-elf/lib\libc.a(lib_a-fputc.o)
 .debug_aranges
                0x00000348       0x20 c:/altera/11.0sp1/nios2eds/bin/gnu/h-i686-mingw32/bin/../lib/gcc/nios2-elf/4.1.2/../../../../nios2-elf/lib\libc.a(lib_a-fputs.o)
 .debug_aranges
                0x00000368       0x20 c:/altera/11.0sp1/nios2eds/bin/gnu/h-i686-mingw32/bin/../lib/gcc/nios2-elf/4.1.2/../../../../nios2-elf/lib\libc.a(lib_a-freer.o)
 .debug_aranges
                0x00000388       0x20 c:/altera/11.0sp1/nios2eds/bin/gnu/h-i686-mingw32/bin/../lib/gcc/nios2-elf/4.1.2/../../../../nios2-elf/lib\libc.a(lib_a-fvwrite.o)
 .debug_aranges
                0x000003a8       0x20 c:/altera/11.0sp1/nios2eds/bin/gnu/h-i686-mingw32/bin/../lib/gcc/nios2-elf/4.1.2/../../../../nios2-elf/lib\libc.a(lib_a-fwalk.o)
 .debug_aranges
                0x000003c8       0x20 c:/altera/11.0sp1/nios2eds/bin/gnu/h-i686-mingw32/bin/../lib/gcc/nios2-elf/4.1.2/../../../../nios2-elf/lib\libc.a(lib_a-locale.o)
 .debug_aranges
                0x000003e8       0x20 c:/altera/11.0sp1/nios2eds/bin/gnu/h-i686-mingw32/bin/../lib/gcc/nios2-elf/4.1.2/../../../../nios2-elf/lib\libc.a(lib_a-makebuf.o)
 .debug_aranges
                0x00000408       0x20 c:/altera/11.0sp1/nios2eds/bin/gnu/h-i686-mingw32/bin/../lib/gcc/nios2-elf/4.1.2/../../../../nios2-elf/lib\libc.a(lib_a-mallocr.o)
 .debug_aranges
                0x00000428       0x20 c:/altera/11.0sp1/nios2eds/bin/gnu/h-i686-mingw32/bin/../lib/gcc/nios2-elf/4.1.2/../../../../nios2-elf/lib\libc.a(lib_a-memchr.o)
 .debug_aranges
                0x00000448       0x20 c:/altera/11.0sp1/nios2eds/bin/gnu/h-i686-mingw32/bin/../lib/gcc/nios2-elf/4.1.2/../../../../nios2-elf/lib\libc.a(lib_a-mprec.o)
 .debug_aranges
                0x00000468       0x20 c:/altera/11.0sp1/nios2eds/bin/gnu/h-i686-mingw32/bin/../lib/gcc/nios2-elf/4.1.2/../../../../nios2-elf/lib\libc.a(lib_a-putc.o)
 .debug_aranges
                0x00000488       0x20 c:/altera/11.0sp1/nios2eds/bin/gnu/h-i686-mingw32/bin/../lib/gcc/nios2-elf/4.1.2/../../../../nios2-elf/lib\libc.a(lib_a-reallocr.o)
 .debug_aranges
                0x000004a8       0x20 c:/altera/11.0sp1/nios2eds/bin/gnu/h-i686-mingw32/bin/../lib/gcc/nios2-elf/4.1.2/../../../../nios2-elf/lib\libc.a(lib_a-s_isinfd.o)
 .debug_aranges
                0x000004c8       0x20 c:/altera/11.0sp1/nios2eds/bin/gnu/h-i686-mingw32/bin/../lib/gcc/nios2-elf/4.1.2/../../../../nios2-elf/lib\libc.a(lib_a-s_isnand.o)
 .debug_aranges
                0x000004e8       0x20 c:/altera/11.0sp1/nios2eds/bin/gnu/h-i686-mingw32/bin/../lib/gcc/nios2-elf/4.1.2/../../../../nios2-elf/lib\libc.a(lib_a-sbrkr.o)
 .debug_aranges
                0x00000508       0x20 c:/altera/11.0sp1/nios2eds/bin/gnu/h-i686-mingw32/bin/../lib/gcc/nios2-elf/4.1.2/../../../../nios2-elf/lib\libc.a(lib_a-stdio.o)
 .debug_aranges
                0x00000528       0x20 c:/altera/11.0sp1/nios2eds/bin/gnu/h-i686-mingw32/bin/../lib/gcc/nios2-elf/4.1.2/../../../../nios2-elf/lib\libc.a(lib_a-strcmp.o)
 .debug_aranges
                0x00000548       0x20 c:/altera/11.0sp1/nios2eds/bin/gnu/h-i686-mingw32/bin/../lib/gcc/nios2-elf/4.1.2/../../../../nios2-elf/lib\libc.a(lib_a-wbuf.o)
 .debug_aranges
                0x00000568       0x20 c:/altera/11.0sp1/nios2eds/bin/gnu/h-i686-mingw32/bin/../lib/gcc/nios2-elf/4.1.2/../../../../nios2-elf/lib\libc.a(lib_a-writer.o)
 .debug_aranges
                0x00000588       0x20 c:/altera/11.0sp1/nios2eds/bin/gnu/h-i686-mingw32/bin/../lib/gcc/nios2-elf/4.1.2/../../../../nios2-elf/lib\libc.a(lib_a-callocr.o)
 .debug_aranges
                0x000005a8       0x20 c:/altera/11.0sp1/nios2eds/bin/gnu/h-i686-mingw32/bin/../lib/gcc/nios2-elf/4.1.2/../../../../nios2-elf/lib\libc.a(lib_a-closer.o)
 .debug_aranges
                0x000005c8       0x20 c:/altera/11.0sp1/nios2eds/bin/gnu/h-i686-mingw32/bin/../lib/gcc/nios2-elf/4.1.2/../../../../nios2-elf/lib\libc.a(lib_a-fclose.o)
 .debug_aranges
                0x000005e8       0x20 c:/altera/11.0sp1/nios2eds/bin/gnu/h-i686-mingw32/bin/../lib/gcc/nios2-elf/4.1.2/../../../../nios2-elf/lib\libc.a(lib_a-fstatr.o)
 .debug_aranges
                0x00000608       0x20 c:/altera/11.0sp1/nios2eds/bin/gnu/h-i686-mingw32/bin/../lib/gcc/nios2-elf/4.1.2/../../../../nios2-elf/lib\libc.a(lib_a-isattyr.o)
 .debug_aranges
                0x00000628       0x20 c:/altera/11.0sp1/nios2eds/bin/gnu/h-i686-mingw32/bin/../lib/gcc/nios2-elf/4.1.2/../../../../nios2-elf/lib\libc.a(lib_a-lseekr.o)
 .debug_aranges
                0x00000648       0x20 c:/altera/11.0sp1/nios2eds/bin/gnu/h-i686-mingw32/bin/../lib/gcc/nios2-elf/4.1.2/../../../../nios2-elf/lib\libc.a(lib_a-readr.o)
 .debug_aranges
                0x00000668       0x20 c:/altera/11.0sp1/nios2eds/bin/gnu/h-i686-mingw32/bin/../lib/gcc/nios2-elf/4.1.2\libgcc.a(_udivdi3.o)
 .debug_aranges
                0x00000688       0x20 c:/altera/11.0sp1/nios2eds/bin/gnu/h-i686-mingw32/bin/../lib/gcc/nios2-elf/4.1.2\libgcc.a(_umoddi3.o)
 .debug_aranges
                0x000006a8       0x20 c:/altera/11.0sp1/nios2eds/bin/gnu/h-i686-mingw32/bin/../lib/gcc/nios2-elf/4.1.2\libgcc.a(_addsub_df.o)
 .debug_aranges
                0x000006c8       0x20 c:/altera/11.0sp1/nios2eds/bin/gnu/h-i686-mingw32/bin/../lib/gcc/nios2-elf/4.1.2\libgcc.a(_mul_df.o)
 .debug_aranges
                0x000006e8       0x20 c:/altera/11.0sp1/nios2eds/bin/gnu/h-i686-mingw32/bin/../lib/gcc/nios2-elf/4.1.2\libgcc.a(_div_df.o)
 .debug_aranges
                0x00000708       0x20 c:/altera/11.0sp1/nios2eds/bin/gnu/h-i686-mingw32/bin/../lib/gcc/nios2-elf/4.1.2\libgcc.a(_eq_df.o)
 .debug_aranges
                0x00000728       0x20 c:/altera/11.0sp1/nios2eds/bin/gnu/h-i686-mingw32/bin/../lib/gcc/nios2-elf/4.1.2\libgcc.a(_ne_df.o)
 .debug_aranges
                0x00000748       0x20 c:/altera/11.0sp1/nios2eds/bin/gnu/h-i686-mingw32/bin/../lib/gcc/nios2-elf/4.1.2\libgcc.a(_gt_df.o)
 .debug_aranges
                0x00000768       0x20 c:/altera/11.0sp1/nios2eds/bin/gnu/h-i686-mingw32/bin/../lib/gcc/nios2-elf/4.1.2\libgcc.a(_ge_df.o)
 .debug_aranges
                0x00000788       0x20 c:/altera/11.0sp1/nios2eds/bin/gnu/h-i686-mingw32/bin/../lib/gcc/nios2-elf/4.1.2\libgcc.a(_lt_df.o)
 .debug_aranges
                0x000007a8       0x20 c:/altera/11.0sp1/nios2eds/bin/gnu/h-i686-mingw32/bin/../lib/gcc/nios2-elf/4.1.2\libgcc.a(_si_to_df.o)
 .debug_aranges
                0x000007c8       0x20 c:/altera/11.0sp1/nios2eds/bin/gnu/h-i686-mingw32/bin/../lib/gcc/nios2-elf/4.1.2\libgcc.a(_df_to_si.o)
 .debug_aranges
                0x000007e8       0x20 c:/altera/11.0sp1/nios2eds/bin/gnu/h-i686-mingw32/bin/../lib/gcc/nios2-elf/4.1.2\libgcc.a(_usi_to_df.o)
 .debug_aranges
                0x00000808       0x20 c:/altera/11.0sp1/nios2eds/bin/gnu/h-i686-mingw32/bin/../lib/gcc/nios2-elf/4.1.2\libgcc.a(lib2-divmod.o)
 .debug_aranges
                0x00000828       0x20 c:/altera/11.0sp1/nios2eds/bin/gnu/h-i686-mingw32/bin/../lib/gcc/nios2-elf/4.1.2\libgcc.a(_muldi3.o)
 .debug_aranges
                0x00000848       0x20 c:/altera/11.0sp1/nios2eds/bin/gnu/h-i686-mingw32/bin/../lib/gcc/nios2-elf/4.1.2\libgcc.a(_clzsi2.o)
 .debug_aranges
                0x00000868       0x20 c:/altera/11.0sp1/nios2eds/bin/gnu/h-i686-mingw32/bin/../lib/gcc/nios2-elf/4.1.2\libgcc.a(_pack_df.o)
 .debug_aranges
                0x00000888       0x20 c:/altera/11.0sp1/nios2eds/bin/gnu/h-i686-mingw32/bin/../lib/gcc/nios2-elf/4.1.2\libgcc.a(_unpack_df.o)
 .debug_aranges
                0x000008a8       0x20 c:/altera/11.0sp1/nios2eds/bin/gnu/h-i686-mingw32/bin/../lib/gcc/nios2-elf/4.1.2\libgcc.a(_fpcmp_parts_df.o)
 .debug_aranges
                0x000008c8       0x20 ../tcpip_test_bsp/\libucosii_bsp.a(alt_fstat.o)
 .debug_aranges
                0x000008e8       0x20 ../tcpip_test_bsp/\libucosii_bsp.a(alt_isatty.o)
 .debug_aranges
                0x00000908       0x20 ../tcpip_test_bsp/\libucosii_bsp.a(alt_load.o)
 .debug_aranges
                0x00000928       0x20 ../tcpip_test_bsp/\libucosii_bsp.a(alt_lseek.o)
 .debug_aranges
                0x00000948       0x20 ../tcpip_test_bsp/\libucosii_bsp.a(alt_main.o)
 .debug_aranges
                0x00000968       0x20 ../tcpip_test_bsp/\libucosii_bsp.a(alt_sbrk.o)
 .debug_aranges
                0x00000988       0x20 ../tcpip_test_bsp/\libucosii_bsp.a(alt_env_lock.o)
 .debug_aranges
                0x000009a8       0x20 ../tcpip_test_bsp/\libucosii_bsp.a(alt_malloc_lock.o)
 .debug_aranges
                0x000009c8       0x20 ../tcpip_test_bsp/\libucosii_bsp.a(os_core.o)
 .debug_aranges
                0x000009e8       0x20 ../tcpip_test_bsp/\libucosii_bsp.a(os_dbg.o)
 .debug_aranges
                0x00000a08       0x20 ../tcpip_test_bsp/\libucosii_bsp.a(os_flag.o)
 .debug_aranges
                0x00000a28       0x20 ../tcpip_test_bsp/\libucosii_bsp.a(os_mem.o)
 .debug_aranges
                0x00000a48       0x20 ../tcpip_test_bsp/\libucosii_bsp.a(os_q.o)
 .debug_aranges
                0x00000a68       0x20 ../tcpip_test_bsp/\libucosii_bsp.a(os_sem.o)
 .debug_aranges
                0x00000a88       0x20 ../tcpip_test_bsp/\libucosii_bsp.a(os_task.o)
 .debug_aranges
                0x00000aa8       0x20 ../tcpip_test_bsp/\libucosii_bsp.a(os_time.o)
 .debug_aranges
                0x00000ac8       0x20 ../tcpip_test_bsp/\libucosii_bsp.a(alt_sys_init.o)
 .debug_aranges
                0x00000ae8       0x20 ../tcpip_test_bsp/\libucosii_bsp.a(altera_avalon_jtag_uart_fd.o)
 .debug_aranges
                0x00000b08       0x20 ../tcpip_test_bsp/\libucosii_bsp.a(altera_avalon_jtag_uart_init.o)
 .debug_aranges
                0x00000b28       0x20 ../tcpip_test_bsp/\libucosii_bsp.a(altera_avalon_jtag_uart_ioctl.o)
 .debug_aranges
                0x00000b48       0x20 ../tcpip_test_bsp/\libucosii_bsp.a(altera_avalon_jtag_uart_read.o)
 .debug_aranges
                0x00000b68       0x20 ../tcpip_test_bsp/\libucosii_bsp.a(altera_avalon_jtag_uart_write.o)
 .debug_aranges
                0x00000b88       0x20 ../tcpip_test_bsp/\libucosii_bsp.a(altera_avalon_sgdma.o)
 .debug_aranges
                0x00000ba8       0x20 ../tcpip_test_bsp/\libucosii_bsp.a(altera_avalon_timer_sc.o)
 .debug_aranges
                0x00000bc8       0x20 ../tcpip_test_bsp/\libucosii_bsp.a(altera_avalon_tse.o)
 .debug_aranges
                0x00000be8       0x20 ../tcpip_test_bsp/\libucosii_bsp.a(ins_tse_mac.o)
 .debug_aranges
                0x00000c08       0x20 ../tcpip_test_bsp/\libucosii_bsp.a(alt_iniche_close.o)
 .debug_aranges
                0x00000c28       0x20 ../tcpip_test_bsp/\libucosii_bsp.a(alt_iniche_dev.o)
 .debug_aranges
                0x00000c48       0x20 ../tcpip_test_bsp/\libucosii_bsp.a(alt_iniche_read.o)
 .debug_aranges
                0x00000c68       0x20 ../tcpip_test_bsp/\libucosii_bsp.a(alt_iniche_write.o)
 .debug_aranges
                0x00000c88       0x20 ../tcpip_test_bsp/\libucosii_bsp.a(ipnet.o)
 .debug_aranges
                0x00000ca8       0x20 ../tcpip_test_bsp/\libucosii_bsp.a(ipstart.o)
 .debug_aranges
                0x00000cc8       0x20 ../tcpip_test_bsp/\libucosii_bsp.a(igmp_cmn.o)
 .debug_aranges
                0x00000ce8       0x20 ../tcpip_test_bsp/\libucosii_bsp.a(bsdsock.o)
 .debug_aranges
                0x00000d08       0x20 ../tcpip_test_bsp/\libucosii_bsp.a(cksum.o)
 .debug_aranges
                0x00000d28       0x20 ../tcpip_test_bsp/\libucosii_bsp.a(in_utils.o)
 .debug_aranges
                0x00000d48       0x20 ../tcpip_test_bsp/\libucosii_bsp.a(netmain.o)
 .debug_aranges
                0x00000d68       0x20 ../tcpip_test_bsp/\libucosii_bsp.a(tk_crnos.o)
 .debug_aranges
                0x00000d88       0x20 ../tcpip_test_bsp/\libucosii_bsp.a(dhcpclnt.o)
 .debug_aranges
                0x00000da8       0x20 ../tcpip_test_bsp/\libucosii_bsp.a(dhcputil.o)
 .debug_aranges
                0x00000dc8       0x20 ../tcpip_test_bsp/\libucosii_bsp.a(pktalloc.o)
 .debug_aranges
                0x00000de8       0x20 ../tcpip_test_bsp/\libucosii_bsp.a(q.o)
 .debug_aranges
                0x00000e08       0x20 ../tcpip_test_bsp/\libucosii_bsp.a(udp_open.o)
 .debug_aranges
                0x00000e28       0x20 ../tcpip_test_bsp/\libucosii_bsp.a(asm_cksum.o)
 .debug_aranges
                0x00000e48       0x20 ../tcpip_test_bsp/\libucosii_bsp.a(brdutils.o)
 .debug_aranges
                0x00000e68       0x20 ../tcpip_test_bsp/\libucosii_bsp.a(osportco.o)
 .debug_aranges
                0x00000e88       0x20 ../tcpip_test_bsp/\libucosii_bsp.a(targnios.o)
 .debug_aranges
                0x00000ea8       0x20 ../tcpip_test_bsp/\libucosii_bsp.a(nptcp.o)
 .debug_aranges
                0x00000ec8       0x20 ../tcpip_test_bsp/\libucosii_bsp.a(rawsock.o)
 .debug_aranges
                0x00000ee8       0x20 ../tcpip_test_bsp/\libucosii_bsp.a(sockcall.o)
 .debug_aranges
                0x00000f08       0x20 ../tcpip_test_bsp/\libucosii_bsp.a(socket.o)
 .debug_aranges
                0x00000f28       0x20 ../tcpip_test_bsp/\libucosii_bsp.a(socket2.o)
 .debug_aranges
                0x00000f48       0x20 ../tcpip_test_bsp/\libucosii_bsp.a(soselect.o)
 .debug_aranges
                0x00000f68       0x20 ../tcpip_test_bsp/\libucosii_bsp.a(tcp_in.o)
 .debug_aranges
                0x00000f88       0x20 ../tcpip_test_bsp/\libucosii_bsp.a(tcp_out.o)
 .debug_aranges
                0x00000fa8       0x20 ../tcpip_test_bsp/\libucosii_bsp.a(tcp_subr.o)
 .debug_aranges
                0x00000fc8       0x20 ../tcpip_test_bsp/\libucosii_bsp.a(tcp_timr.o)
 .debug_aranges
                0x00000fe8       0x20 ../tcpip_test_bsp/\libucosii_bsp.a(tcp_usr.o)
 .debug_aranges
                0x00001008       0x20 ../tcpip_test_bsp/\libucosii_bsp.a(tcpport.o)
 .debug_aranges
                0x00001028       0x20 ../tcpip_test_bsp/\libucosii_bsp.a(udpsock.o)
 .debug_aranges
                0x00001048       0x20 ../tcpip_test_bsp/\libucosii_bsp.a(alt_alarm_start.o)
 .debug_aranges
                0x00001068       0x20 ../tcpip_test_bsp/\libucosii_bsp.a(alt_close.o)
 .debug_aranges
                0x00001088       0x20 ../tcpip_test_bsp/\libucosii_bsp.a(alt_dcache_flush_all.o)
 .debug_aranges
                0x000010a8       0x20 ../tcpip_test_bsp/\libucosii_bsp.a(alt_dev.o)
 .debug_aranges
                0x000010c8       0x20 ../tcpip_test_bsp/\libucosii_bsp.a(alt_dev_llist_insert.o)
 .debug_aranges
                0x000010e8       0x20 ../tcpip_test_bsp/\libucosii_bsp.a(alt_do_ctors.o)
 .debug_aranges
                0x00001108       0x20 ../tcpip_test_bsp/\libucosii_bsp.a(alt_do_dtors.o)
 .debug_aranges
                0x00001128       0x20 ../tcpip_test_bsp/\libucosii_bsp.a(alt_find_dev.o)
 .debug_aranges
                0x00001148       0x20 ../tcpip_test_bsp/\libucosii_bsp.a(alt_icache_flush_all.o)
 .debug_aranges
                0x00001168       0x20 ../tcpip_test_bsp/\libucosii_bsp.a(alt_iic.o)
 .debug_aranges
                0x00001188       0x20 ../tcpip_test_bsp/\libucosii_bsp.a(alt_iic_isr_register.o)
 .debug_aranges
                0x000011a8       0x20 ../tcpip_test_bsp/\libucosii_bsp.a(alt_io_redirect.o)
 .debug_aranges
                0x000011c8       0x30 ../tcpip_test_bsp/\libucosii_bsp.a(alt_irq_entry.o)
 .debug_aranges
                0x000011f8       0x28 ../tcpip_test_bsp/\libucosii_bsp.a(alt_irq_handler.o)
 .debug_aranges
                0x00001220       0x20 ../tcpip_test_bsp/\libucosii_bsp.a(alt_open.o)
 .debug_aranges
                0x00001240       0x20 ../tcpip_test_bsp/\libucosii_bsp.a(alt_read.o)
 .debug_aranges
                0x00001260       0x20 ../tcpip_test_bsp/\libucosii_bsp.a(alt_release_fd.o)
 .debug_aranges
                0x00001280       0x20 ../tcpip_test_bsp/\libucosii_bsp.a(alt_remap_cached.o)
 .debug_aranges
                0x000012a0       0x20 ../tcpip_test_bsp/\libucosii_bsp.a(alt_remap_uncached.o)
 .debug_aranges
                0x000012c0       0x20 ../tcpip_test_bsp/\libucosii_bsp.a(alt_tick.o)
 .debug_aranges
                0x000012e0       0x20 ../tcpip_test_bsp/\libucosii_bsp.a(alt_uncached_malloc.o)
 .debug_aranges
                0x00001300       0x20 ../tcpip_test_bsp/\libucosii_bsp.a(alt_usleep.o)
 .debug_aranges
                0x00001320       0x20 ../tcpip_test_bsp/\libucosii_bsp.a(alt_write.o)
 .debug_aranges
                0x00001340       0x20 ../tcpip_test_bsp/\libucosii_bsp.a(altera_nios2_irq.o)
 .debug_aranges
                0x00001360       0x20 ../tcpip_test_bsp/\libucosii_bsp.a(os_cpu_a.o)
 .debug_aranges
                0x00001380       0x20 ../tcpip_test_bsp/\libucosii_bsp.a(os_cpu_c.o)
 .debug_aranges
                0x000013a0       0x20 ../tcpip_test_bsp/\libucosii_bsp.a(allports.o)
 .debug_aranges
                0x000013c0       0x20 ../tcpip_test_bsp/\libucosii_bsp.a(timeouts.o)
 .debug_aranges
                0x000013e0       0x20 ../tcpip_test_bsp/\libucosii_bsp.a(tk_misc.o)
 .debug_aranges
                0x00001400       0x20 ../tcpip_test_bsp/\libucosii_bsp.a(alt_iniche_fcntl.o)
 .debug_aranges
                0x00001420       0x20 ../tcpip_test_bsp/\libucosii_bsp.a(et_arp.o)
 .debug_aranges
                0x00001440       0x20 ../tcpip_test_bsp/\libucosii_bsp.a(iface.o)
 .debug_aranges
                0x00001460       0x20 ../tcpip_test_bsp/\libucosii_bsp.a(ip.o)
 .debug_aranges
                0x00001480       0x20 ../tcpip_test_bsp/\libucosii_bsp.a(ip_reasm.o)
 .debug_aranges
                0x000014a0       0x20 ../tcpip_test_bsp/\libucosii_bsp.a(ipdemux.o)
 .debug_aranges
                0x000014c0       0x20 ../tcpip_test_bsp/\libucosii_bsp.a(ipmc.o)
 .debug_aranges
                0x000014e0       0x20 ../tcpip_test_bsp/\libucosii_bsp.a(ipport.o)
 .debug_aranges
                0x00001500       0x20 ../tcpip_test_bsp/\libucosii_bsp.a(ipraw.o)
 .debug_aranges
                0x00001520       0x20 ../tcpip_test_bsp/\libucosii_bsp.a(iproute.o)
 .debug_aranges
                0x00001540       0x20 ../tcpip_test_bsp/\libucosii_bsp.a(udp.o)
 .debug_aranges
                0x00001560       0x20 ../tcpip_test_bsp/\libucosii_bsp.a(igmp.o)
 .debug_aranges
                0x00001580       0x20 ../tcpip_test_bsp/\libucosii_bsp.a(igmp2.o)
 .debug_aranges
                0x000015a0       0x20 ../tcpip_test_bsp/\libucosii_bsp.a(ipopt.o)
 .debug_aranges
                0x000015c0       0x20 ../tcpip_test_bsp/\libucosii_bsp.a(u_mctest.o)
 .debug_aranges
                0x000015e0       0x20 ../tcpip_test_bsp/\libucosii_bsp.a(dhcsetup.o)
 .debug_aranges
                0x00001600       0x20 ../tcpip_test_bsp/\libucosii_bsp.a(memdev.o)
 .debug_aranges
                0x00001620       0x20 ../tcpip_test_bsp/\libucosii_bsp.a(parseip.o)
 .debug_aranges
                0x00001640       0x20 ../tcpip_test_bsp/\libucosii_bsp.a(tcpcksum.o)
 .debug_aranges
                0x00001660       0x20 ../tcpip_test_bsp/\libucosii_bsp.a(in_pcb.o)
 .debug_aranges
                0x00001680       0x20 ../tcpip_test_bsp/\libucosii_bsp.a(vfsfiles.o)
 .debug_aranges
                0x000016a0       0x20 ../tcpip_test_bsp/\libucosii_bsp.a(vfsport.o)
 .debug_aranges
                0x000016c0       0x20 ../tcpip_test_bsp/\libucosii_bsp.a(alt_busy_sleep.o)
 .debug_aranges
                0x000016e0       0x20 ../tcpip_test_bsp/\libucosii_bsp.a(alt_dcache_flush.o)
 .debug_aranges
                0x00001700       0x38 ../tcpip_test_bsp/\libucosii_bsp.a(alt_exception_entry.o)
 .debug_aranges
                0x00001738       0x20 ../tcpip_test_bsp/\libucosii_bsp.a(alt_fcntl.o)
 .debug_aranges
                0x00001758       0x20 ../tcpip_test_bsp/\libucosii_bsp.a(alt_find_file.o)
 .debug_aranges
                0x00001778       0x20 ../tcpip_test_bsp/\libucosii_bsp.a(alt_get_fd.o)
 .debug_aranges
                0x00001798       0x20 ../tcpip_test_bsp/\libucosii_bsp.a(alt_icache_flush.o)
 .debug_aranges
                0x000017b8       0x20 ../tcpip_test_bsp/\libucosii_bsp.a(icmp.o)
 .debug_aranges
                0x000017d8       0x20 c:/altera/11.0sp1/nios2eds/bin/gnu/h-i686-mingw32/bin/../lib/gcc/nios2-elf/4.1.2/../../../../nios2-elf/lib\libc.a(lib_a-atexit.o)
 .debug_aranges
                0x000017f8       0x20 c:/altera/11.0sp1/nios2eds/bin/gnu/h-i686-mingw32/bin/../lib/gcc/nios2-elf/4.1.2/../../../../nios2-elf/lib\libc.a(lib_a-atoi.o)
 .debug_aranges
                0x00001818       0x20 c:/altera/11.0sp1/nios2eds/bin/gnu/h-i686-mingw32/bin/../lib/gcc/nios2-elf/4.1.2/../../../../nios2-elf/lib\libc.a(lib_a-calloc.o)
 .debug_aranges
                0x00001838       0x20 c:/altera/11.0sp1/nios2eds/bin/gnu/h-i686-mingw32/bin/../lib/gcc/nios2-elf/4.1.2/../../../../nios2-elf/lib\libc.a(lib_a-exit.o)
 .debug_aranges
                0x00001858       0x20 c:/altera/11.0sp1/nios2eds/bin/gnu/h-i686-mingw32/bin/../lib/gcc/nios2-elf/4.1.2/../../../../nios2-elf/lib\libc.a(lib_a-getc.o)
 .debug_aranges
                0x00001878       0x20 c:/altera/11.0sp1/nios2eds/bin/gnu/h-i686-mingw32/bin/../lib/gcc/nios2-elf/4.1.2/../../../../nios2-elf/lib\libc.a(lib_a-malloc.o)
 .debug_aranges
                0x00001898       0x20 c:/altera/11.0sp1/nios2eds/bin/gnu/h-i686-mingw32/bin/../lib/gcc/nios2-elf/4.1.2/../../../../nios2-elf/lib\libc.a(lib_a-memcmp.o)
 .debug_aranges
                0x000018b8       0x20 c:/altera/11.0sp1/nios2eds/bin/gnu/h-i686-mingw32/bin/../lib/gcc/nios2-elf/4.1.2/../../../../nios2-elf/lib\libc.a(lib_a-rget.o)
 .debug_aranges
                0x000018d8       0x20 c:/altera/11.0sp1/nios2eds/bin/gnu/h-i686-mingw32/bin/../lib/gcc/nios2-elf/4.1.2/../../../../nios2-elf/lib\libc.a(lib_a-strcpy.o)
 .debug_aranges
                0x000018f8       0x20 c:/altera/11.0sp1/nios2eds/bin/gnu/h-i686-mingw32/bin/../lib/gcc/nios2-elf/4.1.2/../../../../nios2-elf/lib\libc.a(lib_a-strncmp.o)
 .debug_aranges
                0x00001918       0x20 c:/altera/11.0sp1/nios2eds/bin/gnu/h-i686-mingw32/bin/../lib/gcc/nios2-elf/4.1.2/../../../../nios2-elf/lib\libc.a(lib_a-strncpy.o)
 .debug_aranges
                0x00001938       0x20 c:/altera/11.0sp1/nios2eds/bin/gnu/h-i686-mingw32/bin/../lib/gcc/nios2-elf/4.1.2/../../../../nios2-elf/lib\libc.a(lib_a-strtol.o)
 .debug_aranges
                0x00001958       0x20 c:/altera/11.0sp1/nios2eds/bin/gnu/h-i686-mingw32/bin/../lib/gcc/nios2-elf/4.1.2/../../../../nios2-elf/lib\libc.a(lib_a-vprintf.o)
 .debug_aranges
                0x00001978       0x20 c:/altera/11.0sp1/nios2eds/bin/gnu/h-i686-mingw32/bin/../lib/gcc/nios2-elf/4.1.2/../../../../nios2-elf/lib\libc.a(lib_a-vsprintf.o)
 .debug_aranges
                0x00001998       0x20 c:/altera/11.0sp1/nios2eds/bin/gnu/h-i686-mingw32/bin/../lib/gcc/nios2-elf/4.1.2/../../../../nios2-elf/lib\libc.a(lib_a-__atexit.o)
 .debug_aranges
                0x000019b8       0x20 c:/altera/11.0sp1/nios2eds/bin/gnu/h-i686-mingw32/bin/../lib/gcc/nios2-elf/4.1.2/../../../../nios2-elf/lib\libc.a(lib_a-__call_atexit.o)
 .debug_aranges
                0x000019d8       0x20 c:/altera/11.0sp1/nios2eds/bin/gnu/h-i686-mingw32/bin/../lib/gcc/nios2-elf/4.1.2/../../../../nios2-elf/lib\libc.a(lib_a-refill.o)
 .debug_aranges
                0x000019f8       0x20 ../tcpip_test_bsp/\libucosii_bsp.a(alt_exit.o)

.debug_pubnames
                0x00000000     0x555e
 *(.debug_pubnames)
 .debug_pubnames
                0x00000000       0x61 obj/alt_error_handler.o
 .debug_pubnames
                0x00000061       0x5f obj/iniche_init.o
 .debug_pubnames
                0x000000c0       0x3b obj/led.o
 .debug_pubnames
                0x000000fb       0x49 obj/network_utilities.o
 .debug_pubnames
                0x00000144      0x138 obj/simple_socket_server.o
 .debug_pubnames
                0x0000027c       0x3e obj/tse_my_system.o
 .debug_pubnames
                0x000002ba       0x2e c:/altera/11.0sp1/nios2eds/bin/gnu/h-i686-mingw32/bin/../lib/gcc/nios2-elf/4.1.2/../../../../nios2-elf/lib\libc.a(lib_a-ctype_.o)
 .debug_pubnames
                0x000002e8       0x2d c:/altera/11.0sp1/nios2eds/bin/gnu/h-i686-mingw32/bin/../lib/gcc/nios2-elf/4.1.2/../../../../nios2-elf/lib\libc.a(lib_a-fprintf.o)
 .debug_pubnames
                0x00000315       0x2b c:/altera/11.0sp1/nios2eds/bin/gnu/h-i686-mingw32/bin/../lib/gcc/nios2-elf/4.1.2/../../../../nios2-elf/lib\libc.a(lib_a-fwrite.o)
 .debug_pubnames
                0x00000340       0x39 c:/altera/11.0sp1/nios2eds/bin/gnu/h-i686-mingw32/bin/../lib/gcc/nios2-elf/4.1.2/../../../../nios2-elf/lib\libc.a(lib_a-impure.o)
 .debug_pubnames
                0x00000379       0x1d c:/altera/11.0sp1/nios2eds/bin/gnu/h-i686-mingw32/bin/../lib/gcc/nios2-elf/4.1.2/../../../../nios2-elf/lib\libc.a(lib_a-memcpy.o)
 .debug_pubnames
                0x00000396       0x1e c:/altera/11.0sp1/nios2eds/bin/gnu/h-i686-mingw32/bin/../lib/gcc/nios2-elf/4.1.2/../../../../nios2-elf/lib\libc.a(lib_a-memmove.o)
 .debug_pubnames
                0x000003b4       0x1d c:/altera/11.0sp1/nios2eds/bin/gnu/h-i686-mingw32/bin/../lib/gcc/nios2-elf/4.1.2/../../../../nios2-elf/lib\libc.a(lib_a-memset.o)
 .debug_pubnames
                0x000003d1       0x2b c:/altera/11.0sp1/nios2eds/bin/gnu/h-i686-mingw32/bin/../lib/gcc/nios2-elf/4.1.2/../../../../nios2-elf/lib\libc.a(lib_a-perror.o)
 .debug_pubnames
                0x000003fc       0x2b c:/altera/11.0sp1/nios2eds/bin/gnu/h-i686-mingw32/bin/../lib/gcc/nios2-elf/4.1.2/../../../../nios2-elf/lib\libc.a(lib_a-printf.o)
 .debug_pubnames
                0x00000427       0x27 c:/altera/11.0sp1/nios2eds/bin/gnu/h-i686-mingw32/bin/../lib/gcc/nios2-elf/4.1.2/../../../../nios2-elf/lib\libc.a(lib_a-puts.o)
 .debug_pubnames
                0x0000044e       0x2d c:/altera/11.0sp1/nios2eds/bin/gnu/h-i686-mingw32/bin/../lib/gcc/nios2-elf/4.1.2/../../../../nios2-elf/lib\libc.a(lib_a-sprintf.o)
 .debug_pubnames
                0x0000047b       0x1d c:/altera/11.0sp1/nios2eds/bin/gnu/h-i686-mingw32/bin/../lib/gcc/nios2-elf/4.1.2/../../../../nios2-elf/lib\libc.a(lib_a-strchr.o)
 .debug_pubnames
                0x00000498       0x1f c:/altera/11.0sp1/nios2eds/bin/gnu/h-i686-mingw32/bin/../lib/gcc/nios2-elf/4.1.2/../../../../nios2-elf/lib\libc.a(lib_a-strerror.o)
 .debug_pubnames
                0x000004b7       0x1d c:/altera/11.0sp1/nios2eds/bin/gnu/h-i686-mingw32/bin/../lib/gcc/nios2-elf/4.1.2/../../../../nios2-elf/lib\libc.a(lib_a-strlen.o)
 .debug_pubnames
                0x000004d4       0x25 c:/altera/11.0sp1/nios2eds/bin/gnu/h-i686-mingw32/bin/../lib/gcc/nios2-elf/4.1.2/../../../../nios2-elf/lib\libc.a(lib_a-u_strerr.o)
 .debug_pubnames
                0x000004f9       0x45 c:/altera/11.0sp1/nios2eds/bin/gnu/h-i686-mingw32/bin/../lib/gcc/nios2-elf/4.1.2/../../../../nios2-elf/lib\libc.a(lib_a-vfprintf.o)
 .debug_pubnames
                0x0000053e       0x22 c:/altera/11.0sp1/nios2eds/bin/gnu/h-i686-mingw32/bin/../lib/gcc/nios2-elf/4.1.2/../../../../nios2-elf/lib\libc.a(lib_a-wsetup.o)
 .debug_pubnames
                0x00000560       0x1e c:/altera/11.0sp1/nios2eds/bin/gnu/h-i686-mingw32/bin/../lib/gcc/nios2-elf/4.1.2/../../../../nios2-elf/lib\libc.a(lib_a-dtoa.o)
 .debug_pubnames
                0x0000057e       0x2b c:/altera/11.0sp1/nios2eds/bin/gnu/h-i686-mingw32/bin/../lib/gcc/nios2-elf/4.1.2/../../../../nios2-elf/lib\libc.a(lib_a-fflush.o)
 .debug_pubnames
                0x000005a9       0xdb c:/altera/11.0sp1/nios2eds/bin/gnu/h-i686-mingw32/bin/../lib/gcc/nios2-elf/4.1.2/../../../../nios2-elf/lib\libc.a(lib_a-findfp.o)
 .debug_pubnames
                0x00000684       0x29 c:/altera/11.0sp1/nios2eds/bin/gnu/h-i686-mingw32/bin/../lib/gcc/nios2-elf/4.1.2/../../../../nios2-elf/lib\libc.a(lib_a-fputc.o)
 .debug_pubnames
                0x000006ad       0x29 c:/altera/11.0sp1/nios2eds/bin/gnu/h-i686-mingw32/bin/../lib/gcc/nios2-elf/4.1.2/../../../../nios2-elf/lib\libc.a(lib_a-fputs.o)
 .debug_pubnames
                0x000006d6       0x31 c:/altera/11.0sp1/nios2eds/bin/gnu/h-i686-mingw32/bin/../lib/gcc/nios2-elf/4.1.2/../../../../nios2-elf/lib\libc.a(lib_a-freer.o)
 .debug_pubnames
                0x00000707       0x23 c:/altera/11.0sp1/nios2eds/bin/gnu/h-i686-mingw32/bin/../lib/gcc/nios2-elf/4.1.2/../../../../nios2-elf/lib\libc.a(lib_a-fvwrite.o)
 .debug_pubnames
                0x0000072a       0x2e c:/altera/11.0sp1/nios2eds/bin/gnu/h-i686-mingw32/bin/../lib/gcc/nios2-elf/4.1.2/../../../../nios2-elf/lib\libc.a(lib_a-fwalk.o)
 .debug_pubnames
                0x00000758       0xc3 c:/altera/11.0sp1/nios2eds/bin/gnu/h-i686-mingw32/bin/../lib/gcc/nios2-elf/4.1.2/../../../../nios2-elf/lib\libc.a(lib_a-locale.o)
 .debug_pubnames
                0x0000081b       0x23 c:/altera/11.0sp1/nios2eds/bin/gnu/h-i686-mingw32/bin/../lib/gcc/nios2-elf/4.1.2/../../../../nios2-elf/lib\libc.a(lib_a-makebuf.o)
 .debug_pubnames
                0x0000083e       0xce c:/altera/11.0sp1/nios2eds/bin/gnu/h-i686-mingw32/bin/../lib/gcc/nios2-elf/4.1.2/../../../../nios2-elf/lib\libc.a(lib_a-mallocr.o)
 .debug_pubnames
                0x0000090c       0x1d c:/altera/11.0sp1/nios2eds/bin/gnu/h-i686-mingw32/bin/../lib/gcc/nios2-elf/4.1.2/../../../../nios2-elf/lib\libc.a(lib_a-memchr.o)
 .debug_pubnames
                0x00000929      0x13a c:/altera/11.0sp1/nios2eds/bin/gnu/h-i686-mingw32/bin/../lib/gcc/nios2-elf/4.1.2/../../../../nios2-elf/lib\libc.a(lib_a-mprec.o)
 .debug_pubnames
                0x00000a63       0x27 c:/altera/11.0sp1/nios2eds/bin/gnu/h-i686-mingw32/bin/../lib/gcc/nios2-elf/4.1.2/../../../../nios2-elf/lib\libc.a(lib_a-putc.o)
 .debug_pubnames
                0x00000a8a       0x21 c:/altera/11.0sp1/nios2eds/bin/gnu/h-i686-mingw32/bin/../lib/gcc/nios2-elf/4.1.2/../../../../nios2-elf/lib\libc.a(lib_a-reallocr.o)
 .debug_pubnames
                0x00000aab       0x1f c:/altera/11.0sp1/nios2eds/bin/gnu/h-i686-mingw32/bin/../lib/gcc/nios2-elf/4.1.2/../../../../nios2-elf/lib\libc.a(lib_a-s_isinfd.o)
 .debug_pubnames
                0x00000aca       0x1f c:/altera/11.0sp1/nios2eds/bin/gnu/h-i686-mingw32/bin/../lib/gcc/nios2-elf/4.1.2/../../../../nios2-elf/lib\libc.a(lib_a-s_isnand.o)
 .debug_pubnames
                0x00000ae9       0x1e c:/altera/11.0sp1/nios2eds/bin/gnu/h-i686-mingw32/bin/../lib/gcc/nios2-elf/4.1.2/../../../../nios2-elf/lib\libc.a(lib_a-sbrkr.o)
 .debug_pubnames
                0x00000b07       0x44 c:/altera/11.0sp1/nios2eds/bin/gnu/h-i686-mingw32/bin/../lib/gcc/nios2-elf/4.1.2/../../../../nios2-elf/lib\libc.a(lib_a-stdio.o)
 .debug_pubnames
                0x00000b4b       0x1d c:/altera/11.0sp1/nios2eds/bin/gnu/h-i686-mingw32/bin/../lib/gcc/nios2-elf/4.1.2/../../../../nios2-elf/lib\libc.a(lib_a-strcmp.o)
 .debug_pubnames
                0x00000b68       0x2c c:/altera/11.0sp1/nios2eds/bin/gnu/h-i686-mingw32/bin/../lib/gcc/nios2-elf/4.1.2/../../../../nios2-elf/lib\libc.a(lib_a-wbuf.o)
 .debug_pubnames
                0x00000b94       0x1f c:/altera/11.0sp1/nios2eds/bin/gnu/h-i686-mingw32/bin/../lib/gcc/nios2-elf/4.1.2/../../../../nios2-elf/lib\libc.a(lib_a-writer.o)
 .debug_pubnames
                0x00000bb3       0x20 c:/altera/11.0sp1/nios2eds/bin/gnu/h-i686-mingw32/bin/../lib/gcc/nios2-elf/4.1.2/../../../../nios2-elf/lib\libc.a(lib_a-callocr.o)
 .debug_pubnames
                0x00000bd3       0x1f c:/altera/11.0sp1/nios2eds/bin/gnu/h-i686-mingw32/bin/../lib/gcc/nios2-elf/4.1.2/../../../../nios2-elf/lib\libc.a(lib_a-closer.o)
 .debug_pubnames
                0x00000bf2       0x2b c:/altera/11.0sp1/nios2eds/bin/gnu/h-i686-mingw32/bin/../lib/gcc/nios2-elf/4.1.2/../../../../nios2-elf/lib\libc.a(lib_a-fclose.o)
 .debug_pubnames
                0x00000c1d       0x1f c:/altera/11.0sp1/nios2eds/bin/gnu/h-i686-mingw32/bin/../lib/gcc/nios2-elf/4.1.2/../../../../nios2-elf/lib\libc.a(lib_a-fstatr.o)
 .debug_pubnames
                0x00000c3c       0x1c c:/altera/11.0sp1/nios2eds/bin/gnu/h-i686-mingw32/bin/../lib/gcc/nios2-elf/4.1.2/../../../../nios2-elf/lib\libc.a(lib_a-int_errno.o)
 .debug_pubnames
                0x00000c58       0x20 c:/altera/11.0sp1/nios2eds/bin/gnu/h-i686-mingw32/bin/../lib/gcc/nios2-elf/4.1.2/../../../../nios2-elf/lib\libc.a(lib_a-isattyr.o)
 .debug_pubnames
                0x00000c78       0x1f c:/altera/11.0sp1/nios2eds/bin/gnu/h-i686-mingw32/bin/../lib/gcc/nios2-elf/4.1.2/../../../../nios2-elf/lib\libc.a(lib_a-lseekr.o)
 .debug_pubnames
                0x00000c97       0x1e c:/altera/11.0sp1/nios2eds/bin/gnu/h-i686-mingw32/bin/../lib/gcc/nios2-elf/4.1.2/../../../../nios2-elf/lib\libc.a(lib_a-readr.o)
 .debug_pubnames
                0x00000cb5       0x20 c:/altera/11.0sp1/nios2eds/bin/gnu/h-i686-mingw32/bin/../lib/gcc/nios2-elf/4.1.2\libgcc.a(_udivdi3.o)
 .debug_pubnames
                0x00000cd5       0x20 c:/altera/11.0sp1/nios2eds/bin/gnu/h-i686-mingw32/bin/../lib/gcc/nios2-elf/4.1.2\libgcc.a(_umoddi3.o)
 .debug_pubnames
                0x00000cf5       0x2c c:/altera/11.0sp1/nios2eds/bin/gnu/h-i686-mingw32/bin/../lib/gcc/nios2-elf/4.1.2\libgcc.a(_addsub_df.o)
 .debug_pubnames
                0x00000d21       0x1f c:/altera/11.0sp1/nios2eds/bin/gnu/h-i686-mingw32/bin/../lib/gcc/nios2-elf/4.1.2\libgcc.a(_mul_df.o)
 .debug_pubnames
                0x00000d40       0x1f c:/altera/11.0sp1/nios2eds/bin/gnu/h-i686-mingw32/bin/../lib/gcc/nios2-elf/4.1.2\libgcc.a(_div_df.o)
 .debug_pubnames
                0x00000d5f       0x1e c:/altera/11.0sp1/nios2eds/bin/gnu/h-i686-mingw32/bin/../lib/gcc/nios2-elf/4.1.2\libgcc.a(_eq_df.o)
 .debug_pubnames
                0x00000d7d       0x1e c:/altera/11.0sp1/nios2eds/bin/gnu/h-i686-mingw32/bin/../lib/gcc/nios2-elf/4.1.2\libgcc.a(_ne_df.o)
 .debug_pubnames
                0x00000d9b       0x1e c:/altera/11.0sp1/nios2eds/bin/gnu/h-i686-mingw32/bin/../lib/gcc/nios2-elf/4.1.2\libgcc.a(_gt_df.o)
 .debug_pubnames
                0x00000db9       0x1e c:/altera/11.0sp1/nios2eds/bin/gnu/h-i686-mingw32/bin/../lib/gcc/nios2-elf/4.1.2\libgcc.a(_ge_df.o)
 .debug_pubnames
                0x00000dd7       0x1e c:/altera/11.0sp1/nios2eds/bin/gnu/h-i686-mingw32/bin/../lib/gcc/nios2-elf/4.1.2\libgcc.a(_lt_df.o)
 .debug_pubnames
                0x00000df5       0x22 c:/altera/11.0sp1/nios2eds/bin/gnu/h-i686-mingw32/bin/../lib/gcc/nios2-elf/4.1.2\libgcc.a(_si_to_df.o)
 .debug_pubnames
                0x00000e17       0x20 c:/altera/11.0sp1/nios2eds/bin/gnu/h-i686-mingw32/bin/../lib/gcc/nios2-elf/4.1.2\libgcc.a(_df_to_si.o)
 .debug_pubnames
                0x00000e37       0x22 c:/altera/11.0sp1/nios2eds/bin/gnu/h-i686-mingw32/bin/../lib/gcc/nios2-elf/4.1.2\libgcc.a(_thenan_df.o)
 .debug_pubnames
                0x00000e59       0x24 c:/altera/11.0sp1/nios2eds/bin/gnu/h-i686-mingw32/bin/../lib/gcc/nios2-elf/4.1.2\libgcc.a(_usi_to_df.o)
 .debug_pubnames
                0x00000e7d       0x48 c:/altera/11.0sp1/nios2eds/bin/gnu/h-i686-mingw32/bin/../lib/gcc/nios2-elf/4.1.2\libgcc.a(lib2-divmod.o)
 .debug_pubnames
                0x00000ec5       0x1f c:/altera/11.0sp1/nios2eds/bin/gnu/h-i686-mingw32/bin/../lib/gcc/nios2-elf/4.1.2\libgcc.a(_muldi3.o)
 .debug_pubnames
                0x00000ee4       0x20 c:/altera/11.0sp1/nios2eds/bin/gnu/h-i686-mingw32/bin/../lib/gcc/nios2-elf/4.1.2\libgcc.a(_clz.o)
 .debug_pubnames
                0x00000f04       0x1f c:/altera/11.0sp1/nios2eds/bin/gnu/h-i686-mingw32/bin/../lib/gcc/nios2-elf/4.1.2\libgcc.a(_clzsi2.o)
 .debug_pubnames
                0x00000f23       0x1f c:/altera/11.0sp1/nios2eds/bin/gnu/h-i686-mingw32/bin/../lib/gcc/nios2-elf/4.1.2\libgcc.a(_pack_df.o)
 .debug_pubnames
                0x00000f42       0x21 c:/altera/11.0sp1/nios2eds/bin/gnu/h-i686-mingw32/bin/../lib/gcc/nios2-elf/4.1.2\libgcc.a(_unpack_df.o)
 .debug_pubnames
                0x00000f63       0x26 c:/altera/11.0sp1/nios2eds/bin/gnu/h-i686-mingw32/bin/../lib/gcc/nios2-elf/4.1.2\libgcc.a(_fpcmp_parts_df.o)
 .debug_pubnames
                0x00000f89       0x1c ../tcpip_test_bsp/\libucosii_bsp.a(alt_fstat.o)
 .debug_pubnames
                0x00000fa5       0x1d ../tcpip_test_bsp/\libucosii_bsp.a(alt_isatty.o)
 .debug_pubnames
                0x00000fc2       0x1f ../tcpip_test_bsp/\libucosii_bsp.a(alt_load.o)
 .debug_pubnames
                0x00000fe1       0x1c ../tcpip_test_bsp/\libucosii_bsp.a(alt_lseek.o)
 .debug_pubnames
                0x00000ffd       0x46 ../tcpip_test_bsp/\libucosii_bsp.a(alt_main.o)
 .debug_pubnames
                0x00001043       0x1b ../tcpip_test_bsp/\libucosii_bsp.a(alt_sbrk.o)
 .debug_pubnames
                0x0000105e       0x41 ../tcpip_test_bsp/\libucosii_bsp.a(alt_env_lock.o)
 .debug_pubnames
                0x0000109f       0x48 ../tcpip_test_bsp/\libucosii_bsp.a(alt_malloc_lock.o)
 .debug_pubnames
                0x000010e7      0x3f8 ../tcpip_test_bsp/\libucosii_bsp.a(os_core.o)
 .debug_pubnames
                0x000014df      0x3c5 ../tcpip_test_bsp/\libucosii_bsp.a(os_dbg.o)
 .debug_pubnames
                0x000018a4       0xd0 ../tcpip_test_bsp/\libucosii_bsp.a(os_flag.o)
 .debug_pubnames
                0x00001974       0x7c ../tcpip_test_bsp/\libucosii_bsp.a(os_mem.o)
 .debug_pubnames
                0x000019f0       0xa9 ../tcpip_test_bsp/\libucosii_bsp.a(os_q.o)
 .debug_pubnames
                0x00001a99       0x8a ../tcpip_test_bsp/\libucosii_bsp.a(os_sem.o)
 .debug_pubnames
                0x00001b23       0xe5 ../tcpip_test_bsp/\libucosii_bsp.a(os_task.o)
 .debug_pubnames
                0x00001c08       0x62 ../tcpip_test_bsp/\libucosii_bsp.a(os_time.o)
 .debug_pubnames
                0x00001c6a       0x5a ../tcpip_test_bsp/\libucosii_bsp.a(alt_sys_init.o)
 .debug_pubnames
                0x00001cc4       0xa5 ../tcpip_test_bsp/\libucosii_bsp.a(altera_avalon_jtag_uart_fd.o)
 .debug_pubnames
                0x00001d69       0x55 ../tcpip_test_bsp/\libucosii_bsp.a(altera_avalon_jtag_uart_init.o)
 .debug_pubnames
                0x00001dbe       0x34 ../tcpip_test_bsp/\libucosii_bsp.a(altera_avalon_jtag_uart_ioctl.o)
 .debug_pubnames
                0x00001df2       0x33 ../tcpip_test_bsp/\libucosii_bsp.a(altera_avalon_jtag_uart_read.o)
 .debug_pubnames
                0x00001e25       0x34 ../tcpip_test_bsp/\libucosii_bsp.a(altera_avalon_jtag_uart_write.o)
 .debug_pubnames
                0x00001e59      0x30e ../tcpip_test_bsp/\libucosii_bsp.a(altera_avalon_sgdma.o)
 .debug_pubnames
                0x00002167       0x2f ../tcpip_test_bsp/\libucosii_bsp.a(altera_avalon_timer_sc.o)
 .debug_pubnames
                0x00002196      0x4e6 ../tcpip_test_bsp/\libucosii_bsp.a(altera_avalon_tse.o)
 .debug_pubnames
                0x0000267c       0x25 ../tcpip_test_bsp/\libucosii_bsp.a(altera_avalon_tse_system_info.o)
 .debug_pubnames
                0x000026a1      0x105 ../tcpip_test_bsp/\libucosii_bsp.a(ins_tse_mac.o)
 .debug_pubnames
                0x000027a6       0x1c ../tcpip_test_bsp/\libucosii_bsp.a(alt_iniche_close.o)
 .debug_pubnames
                0x000027c2       0x42 ../tcpip_test_bsp/\libucosii_bsp.a(alt_iniche_dev.o)
 .debug_pubnames
                0x00002804       0x1b ../tcpip_test_bsp/\libucosii_bsp.a(alt_iniche_read.o)
 .debug_pubnames
                0x0000281f       0x1c ../tcpip_test_bsp/\libucosii_bsp.a(alt_iniche_write.o)
 .debug_pubnames
                0x0000283b       0x90 ../tcpip_test_bsp/\libucosii_bsp.a(ipnet.o)
 .debug_pubnames
                0x000028cb       0x81 ../tcpip_test_bsp/\libucosii_bsp.a(ipstart.o)
 .debug_pubnames
                0x0000294c      0x108 ../tcpip_test_bsp/\libucosii_bsp.a(igmp_cmn.o)
 .debug_pubnames
                0x00002a54       0xc4 ../tcpip_test_bsp/\libucosii_bsp.a(bsdsock.o)
 .debug_pubnames
                0x00002b18       0x27 ../tcpip_test_bsp/\libucosii_bsp.a(cksum.o)
 .debug_pubnames
                0x00002b3f       0xcc ../tcpip_test_bsp/\libucosii_bsp.a(in_utils.o)
 .debug_pubnames
                0x00002c0b       0xb2 ../tcpip_test_bsp/\libucosii_bsp.a(netmain.o)
 .debug_pubnames
                0x00002cbd       0x97 ../tcpip_test_bsp/\libucosii_bsp.a(tk_crnos.o)
 .debug_pubnames
                0x00002d54      0x252 ../tcpip_test_bsp/\libucosii_bsp.a(dhcpclnt.o)
 .debug_pubnames
                0x00002fa6       0x1f ../tcpip_test_bsp/\libucosii_bsp.a(dhcputil.o)
 .debug_pubnames
                0x00002fc5       0xe2 ../tcpip_test_bsp/\libucosii_bsp.a(pktalloc.o)
 .debug_pubnames
                0x000030a7       0x2d ../tcpip_test_bsp/\libucosii_bsp.a(q.o)
 .debug_pubnames
                0x000030d4       0x3a ../tcpip_test_bsp/\libucosii_bsp.a(udp_open.o)
 .debug_pubnames
                0x0000310e       0xc5 ../tcpip_test_bsp/\libucosii_bsp.a(brdutils.o)
 .debug_pubnames
                0x000031d3      0x10c ../tcpip_test_bsp/\libucosii_bsp.a(osportco.o)
 .debug_pubnames
                0x000032df       0xf5 ../tcpip_test_bsp/\libucosii_bsp.a(targnios.o)
 .debug_pubnames
                0x000033d4      0x190 ../tcpip_test_bsp/\libucosii_bsp.a(nptcp.o)
 .debug_pubnames
                0x00003564       0x46 ../tcpip_test_bsp/\libucosii_bsp.a(rawsock.o)
 .debug_pubnames
                0x000035aa      0x108 ../tcpip_test_bsp/\libucosii_bsp.a(sockcall.o)
 .debug_pubnames
                0x000036b2       0xfc ../tcpip_test_bsp/\libucosii_bsp.a(socket.o)
 .debug_pubnames
                0x000037ae      0x178 ../tcpip_test_bsp/\libucosii_bsp.a(socket2.o)
 .debug_pubnames
                0x00003926       0x92 ../tcpip_test_bsp/\libucosii_bsp.a(soselect.o)
 .debug_pubnames
                0x000039b8       0xc2 ../tcpip_test_bsp/\libucosii_bsp.a(tcp_in.o)
 .debug_pubnames
                0x00003a7a       0x57 ../tcpip_test_bsp/\libucosii_bsp.a(tcp_out.o)
 .debug_pubnames
                0x00003ad1       0xb9 ../tcpip_test_bsp/\libucosii_bsp.a(tcp_subr.o)
 .debug_pubnames
                0x00003b8a       0x96 ../tcpip_test_bsp/\libucosii_bsp.a(tcp_timr.o)
 .debug_pubnames
                0x00003c20       0x79 ../tcpip_test_bsp/\libucosii_bsp.a(tcp_usr.o)
 .debug_pubnames
                0x00003c99       0x1e ../tcpip_test_bsp/\libucosii_bsp.a(tcpport.o)
 .debug_pubnames
                0x00003cb7       0x76 ../tcpip_test_bsp/\libucosii_bsp.a(udpsock.o)
 .debug_pubnames
                0x00003d2d       0x26 ../tcpip_test_bsp/\libucosii_bsp.a(alt_alarm_start.o)
 .debug_pubnames
                0x00003d53       0x20 ../tcpip_test_bsp/\libucosii_bsp.a(alt_close.o)
 .debug_pubnames
                0x00003d73       0x2b ../tcpip_test_bsp/\libucosii_bsp.a(alt_dcache_flush_all.o)
 .debug_pubnames
                0x00003d9e       0x78 ../tcpip_test_bsp/\libucosii_bsp.a(alt_dev.o)
 .debug_pubnames
                0x00003e16       0x2b ../tcpip_test_bsp/\libucosii_bsp.a(alt_dev_llist_insert.o)
 .debug_pubnames
                0x00003e41       0x20 ../tcpip_test_bsp/\libucosii_bsp.a(alt_do_ctors.o)
 .debug_pubnames
                0x00003e61       0x20 ../tcpip_test_bsp/\libucosii_bsp.a(alt_do_dtors.o)
 .debug_pubnames
                0x00003e81       0x20 ../tcpip_test_bsp/\libucosii_bsp.a(alt_errno.o)
 .debug_pubnames
                0x00003ea1       0x23 ../tcpip_test_bsp/\libucosii_bsp.a(alt_find_dev.o)
 .debug_pubnames
                0x00003ec4       0x2b ../tcpip_test_bsp/\libucosii_bsp.a(alt_icache_flush_all.o)
 .debug_pubnames
                0x00003eef       0x6e ../tcpip_test_bsp/\libucosii_bsp.a(alt_iic.o)
 .debug_pubnames
                0x00003f5d       0x2b ../tcpip_test_bsp/\libucosii_bsp.a(alt_iic_isr_register.o)
 .debug_pubnames
                0x00003f88       0x26 ../tcpip_test_bsp/\libucosii_bsp.a(alt_io_redirect.o)
 .debug_pubnames
                0x00003fae       0x32 ../tcpip_test_bsp/\libucosii_bsp.a(alt_irq_handler.o)
 .debug_pubnames
                0x00003fe0       0x3b ../tcpip_test_bsp/\libucosii_bsp.a(alt_irq_vars.o)
 .debug_pubnames
                0x0000401b       0x1b ../tcpip_test_bsp/\libucosii_bsp.a(alt_open.o)
 .debug_pubnames
                0x00004036       0x1f ../tcpip_test_bsp/\libucosii_bsp.a(alt_read.o)
 .debug_pubnames
                0x00004055       0x25 ../tcpip_test_bsp/\libucosii_bsp.a(alt_release_fd.o)
 .debug_pubnames
                0x0000407a       0x27 ../tcpip_test_bsp/\libucosii_bsp.a(alt_remap_cached.o)
 .debug_pubnames
                0x000040a1       0x29 ../tcpip_test_bsp/\libucosii_bsp.a(alt_remap_uncached.o)
 .debug_pubnames
                0x000040ca       0x68 ../tcpip_test_bsp/\libucosii_bsp.a(alt_tick.o)
 .debug_pubnames
                0x00004132       0x2a ../tcpip_test_bsp/\libucosii_bsp.a(alt_uncached_malloc.o)
 .debug_pubnames
                0x0000415c       0x1d ../tcpip_test_bsp/\libucosii_bsp.a(alt_usleep.o)
 .debug_pubnames
                0x00004179       0x20 ../tcpip_test_bsp/\libucosii_bsp.a(alt_write.o)
 .debug_pubnames
                0x00004199       0x2c ../tcpip_test_bsp/\libucosii_bsp.a(altera_nios2_irq.o)
 .debug_pubnames
                0x000041c5       0xcd ../tcpip_test_bsp/\libucosii_bsp.a(os_cpu_c.o)
 .debug_pubnames
                0x00004292       0xd4 ../tcpip_test_bsp/\libucosii_bsp.a(allports.o)
 .debug_pubnames
                0x00004366       0x6f ../tcpip_test_bsp/\libucosii_bsp.a(timeouts.o)
 .debug_pubnames
                0x000043d5       0x35 ../tcpip_test_bsp/\libucosii_bsp.a(tk_misc.o)
 .debug_pubnames
                0x0000440a       0x1c ../tcpip_test_bsp/\libucosii_bsp.a(alt_iniche_fcntl.o)
 .debug_pubnames
                0x00004426      0x134 ../tcpip_test_bsp/\libucosii_bsp.a(et_arp.o)
 .debug_pubnames
                0x0000455a       0x58 ../tcpip_test_bsp/\libucosii_bsp.a(iface.o)
 .debug_pubnames
                0x000045b2       0xea ../tcpip_test_bsp/\libucosii_bsp.a(ip.o)
 .debug_pubnames
                0x0000469c      0x22e ../tcpip_test_bsp/\libucosii_bsp.a(ip_reasm.o)
 .debug_pubnames
                0x000048ca       0x3c ../tcpip_test_bsp/\libucosii_bsp.a(ipdemux.o)
 .debug_pubnames
                0x00004906       0x43 ../tcpip_test_bsp/\libucosii_bsp.a(ipmc.o)
 .debug_pubnames
                0x00004949       0x99 ../tcpip_test_bsp/\libucosii_bsp.a(ipport.o)
 .debug_pubnames
                0x000049e2       0x87 ../tcpip_test_bsp/\libucosii_bsp.a(ipraw.o)
 .debug_pubnames
                0x00004a69       0x5d ../tcpip_test_bsp/\libucosii_bsp.a(iproute.o)
 .debug_pubnames
                0x00004ac6       0x7f ../tcpip_test_bsp/\libucosii_bsp.a(udp.o)
 .debug_pubnames
                0x00004b45       0x23 ../tcpip_test_bsp/\libucosii_bsp.a(igmp.o)
 .debug_pubnames
                0x00004b68       0x8d ../tcpip_test_bsp/\libucosii_bsp.a(igmp2.o)
 .debug_pubnames
                0x00004bf5       0x5f ../tcpip_test_bsp/\libucosii_bsp.a(ipopt.o)
 .debug_pubnames
                0x00004c54       0x35 ../tcpip_test_bsp/\libucosii_bsp.a(u_mctest.o)
 .debug_pubnames
                0x00004c89       0x33 ../tcpip_test_bsp/\libucosii_bsp.a(dhcsetup.o)
 .debug_pubnames
                0x00004cbc       0xb1 ../tcpip_test_bsp/\libucosii_bsp.a(memdev.o)
 .debug_pubnames
                0x00004d6d       0xa6 ../tcpip_test_bsp/\libucosii_bsp.a(parseip.o)
 .debug_pubnames
                0x00004e13       0x20 ../tcpip_test_bsp/\libucosii_bsp.a(tcpcksum.o)
 .debug_pubnames
                0x00004e33       0xc8 ../tcpip_test_bsp/\libucosii_bsp.a(in_pcb.o)
 .debug_pubnames
                0x00004efb      0x278 ../tcpip_test_bsp/\libucosii_bsp.a(vfsfiles.o)
 .debug_pubnames
                0x00005173       0x1f ../tcpip_test_bsp/\libucosii_bsp.a(vfsport.o)
 .debug_pubnames
                0x00005192       0x25 ../tcpip_test_bsp/\libucosii_bsp.a(alt_busy_sleep.o)
 .debug_pubnames
                0x000051b7       0x27 ../tcpip_test_bsp/\libucosii_bsp.a(alt_dcache_flush.o)
 .debug_pubnames
                0x000051de       0x20 ../tcpip_test_bsp/\libucosii_bsp.a(alt_fcntl.o)
 .debug_pubnames
                0x000051fe       0x24 ../tcpip_test_bsp/\libucosii_bsp.a(alt_find_file.o)
 .debug_pubnames
                0x00005222       0x21 ../tcpip_test_bsp/\libucosii_bsp.a(alt_get_fd.o)
 .debug_pubnames
                0x00005243       0x27 ../tcpip_test_bsp/\libucosii_bsp.a(alt_icache_flush.o)
 .debug_pubnames
                0x0000526a       0x66 ../tcpip_test_bsp/\libucosii_bsp.a(icmp.o)
 .debug_pubnames
                0x000052d0       0x2a c:/altera/11.0sp1/nios2eds/bin/gnu/h-i686-mingw32/bin/../lib/gcc/nios2-elf/4.1.2/../../../../nios2-elf/lib\libc.a(lib_a-atexit.o)
 .debug_pubnames
                0x000052fa       0x27 c:/altera/11.0sp1/nios2eds/bin/gnu/h-i686-mingw32/bin/../lib/gcc/nios2-elf/4.1.2/../../../../nios2-elf/lib\libc.a(lib_a-atoi.o)
 .debug_pubnames
                0x00005321       0x1d c:/altera/11.0sp1/nios2eds/bin/gnu/h-i686-mingw32/bin/../lib/gcc/nios2-elf/4.1.2/../../../../nios2-elf/lib\libc.a(lib_a-calloc.o)
 .debug_pubnames
                0x0000533e       0x1b c:/altera/11.0sp1/nios2eds/bin/gnu/h-i686-mingw32/bin/../lib/gcc/nios2-elf/4.1.2/../../../../nios2-elf/lib\libc.a(lib_a-exit.o)
 .debug_pubnames
                0x00005359       0x27 c:/altera/11.0sp1/nios2eds/bin/gnu/h-i686-mingw32/bin/../lib/gcc/nios2-elf/4.1.2/../../../../nios2-elf/lib\libc.a(lib_a-getc.o)
 .debug_pubnames
                0x00005380       0x26 c:/altera/11.0sp1/nios2eds/bin/gnu/h-i686-mingw32/bin/../lib/gcc/nios2-elf/4.1.2/../../../../nios2-elf/lib\libc.a(lib_a-malloc.o)
 .debug_pubnames
                0x000053a6       0x1d c:/altera/11.0sp1/nios2eds/bin/gnu/h-i686-mingw32/bin/../lib/gcc/nios2-elf/4.1.2/../../../../nios2-elf/lib\libc.a(lib_a-memcmp.o)
 .debug_pubnames
                0x000053c3       0x2c c:/altera/11.0sp1/nios2eds/bin/gnu/h-i686-mingw32/bin/../lib/gcc/nios2-elf/4.1.2/../../../../nios2-elf/lib\libc.a(lib_a-rget.o)
 .debug_pubnames
                0x000053ef       0x1d c:/altera/11.0sp1/nios2eds/bin/gnu/h-i686-mingw32/bin/../lib/gcc/nios2-elf/4.1.2/../../../../nios2-elf/lib\libc.a(lib_a-strcpy.o)
 .debug_pubnames
                0x0000540c       0x1e c:/altera/11.0sp1/nios2eds/bin/gnu/h-i686-mingw32/bin/../lib/gcc/nios2-elf/4.1.2/../../../../nios2-elf/lib\libc.a(lib_a-strncmp.o)
 .debug_pubnames
                0x0000542a       0x1e c:/altera/11.0sp1/nios2eds/bin/gnu/h-i686-mingw32/bin/../lib/gcc/nios2-elf/4.1.2/../../../../nios2-elf/lib\libc.a(lib_a-strncpy.o)
 .debug_pubnames
                0x00005448       0x2b c:/altera/11.0sp1/nios2eds/bin/gnu/h-i686-mingw32/bin/../lib/gcc/nios2-elf/4.1.2/../../../../nios2-elf/lib\libc.a(lib_a-strtol.o)
 .debug_pubnames
                0x00005473       0x2d c:/altera/11.0sp1/nios2eds/bin/gnu/h-i686-mingw32/bin/../lib/gcc/nios2-elf/4.1.2/../../../../nios2-elf/lib\libc.a(lib_a-vprintf.o)
 .debug_pubnames
                0x000054a0       0x2f c:/altera/11.0sp1/nios2eds/bin/gnu/h-i686-mingw32/bin/../lib/gcc/nios2-elf/4.1.2/../../../../nios2-elf/lib\libc.a(lib_a-vsprintf.o)
 .debug_pubnames
                0x000054cf       0x2a c:/altera/11.0sp1/nios2eds/bin/gnu/h-i686-mingw32/bin/../lib/gcc/nios2-elf/4.1.2/../../../../nios2-elf/lib\libc.a(lib_a-__atexit.o)
 .debug_pubnames
                0x000054f9       0x27 c:/altera/11.0sp1/nios2eds/bin/gnu/h-i686-mingw32/bin/../lib/gcc/nios2-elf/4.1.2/../../../../nios2-elf/lib\libc.a(lib_a-__call_atexit.o)
 .debug_pubnames
                0x00005520       0x22 c:/altera/11.0sp1/nios2eds/bin/gnu/h-i686-mingw32/bin/../lib/gcc/nios2-elf/4.1.2/../../../../nios2-elf/lib\libc.a(lib_a-refill.o)
 .debug_pubnames
                0x00005542       0x1c ../tcpip_test_bsp/\libucosii_bsp.a(alt_exit.o)

.debug_info     0x00000000    0x7af3e
 *(.debug_info .gnu.linkonce.wi.*)
 .debug_info    0x00000000       0x70 ../tcpip_test_bsp//obj/HAL/src/crt0.o
 .debug_info    0x00000070      0xd65 obj/alt_error_handler.o
 .debug_info    0x00000dd5      0x348 obj/iniche_init.o
 .debug_info    0x0000111d      0x413 obj/led.o
 .debug_info    0x00001530      0xb86 obj/network_utilities.o
 .debug_info    0x000020b6      0x912 obj/simple_socket_server.o
 .debug_info    0x000029c8     0x12fb obj/tse_my_system.o
 .debug_info    0x00003cc3       0xa0 c:/altera/11.0sp1/nios2eds/bin/gnu/h-i686-mingw32/bin/../lib/gcc/nios2-elf/4.1.2/../../../../nios2-elf/lib\libc.a(lib_a-ctype_.o)
 .debug_info    0x00003d63      0x9e1 c:/altera/11.0sp1/nios2eds/bin/gnu/h-i686-mingw32/bin/../lib/gcc/nios2-elf/4.1.2/../../../../nios2-elf/lib\libc.a(lib_a-fprintf.o)
 .debug_info    0x00004744      0xa83 c:/altera/11.0sp1/nios2eds/bin/gnu/h-i686-mingw32/bin/../lib/gcc/nios2-elf/4.1.2/../../../../nios2-elf/lib\libc.a(lib_a-fwrite.o)
 .debug_info    0x000051c7      0x93d c:/altera/11.0sp1/nios2eds/bin/gnu/h-i686-mingw32/bin/../lib/gcc/nios2-elf/4.1.2/../../../../nios2-elf/lib\libc.a(lib_a-impure.o)
 .debug_info    0x00005b04      0x106 c:/altera/11.0sp1/nios2eds/bin/gnu/h-i686-mingw32/bin/../lib/gcc/nios2-elf/4.1.2/../../../../nios2-elf/lib\libc.a(lib_a-memcpy.o)
 .debug_info    0x00005c0a      0x13e c:/altera/11.0sp1/nios2eds/bin/gnu/h-i686-mingw32/bin/../lib/gcc/nios2-elf/4.1.2/../../../../nios2-elf/lib\libc.a(lib_a-memmove.o)
 .debug_info    0x00005d48      0x113 c:/altera/11.0sp1/nios2eds/bin/gnu/h-i686-mingw32/bin/../lib/gcc/nios2-elf/4.1.2/../../../../nios2-elf/lib\libc.a(lib_a-memset.o)
 .debug_info    0x00005e5b      0x97b c:/altera/11.0sp1/nios2eds/bin/gnu/h-i686-mingw32/bin/../lib/gcc/nios2-elf/4.1.2/../../../../nios2-elf/lib\libc.a(lib_a-perror.o)
 .debug_info    0x000067d6      0x9d1 c:/altera/11.0sp1/nios2eds/bin/gnu/h-i686-mingw32/bin/../lib/gcc/nios2-elf/4.1.2/../../../../nios2-elf/lib\libc.a(lib_a-printf.o)
 .debug_info    0x000071a7      0xa25 c:/altera/11.0sp1/nios2eds/bin/gnu/h-i686-mingw32/bin/../lib/gcc/nios2-elf/4.1.2/../../../../nios2-elf/lib\libc.a(lib_a-puts.o)
 .debug_info    0x00007bcc      0xa16 c:/altera/11.0sp1/nios2eds/bin/gnu/h-i686-mingw32/bin/../lib/gcc/nios2-elf/4.1.2/../../../../nios2-elf/lib\libc.a(lib_a-sprintf.o)
 .debug_info    0x000085e2      0x118 c:/altera/11.0sp1/nios2eds/bin/gnu/h-i686-mingw32/bin/../lib/gcc/nios2-elf/4.1.2/../../../../nios2-elf/lib\libc.a(lib_a-strchr.o)
 .debug_info    0x000086fa       0xbb c:/altera/11.0sp1/nios2eds/bin/gnu/h-i686-mingw32/bin/../lib/gcc/nios2-elf/4.1.2/../../../../nios2-elf/lib\libc.a(lib_a-strerror.o)
 .debug_info    0x000087b5       0xdb c:/altera/11.0sp1/nios2eds/bin/gnu/h-i686-mingw32/bin/../lib/gcc/nios2-elf/4.1.2/../../../../nios2-elf/lib\libc.a(lib_a-strlen.o)
 .debug_info    0x00008890       0x63 c:/altera/11.0sp1/nios2eds/bin/gnu/h-i686-mingw32/bin/../lib/gcc/nios2-elf/4.1.2/../../../../nios2-elf/lib\libc.a(lib_a-u_strerr.o)
 .debug_info    0x000088f3     0x10d5 c:/altera/11.0sp1/nios2eds/bin/gnu/h-i686-mingw32/bin/../lib/gcc/nios2-elf/4.1.2/../../../../nios2-elf/lib\libc.a(lib_a-vfprintf.o)
 .debug_info    0x000099c8      0x95d c:/altera/11.0sp1/nios2eds/bin/gnu/h-i686-mingw32/bin/../lib/gcc/nios2-elf/4.1.2/../../../../nios2-elf/lib\libc.a(lib_a-wsetup.o)
 .debug_info    0x0000a325      0xd6f c:/altera/11.0sp1/nios2eds/bin/gnu/h-i686-mingw32/bin/../lib/gcc/nios2-elf/4.1.2/../../../../nios2-elf/lib\libc.a(lib_a-dtoa.o)
 .debug_info    0x0000b094      0x9fe c:/altera/11.0sp1/nios2eds/bin/gnu/h-i686-mingw32/bin/../lib/gcc/nios2-elf/4.1.2/../../../../nios2-elf/lib\libc.a(lib_a-fflush.o)
 .debug_info    0x0000ba92      0xb72 c:/altera/11.0sp1/nios2eds/bin/gnu/h-i686-mingw32/bin/../lib/gcc/nios2-elf/4.1.2/../../../../nios2-elf/lib\libc.a(lib_a-findfp.o)
 .debug_info    0x0000c604      0x9bd c:/altera/11.0sp1/nios2eds/bin/gnu/h-i686-mingw32/bin/../lib/gcc/nios2-elf/4.1.2/../../../../nios2-elf/lib\libc.a(lib_a-fputc.o)
 .debug_info    0x0000cfc1      0xa40 c:/altera/11.0sp1/nios2eds/bin/gnu/h-i686-mingw32/bin/../lib/gcc/nios2-elf/4.1.2/../../../../nios2-elf/lib\libc.a(lib_a-fputs.o)
 .debug_info    0x0000da01      0xbc9 c:/altera/11.0sp1/nios2eds/bin/gnu/h-i686-mingw32/bin/../lib/gcc/nios2-elf/4.1.2/../../../../nios2-elf/lib\libc.a(lib_a-freer.o)
 .debug_info    0x0000e5ca      0xa88 c:/altera/11.0sp1/nios2eds/bin/gnu/h-i686-mingw32/bin/../lib/gcc/nios2-elf/4.1.2/../../../../nios2-elf/lib\libc.a(lib_a-fvwrite.o)
 .debug_info    0x0000f052      0xaed c:/altera/11.0sp1/nios2eds/bin/gnu/h-i686-mingw32/bin/../lib/gcc/nios2-elf/4.1.2/../../../../nios2-elf/lib\libc.a(lib_a-fwalk.o)
 .debug_info    0x0000fb3f      0xb97 c:/altera/11.0sp1/nios2eds/bin/gnu/h-i686-mingw32/bin/../lib/gcc/nios2-elf/4.1.2/../../../../nios2-elf/lib\libc.a(lib_a-locale.o)
 .debug_info    0x000106d6      0xb1a c:/altera/11.0sp1/nios2eds/bin/gnu/h-i686-mingw32/bin/../lib/gcc/nios2-elf/4.1.2/../../../../nios2-elf/lib\libc.a(lib_a-makebuf.o)
 .debug_info    0x000111f0      0xcd0 c:/altera/11.0sp1/nios2eds/bin/gnu/h-i686-mingw32/bin/../lib/gcc/nios2-elf/4.1.2/../../../../nios2-elf/lib\libc.a(lib_a-mallocr.o)
 .debug_info    0x00011ec0      0x138 c:/altera/11.0sp1/nios2eds/bin/gnu/h-i686-mingw32/bin/../lib/gcc/nios2-elf/4.1.2/../../../../nios2-elf/lib\libc.a(lib_a-memchr.o)
 .debug_info    0x00011ff8     0x1437 c:/altera/11.0sp1/nios2eds/bin/gnu/h-i686-mingw32/bin/../lib/gcc/nios2-elf/4.1.2/../../../../nios2-elf/lib\libc.a(lib_a-mprec.o)
 .debug_info    0x0001342f      0x9c1 c:/altera/11.0sp1/nios2eds/bin/gnu/h-i686-mingw32/bin/../lib/gcc/nios2-elf/4.1.2/../../../../nios2-elf/lib\libc.a(lib_a-putc.o)
 .debug_info    0x00013df0      0xbd7 c:/altera/11.0sp1/nios2eds/bin/gnu/h-i686-mingw32/bin/../lib/gcc/nios2-elf/4.1.2/../../../../nios2-elf/lib\libc.a(lib_a-reallocr.o)
 .debug_info    0x000149c7       0xd7 c:/altera/11.0sp1/nios2eds/bin/gnu/h-i686-mingw32/bin/../lib/gcc/nios2-elf/4.1.2/../../../../nios2-elf/lib\libc.a(lib_a-s_isinfd.o)
 .debug_info    0x00014a9e       0xd5 c:/altera/11.0sp1/nios2eds/bin/gnu/h-i686-mingw32/bin/../lib/gcc/nios2-elf/4.1.2/../../../../nios2-elf/lib\libc.a(lib_a-s_isnand.o)
 .debug_info    0x00014b73      0x962 c:/altera/11.0sp1/nios2eds/bin/gnu/h-i686-mingw32/bin/../lib/gcc/nios2-elf/4.1.2/../../../../nios2-elf/lib\libc.a(lib_a-sbrkr.o)
 .debug_info    0x000154d5      0xaac c:/altera/11.0sp1/nios2eds/bin/gnu/h-i686-mingw32/bin/../lib/gcc/nios2-elf/4.1.2/../../../../nios2-elf/lib\libc.a(lib_a-stdio.o)
 .debug_info    0x00015f81       0xdd c:/altera/11.0sp1/nios2eds/bin/gnu/h-i686-mingw32/bin/../lib/gcc/nios2-elf/4.1.2/../../../../nios2-elf/lib\libc.a(lib_a-strcmp.o)
 .debug_info    0x0001605e      0x9ae c:/altera/11.0sp1/nios2eds/bin/gnu/h-i686-mingw32/bin/../lib/gcc/nios2-elf/4.1.2/../../../../nios2-elf/lib\libc.a(lib_a-wbuf.o)
 .debug_info    0x00016a0c      0x993 c:/altera/11.0sp1/nios2eds/bin/gnu/h-i686-mingw32/bin/../lib/gcc/nios2-elf/4.1.2/../../../../nios2-elf/lib\libc.a(lib_a-writer.o)
 .debug_info    0x0001739f      0xa1b c:/altera/11.0sp1/nios2eds/bin/gnu/h-i686-mingw32/bin/../lib/gcc/nios2-elf/4.1.2/../../../../nios2-elf/lib\libc.a(lib_a-callocr.o)
 .debug_info    0x00017dba      0x958 c:/altera/11.0sp1/nios2eds/bin/gnu/h-i686-mingw32/bin/../lib/gcc/nios2-elf/4.1.2/../../../../nios2-elf/lib\libc.a(lib_a-closer.o)
 .debug_info    0x00018712      0x994 c:/altera/11.0sp1/nios2eds/bin/gnu/h-i686-mingw32/bin/../lib/gcc/nios2-elf/4.1.2/../../../../nios2-elf/lib\libc.a(lib_a-fclose.o)
 .debug_info    0x000190a6      0xafc c:/altera/11.0sp1/nios2eds/bin/gnu/h-i686-mingw32/bin/../lib/gcc/nios2-elf/4.1.2/../../../../nios2-elf/lib\libc.a(lib_a-fstatr.o)
 .debug_info    0x00019ba2       0x8c c:/altera/11.0sp1/nios2eds/bin/gnu/h-i686-mingw32/bin/../lib/gcc/nios2-elf/4.1.2/../../../../nios2-elf/lib\libc.a(lib_a-int_errno.o)
 .debug_info    0x00019c2e      0x958 c:/altera/11.0sp1/nios2eds/bin/gnu/h-i686-mingw32/bin/../lib/gcc/nios2-elf/4.1.2/../../../../nios2-elf/lib\libc.a(lib_a-isattyr.o)
 .debug_info    0x0001a586      0x981 c:/altera/11.0sp1/nios2eds/bin/gnu/h-i686-mingw32/bin/../lib/gcc/nios2-elf/4.1.2/../../../../nios2-elf/lib\libc.a(lib_a-lseekr.o)
 .debug_info    0x0001af07      0x98c c:/altera/11.0sp1/nios2eds/bin/gnu/h-i686-mingw32/bin/../lib/gcc/nios2-elf/4.1.2/../../../../nios2-elf/lib\libc.a(lib_a-readr.o)
 .debug_info    0x0001b893      0x724 c:/altera/11.0sp1/nios2eds/bin/gnu/h-i686-mingw32/bin/../lib/gcc/nios2-elf/4.1.2\libgcc.a(_udivdi3.o)
 .debug_info    0x0001bfb7      0x751 c:/altera/11.0sp1/nios2eds/bin/gnu/h-i686-mingw32/bin/../lib/gcc/nios2-elf/4.1.2\libgcc.a(_umoddi3.o)
 .debug_info    0x0001c708      0x493 c:/altera/11.0sp1/nios2eds/bin/gnu/h-i686-mingw32/bin/../lib/gcc/nios2-elf/4.1.2\libgcc.a(_addsub_df.o)
 .debug_info    0x0001cb9b      0x488 c:/altera/11.0sp1/nios2eds/bin/gnu/h-i686-mingw32/bin/../lib/gcc/nios2-elf/4.1.2\libgcc.a(_mul_df.o)
 .debug_info    0x0001d023      0x39b c:/altera/11.0sp1/nios2eds/bin/gnu/h-i686-mingw32/bin/../lib/gcc/nios2-elf/4.1.2\libgcc.a(_div_df.o)
 .debug_info    0x0001d3be      0x29d c:/altera/11.0sp1/nios2eds/bin/gnu/h-i686-mingw32/bin/../lib/gcc/nios2-elf/4.1.2\libgcc.a(_eq_df.o)
 .debug_info    0x0001d65b      0x29d c:/altera/11.0sp1/nios2eds/bin/gnu/h-i686-mingw32/bin/../lib/gcc/nios2-elf/4.1.2\libgcc.a(_ne_df.o)
 .debug_info    0x0001d8f8      0x29d c:/altera/11.0sp1/nios2eds/bin/gnu/h-i686-mingw32/bin/../lib/gcc/nios2-elf/4.1.2\libgcc.a(_gt_df.o)
 .debug_info    0x0001db95      0x29d c:/altera/11.0sp1/nios2eds/bin/gnu/h-i686-mingw32/bin/../lib/gcc/nios2-elf/4.1.2\libgcc.a(_ge_df.o)
 .debug_info    0x0001de32      0x29d c:/altera/11.0sp1/nios2eds/bin/gnu/h-i686-mingw32/bin/../lib/gcc/nios2-elf/4.1.2\libgcc.a(_lt_df.o)
 .debug_info    0x0001e0cf      0x218 c:/altera/11.0sp1/nios2eds/bin/gnu/h-i686-mingw32/bin/../lib/gcc/nios2-elf/4.1.2\libgcc.a(_si_to_df.o)
 .debug_info    0x0001e2e7      0x2cd c:/altera/11.0sp1/nios2eds/bin/gnu/h-i686-mingw32/bin/../lib/gcc/nios2-elf/4.1.2\libgcc.a(_df_to_si.o)
 .debug_info    0x0001e5b4      0x164 c:/altera/11.0sp1/nios2eds/bin/gnu/h-i686-mingw32/bin/../lib/gcc/nios2-elf/4.1.2\libgcc.a(_thenan_df.o)
 .debug_info    0x0001e718      0x213 c:/altera/11.0sp1/nios2eds/bin/gnu/h-i686-mingw32/bin/../lib/gcc/nios2-elf/4.1.2\libgcc.a(_usi_to_df.o)
 .debug_info    0x0001e92b      0x21c c:/altera/11.0sp1/nios2eds/bin/gnu/h-i686-mingw32/bin/../lib/gcc/nios2-elf/4.1.2\libgcc.a(lib2-divmod.o)
 .debug_info    0x0001eb47      0x215 c:/altera/11.0sp1/nios2eds/bin/gnu/h-i686-mingw32/bin/../lib/gcc/nios2-elf/4.1.2\libgcc.a(_muldi3.o)
 .debug_info    0x0001ed5c       0xc9 c:/altera/11.0sp1/nios2eds/bin/gnu/h-i686-mingw32/bin/../lib/gcc/nios2-elf/4.1.2\libgcc.a(_clz.o)
 .debug_info    0x0001ee25      0x130 c:/altera/11.0sp1/nios2eds/bin/gnu/h-i686-mingw32/bin/../lib/gcc/nios2-elf/4.1.2\libgcc.a(_clzsi2.o)
 .debug_info    0x0001ef55      0x2fc c:/altera/11.0sp1/nios2eds/bin/gnu/h-i686-mingw32/bin/../lib/gcc/nios2-elf/4.1.2\libgcc.a(_pack_df.o)
 .debug_info    0x0001f251      0x268 c:/altera/11.0sp1/nios2eds/bin/gnu/h-i686-mingw32/bin/../lib/gcc/nios2-elf/4.1.2\libgcc.a(_unpack_df.o)
 .debug_info    0x0001f4b9      0x21b c:/altera/11.0sp1/nios2eds/bin/gnu/h-i686-mingw32/bin/../lib/gcc/nios2-elf/4.1.2\libgcc.a(_fpcmp_parts_df.o)
 .debug_info    0x0001f6d4      0x6a9 ../tcpip_test_bsp/\libucosii_bsp.a(alt_fstat.o)
 .debug_info    0x0001fd7d      0x6af ../tcpip_test_bsp/\libucosii_bsp.a(alt_isatty.o)
 .debug_info    0x0002042c      0x282 ../tcpip_test_bsp/\libucosii_bsp.a(alt_load.o)
 .debug_info    0x000206ae      0x4e3 ../tcpip_test_bsp/\libucosii_bsp.a(alt_lseek.o)
 .debug_info    0x00020b91      0x3d2 ../tcpip_test_bsp/\libucosii_bsp.a(alt_main.o)
 .debug_info    0x00020f63      0x2ac ../tcpip_test_bsp/\libucosii_bsp.a(alt_sbrk.o)
 .debug_info    0x0002120f     0x11c8 ../tcpip_test_bsp/\libucosii_bsp.a(alt_env_lock.o)
 .debug_info    0x000223d7     0x1324 ../tcpip_test_bsp/\libucosii_bsp.a(alt_malloc_lock.o)
 .debug_info    0x000236fb     0x1bde ../tcpip_test_bsp/\libucosii_bsp.a(os_core.o)
 .debug_info    0x000252d9     0x1123 ../tcpip_test_bsp/\libucosii_bsp.a(os_dbg.o)
 .debug_info    0x000263fc     0x1239 ../tcpip_test_bsp/\libucosii_bsp.a(os_flag.o)
 .debug_info    0x00027635      0x803 ../tcpip_test_bsp/\libucosii_bsp.a(os_mem.o)
 .debug_info    0x00027e38     0x1073 ../tcpip_test_bsp/\libucosii_bsp.a(os_q.o)
 .debug_info    0x00028eab      0xcdb ../tcpip_test_bsp/\libucosii_bsp.a(os_sem.o)
 .debug_info    0x00029b86     0x1351 ../tcpip_test_bsp/\libucosii_bsp.a(os_task.o)
 .debug_info    0x0002aed7      0x9d5 ../tcpip_test_bsp/\libucosii_bsp.a(os_time.o)
 .debug_info    0x0002b8ac     0x1630 ../tcpip_test_bsp/\libucosii_bsp.a(alt_sys_init.o)
 .debug_info    0x0002cedc      0x9c7 ../tcpip_test_bsp/\libucosii_bsp.a(altera_avalon_jtag_uart_fd.o)
 .debug_info    0x0002d8a3      0x945 ../tcpip_test_bsp/\libucosii_bsp.a(altera_avalon_jtag_uart_init.o)
 .debug_info    0x0002e1e8      0x631 ../tcpip_test_bsp/\libucosii_bsp.a(altera_avalon_jtag_uart_ioctl.o)
 .debug_info    0x0002e819      0x7ed ../tcpip_test_bsp/\libucosii_bsp.a(altera_avalon_jtag_uart_read.o)
 .debug_info    0x0002f006      0x7e4 ../tcpip_test_bsp/\libucosii_bsp.a(altera_avalon_jtag_uart_write.o)
 .debug_info    0x0002f7ea      0xf14 ../tcpip_test_bsp/\libucosii_bsp.a(altera_avalon_sgdma.o)
 .debug_info    0x000306fe      0x380 ../tcpip_test_bsp/\libucosii_bsp.a(altera_avalon_timer_sc.o)
 .debug_info    0x00030a7e     0x3103 ../tcpip_test_bsp/\libucosii_bsp.a(altera_avalon_tse.o)
 .debug_info    0x00033b81      0xfdf ../tcpip_test_bsp/\libucosii_bsp.a(altera_avalon_tse_system_info.o)
 .debug_info    0x00034b60     0x2b31 ../tcpip_test_bsp/\libucosii_bsp.a(ins_tse_mac.o)
 .debug_info    0x00037691      0x1ab ../tcpip_test_bsp/\libucosii_bsp.a(alt_iniche_close.o)
 .debug_info    0x0003783c      0xb52 ../tcpip_test_bsp/\libucosii_bsp.a(alt_iniche_dev.o)
 .debug_info    0x0003838e      0x1d5 ../tcpip_test_bsp/\libucosii_bsp.a(alt_iniche_read.o)
 .debug_info    0x00038563      0x1dc ../tcpip_test_bsp/\libucosii_bsp.a(alt_iniche_write.o)
 .debug_info    0x0003873f      0xc3e ../tcpip_test_bsp/\libucosii_bsp.a(ipnet.o)
 .debug_info    0x0003937d      0xb91 ../tcpip_test_bsp/\libucosii_bsp.a(ipstart.o)
 .debug_info    0x00039f0e     0x1525 ../tcpip_test_bsp/\libucosii_bsp.a(igmp_cmn.o)
 .debug_info    0x0003b433     0x1455 ../tcpip_test_bsp/\libucosii_bsp.a(bsdsock.o)
 .debug_info    0x0003c888      0x247 ../tcpip_test_bsp/\libucosii_bsp.a(cksum.o)
 .debug_info    0x0003cacf      0x739 ../tcpip_test_bsp/\libucosii_bsp.a(in_utils.o)
 .debug_info    0x0003d208      0x553 ../tcpip_test_bsp/\libucosii_bsp.a(netmain.o)
 .debug_info    0x0003d75b      0x960 ../tcpip_test_bsp/\libucosii_bsp.a(tk_crnos.o)
 .debug_info    0x0003e0bb     0x15ee ../tcpip_test_bsp/\libucosii_bsp.a(dhcpclnt.o)
 .debug_info    0x0003f6a9      0x1d1 ../tcpip_test_bsp/\libucosii_bsp.a(dhcputil.o)
 .debug_info    0x0003f87a      0xc9d ../tcpip_test_bsp/\libucosii_bsp.a(pktalloc.o)
 .debug_info    0x00040517      0x2e1 ../tcpip_test_bsp/\libucosii_bsp.a(q.o)
 .debug_info    0x000407f8      0xb1c ../tcpip_test_bsp/\libucosii_bsp.a(udp_open.o)
 .debug_info    0x00041314       0x82 ../tcpip_test_bsp/\libucosii_bsp.a(asm_cksum.o)
 .debug_info    0x00041396      0xea2 ../tcpip_test_bsp/\libucosii_bsp.a(brdutils.o)
 .debug_info    0x00042238      0x6d4 ../tcpip_test_bsp/\libucosii_bsp.a(osportco.o)
 .debug_info    0x0004290c      0x651 ../tcpip_test_bsp/\libucosii_bsp.a(targnios.o)
 .debug_info    0x00042f5d     0x2518 ../tcpip_test_bsp/\libucosii_bsp.a(nptcp.o)
 .debug_info    0x00045475     0x11d0 ../tcpip_test_bsp/\libucosii_bsp.a(rawsock.o)
 .debug_info    0x00046645     0x1c8e ../tcpip_test_bsp/\libucosii_bsp.a(sockcall.o)
 .debug_info    0x000482d3     0x1a94 ../tcpip_test_bsp/\libucosii_bsp.a(socket.o)
 .debug_info    0x00049d67     0x155a ../tcpip_test_bsp/\libucosii_bsp.a(socket2.o)
 .debug_info    0x0004b2c1     0x1273 ../tcpip_test_bsp/\libucosii_bsp.a(soselect.o)
 .debug_info    0x0004c534     0x2125 ../tcpip_test_bsp/\libucosii_bsp.a(tcp_in.o)
 .debug_info    0x0004e659     0x1e14 ../tcpip_test_bsp/\libucosii_bsp.a(tcp_out.o)
 .debug_info    0x0005046d     0x1e7c ../tcpip_test_bsp/\libucosii_bsp.a(tcp_subr.o)
 .debug_info    0x000522e9     0x1c97 ../tcpip_test_bsp/\libucosii_bsp.a(tcp_timr.o)
 .debug_info    0x00053f80     0x1c54 ../tcpip_test_bsp/\libucosii_bsp.a(tcp_usr.o)
 .debug_info    0x00055bd4      0x1a7 ../tcpip_test_bsp/\libucosii_bsp.a(tcpport.o)
 .debug_info    0x00055d7b     0x132a ../tcpip_test_bsp/\libucosii_bsp.a(udpsock.o)
 .debug_info    0x000570a5      0x437 ../tcpip_test_bsp/\libucosii_bsp.a(alt_alarm_start.o)
 .debug_info    0x000574dc      0x4b4 ../tcpip_test_bsp/\libucosii_bsp.a(alt_close.o)
 .debug_info    0x00057990      0x164 ../tcpip_test_bsp/\libucosii_bsp.a(alt_dcache_flush_all.o)
 .debug_info    0x00057af4      0x7d2 ../tcpip_test_bsp/\libucosii_bsp.a(alt_dev.o)
 .debug_info    0x000582c6      0x2ac ../tcpip_test_bsp/\libucosii_bsp.a(alt_dev_llist_insert.o)
 .debug_info    0x00058572      0x104 ../tcpip_test_bsp/\libucosii_bsp.a(alt_do_ctors.o)
 .debug_info    0x00058676      0x103 ../tcpip_test_bsp/\libucosii_bsp.a(alt_do_dtors.o)
 .debug_info    0x00058779      0x159 ../tcpip_test_bsp/\libucosii_bsp.a(alt_errno.o)
 .debug_info    0x000588d2      0x461 ../tcpip_test_bsp/\libucosii_bsp.a(alt_find_dev.o)
 .debug_info    0x00058d33      0x151 ../tcpip_test_bsp/\libucosii_bsp.a(alt_icache_flush_all.o)
 .debug_info    0x00058e84      0x488 ../tcpip_test_bsp/\libucosii_bsp.a(alt_iic.o)
 .debug_info    0x0005930c      0x309 ../tcpip_test_bsp/\libucosii_bsp.a(alt_iic_isr_register.o)
 .debug_info    0x00059615      0x6de ../tcpip_test_bsp/\libucosii_bsp.a(alt_io_redirect.o)
 .debug_info    0x00059cf3       0x79 ../tcpip_test_bsp/\libucosii_bsp.a(alt_irq_entry.o)
 .debug_info    0x00059d6c      0x2af ../tcpip_test_bsp/\libucosii_bsp.a(alt_irq_handler.o)
 .debug_info    0x0005a01b      0x15c ../tcpip_test_bsp/\libucosii_bsp.a(alt_irq_vars.o)
 .debug_info    0x0005a177      0x55f ../tcpip_test_bsp/\libucosii_bsp.a(alt_open.o)
 .debug_info    0x0005a6d6      0x6d7 ../tcpip_test_bsp/\libucosii_bsp.a(alt_read.o)
 .debug_info    0x0005adad      0x444 ../tcpip_test_bsp/\libucosii_bsp.a(alt_release_fd.o)
 .debug_info    0x0005b1f1      0x186 ../tcpip_test_bsp/\libucosii_bsp.a(alt_remap_cached.o)
 .debug_info    0x0005b377      0x18a ../tcpip_test_bsp/\libucosii_bsp.a(alt_remap_uncached.o)
 .debug_info    0x0005b501      0x406 ../tcpip_test_bsp/\libucosii_bsp.a(alt_tick.o)
 .debug_info    0x0005b907      0x18c ../tcpip_test_bsp/\libucosii_bsp.a(alt_uncached_malloc.o)
 .debug_info    0x0005ba93      0x229 ../tcpip_test_bsp/\libucosii_bsp.a(alt_usleep.o)
 .debug_info    0x0005bcbc      0x6e0 ../tcpip_test_bsp/\libucosii_bsp.a(alt_write.o)
 .debug_info    0x0005c39c      0x14e ../tcpip_test_bsp/\libucosii_bsp.a(altera_nios2_irq.o)
 .debug_info    0x0005c4ea       0x78 ../tcpip_test_bsp/\libucosii_bsp.a(os_cpu_a.o)
 .debug_info    0x0005c562     0x12c8 ../tcpip_test_bsp/\libucosii_bsp.a(os_cpu_c.o)
 .debug_info    0x0005d82a      0xd94 ../tcpip_test_bsp/\libucosii_bsp.a(allports.o)
 .debug_info    0x0005e5be      0x3b6 ../tcpip_test_bsp/\libucosii_bsp.a(timeouts.o)
 .debug_info    0x0005e974      0x215 ../tcpip_test_bsp/\libucosii_bsp.a(tk_misc.o)
 .debug_info    0x0005eb89      0x202 ../tcpip_test_bsp/\libucosii_bsp.a(alt_iniche_fcntl.o)
 .debug_info    0x0005ed8b     0x126e ../tcpip_test_bsp/\libucosii_bsp.a(et_arp.o)
 .debug_info    0x0005fff9      0xf8c ../tcpip_test_bsp/\libucosii_bsp.a(iface.o)
 .debug_info    0x00060f85     0x16f9 ../tcpip_test_bsp/\libucosii_bsp.a(ip.o)
 .debug_info    0x0006267e     0x185d ../tcpip_test_bsp/\libucosii_bsp.a(ip_reasm.o)
 .debug_info    0x00063edb      0xdde ../tcpip_test_bsp/\libucosii_bsp.a(ipdemux.o)
 .debug_info    0x00064cb9      0xa3a ../tcpip_test_bsp/\libucosii_bsp.a(ipmc.o)
 .debug_info    0x000656f3      0x2d8 ../tcpip_test_bsp/\libucosii_bsp.a(ipport.o)
 .debug_info    0x000659cb      0xf4b ../tcpip_test_bsp/\libucosii_bsp.a(ipraw.o)
 .debug_info    0x00066916      0xef6 ../tcpip_test_bsp/\libucosii_bsp.a(iproute.o)
 .debug_info    0x0006780c     0x128d ../tcpip_test_bsp/\libucosii_bsp.a(udp.o)
 .debug_info    0x00068a99     0x1127 ../tcpip_test_bsp/\libucosii_bsp.a(igmp.o)
 .debug_info    0x00069bc0     0x135b ../tcpip_test_bsp/\libucosii_bsp.a(igmp2.o)
 .debug_info    0x0006af1b     0x10d6 ../tcpip_test_bsp/\libucosii_bsp.a(ipopt.o)
 .debug_info    0x0006bff1      0xbae ../tcpip_test_bsp/\libucosii_bsp.a(u_mctest.o)
 .debug_info    0x0006cb9f      0xa4c ../tcpip_test_bsp/\libucosii_bsp.a(dhcsetup.o)
 .debug_info    0x0006d5eb      0x734 ../tcpip_test_bsp/\libucosii_bsp.a(memdev.o)
 .debug_info    0x0006dd1f      0x6df ../tcpip_test_bsp/\libucosii_bsp.a(parseip.o)
 .debug_info    0x0006e3fe      0x3d9 ../tcpip_test_bsp/\libucosii_bsp.a(tcpcksum.o)
 .debug_info    0x0006e7d7     0x12a8 ../tcpip_test_bsp/\libucosii_bsp.a(in_pcb.o)
 .debug_info    0x0006fa7f      0xfd9 ../tcpip_test_bsp/\libucosii_bsp.a(vfsfiles.o)
 .debug_info    0x00070a58      0x1a8 ../tcpip_test_bsp/\libucosii_bsp.a(vfsport.o)
 .debug_info    0x00070c00      0x1a0 ../tcpip_test_bsp/\libucosii_bsp.a(alt_busy_sleep.o)
 .debug_info    0x00070da0      0x199 ../tcpip_test_bsp/\libucosii_bsp.a(alt_dcache_flush.o)
 .debug_info    0x00070f39       0x7f ../tcpip_test_bsp/\libucosii_bsp.a(alt_exception_entry.o)
 .debug_info    0x00070fb8      0x6f5 ../tcpip_test_bsp/\libucosii_bsp.a(alt_fcntl.o)
 .debug_info    0x000716ad      0x468 ../tcpip_test_bsp/\libucosii_bsp.a(alt_find_file.o)
 .debug_info    0x00071b15      0x5fa ../tcpip_test_bsp/\libucosii_bsp.a(alt_get_fd.o)
 .debug_info    0x0007210f      0x199 ../tcpip_test_bsp/\libucosii_bsp.a(alt_icache_flush.o)
 .debug_info    0x000722a8     0x117b ../tcpip_test_bsp/\libucosii_bsp.a(icmp.o)
 .debug_info    0x00073423      0x181 c:/altera/11.0sp1/nios2eds/bin/gnu/h-i686-mingw32/bin/../lib/gcc/nios2-elf/4.1.2/../../../../nios2-elf/lib\libc.a(lib_a-atexit.o)
 .debug_info    0x000735a4      0x960 c:/altera/11.0sp1/nios2eds/bin/gnu/h-i686-mingw32/bin/../lib/gcc/nios2-elf/4.1.2/../../../../nios2-elf/lib\libc.a(lib_a-atoi.o)
 .debug_info    0x00073f04      0x954 c:/altera/11.0sp1/nios2eds/bin/gnu/h-i686-mingw32/bin/../lib/gcc/nios2-elf/4.1.2/../../../../nios2-elf/lib\libc.a(lib_a-calloc.o)
 .debug_info    0x00074858      0x93f c:/altera/11.0sp1/nios2eds/bin/gnu/h-i686-mingw32/bin/../lib/gcc/nios2-elf/4.1.2/../../../../nios2-elf/lib\libc.a(lib_a-exit.o)
 .debug_info    0x00075197      0x9a7 c:/altera/11.0sp1/nios2eds/bin/gnu/h-i686-mingw32/bin/../lib/gcc/nios2-elf/4.1.2/../../../../nios2-elf/lib\libc.a(lib_a-getc.o)
 .debug_info    0x00075b3e      0x96e c:/altera/11.0sp1/nios2eds/bin/gnu/h-i686-mingw32/bin/../lib/gcc/nios2-elf/4.1.2/../../../../nios2-elf/lib\libc.a(lib_a-malloc.o)
 .debug_info    0x000764ac      0x115 c:/altera/11.0sp1/nios2eds/bin/gnu/h-i686-mingw32/bin/../lib/gcc/nios2-elf/4.1.2/../../../../nios2-elf/lib\libc.a(lib_a-memcmp.o)
 .debug_info    0x000765c1      0x987 c:/altera/11.0sp1/nios2eds/bin/gnu/h-i686-mingw32/bin/../lib/gcc/nios2-elf/4.1.2/../../../../nios2-elf/lib\libc.a(lib_a-rget.o)
 .debug_info    0x00076f48      0x110 c:/altera/11.0sp1/nios2eds/bin/gnu/h-i686-mingw32/bin/../lib/gcc/nios2-elf/4.1.2/../../../../nios2-elf/lib\libc.a(lib_a-strcpy.o)
 .debug_info    0x00077058       0xf5 c:/altera/11.0sp1/nios2eds/bin/gnu/h-i686-mingw32/bin/../lib/gcc/nios2-elf/4.1.2/../../../../nios2-elf/lib\libc.a(lib_a-strncmp.o)
 .debug_info    0x0007714d      0x12a c:/altera/11.0sp1/nios2eds/bin/gnu/h-i686-mingw32/bin/../lib/gcc/nios2-elf/4.1.2/../../../../nios2-elf/lib\libc.a(lib_a-strncpy.o)
 .debug_info    0x00077277      0xa2a c:/altera/11.0sp1/nios2eds/bin/gnu/h-i686-mingw32/bin/../lib/gcc/nios2-elf/4.1.2/../../../../nios2-elf/lib\libc.a(lib_a-strtol.o)
 .debug_info    0x00077ca1      0x9aa c:/altera/11.0sp1/nios2eds/bin/gnu/h-i686-mingw32/bin/../lib/gcc/nios2-elf/4.1.2/../../../../nios2-elf/lib\libc.a(lib_a-vprintf.o)
 .debug_info    0x0007864b      0x9ed c:/altera/11.0sp1/nios2eds/bin/gnu/h-i686-mingw32/bin/../lib/gcc/nios2-elf/4.1.2/../../../../nios2-elf/lib\libc.a(lib_a-vsprintf.o)
 .debug_info    0x00079038      0x99c c:/altera/11.0sp1/nios2eds/bin/gnu/h-i686-mingw32/bin/../lib/gcc/nios2-elf/4.1.2/../../../../nios2-elf/lib\libc.a(lib_a-__atexit.o)
 .debug_info    0x000799d4      0x9e2 c:/altera/11.0sp1/nios2eds/bin/gnu/h-i686-mingw32/bin/../lib/gcc/nios2-elf/4.1.2/../../../../nios2-elf/lib\libc.a(lib_a-__call_atexit.o)
 .debug_info    0x0007a3b6      0x98b c:/altera/11.0sp1/nios2eds/bin/gnu/h-i686-mingw32/bin/../lib/gcc/nios2-elf/4.1.2/../../../../nios2-elf/lib\libc.a(lib_a-refill.o)
 .debug_info    0x0007ad41      0x1fd ../tcpip_test_bsp/\libucosii_bsp.a(alt_exit.o)

.debug_abbrev   0x00000000    0x112cd
 *(.debug_abbrev)
 .debug_abbrev  0x00000000       0x12 ../tcpip_test_bsp//obj/HAL/src/crt0.o
 .debug_abbrev  0x00000012      0x1f1 obj/alt_error_handler.o
 .debug_abbrev  0x00000203       0xfe obj/iniche_init.o
 .debug_abbrev  0x00000301       0xf5 obj/led.o
 .debug_abbrev  0x000003f6      0x10c obj/network_utilities.o
 .debug_abbrev  0x00000502      0x1c4 obj/simple_socket_server.o
 .debug_abbrev  0x000006c6      0x122 obj/tse_my_system.o
 .debug_abbrev  0x000007e8       0x61 c:/altera/11.0sp1/nios2eds/bin/gnu/h-i686-mingw32/bin/../lib/gcc/nios2-elf/4.1.2/../../../../nios2-elf/lib\libc.a(lib_a-ctype_.o)
 .debug_abbrev  0x00000849      0x197 c:/altera/11.0sp1/nios2eds/bin/gnu/h-i686-mingw32/bin/../lib/gcc/nios2-elf/4.1.2/../../../../nios2-elf/lib\libc.a(lib_a-fprintf.o)
 .debug_abbrev  0x000009e0      0x1b1 c:/altera/11.0sp1/nios2eds/bin/gnu/h-i686-mingw32/bin/../lib/gcc/nios2-elf/4.1.2/../../../../nios2-elf/lib\libc.a(lib_a-fwrite.o)
 .debug_abbrev  0x00000b91      0x157 c:/altera/11.0sp1/nios2eds/bin/gnu/h-i686-mingw32/bin/../lib/gcc/nios2-elf/4.1.2/../../../../nios2-elf/lib\libc.a(lib_a-impure.o)
 .debug_abbrev  0x00000ce8       0xb5 c:/altera/11.0sp1/nios2eds/bin/gnu/h-i686-mingw32/bin/../lib/gcc/nios2-elf/4.1.2/../../../../nios2-elf/lib\libc.a(lib_a-memcpy.o)
 .debug_abbrev  0x00000d9d       0xb5 c:/altera/11.0sp1/nios2eds/bin/gnu/h-i686-mingw32/bin/../lib/gcc/nios2-elf/4.1.2/../../../../nios2-elf/lib\libc.a(lib_a-memmove.o)
 .debug_abbrev  0x00000e52       0xb8 c:/altera/11.0sp1/nios2eds/bin/gnu/h-i686-mingw32/bin/../lib/gcc/nios2-elf/4.1.2/../../../../nios2-elf/lib\libc.a(lib_a-memset.o)
 .debug_abbrev  0x00000f0a      0x194 c:/altera/11.0sp1/nios2eds/bin/gnu/h-i686-mingw32/bin/../lib/gcc/nios2-elf/4.1.2/../../../../nios2-elf/lib\libc.a(lib_a-perror.o)
 .debug_abbrev  0x0000109e      0x191 c:/altera/11.0sp1/nios2eds/bin/gnu/h-i686-mingw32/bin/../lib/gcc/nios2-elf/4.1.2/../../../../nios2-elf/lib\libc.a(lib_a-printf.o)
 .debug_abbrev  0x0000122f      0x1ac c:/altera/11.0sp1/nios2eds/bin/gnu/h-i686-mingw32/bin/../lib/gcc/nios2-elf/4.1.2/../../../../nios2-elf/lib\libc.a(lib_a-puts.o)
 .debug_abbrev  0x000013db      0x191 c:/altera/11.0sp1/nios2eds/bin/gnu/h-i686-mingw32/bin/../lib/gcc/nios2-elf/4.1.2/../../../../nios2-elf/lib\libc.a(lib_a-sprintf.o)
 .debug_abbrev  0x0000156c       0x80 c:/altera/11.0sp1/nios2eds/bin/gnu/h-i686-mingw32/bin/../lib/gcc/nios2-elf/4.1.2/../../../../nios2-elf/lib\libc.a(lib_a-strchr.o)
 .debug_abbrev  0x000015ec       0x68 c:/altera/11.0sp1/nios2eds/bin/gnu/h-i686-mingw32/bin/../lib/gcc/nios2-elf/4.1.2/../../../../nios2-elf/lib\libc.a(lib_a-strerror.o)
 .debug_abbrev  0x00001654       0x8b c:/altera/11.0sp1/nios2eds/bin/gnu/h-i686-mingw32/bin/../lib/gcc/nios2-elf/4.1.2/../../../../nios2-elf/lib\libc.a(lib_a-strlen.o)
 .debug_abbrev  0x000016df       0x5b c:/altera/11.0sp1/nios2eds/bin/gnu/h-i686-mingw32/bin/../lib/gcc/nios2-elf/4.1.2/../../../../nios2-elf/lib\libc.a(lib_a-u_strerr.o)
 .debug_abbrev  0x0000173a      0x30a c:/altera/11.0sp1/nios2eds/bin/gnu/h-i686-mingw32/bin/../lib/gcc/nios2-elf/4.1.2/../../../../nios2-elf/lib\libc.a(lib_a-vfprintf.o)
 .debug_abbrev  0x00001a44      0x170 c:/altera/11.0sp1/nios2eds/bin/gnu/h-i686-mingw32/bin/../lib/gcc/nios2-elf/4.1.2/../../../../nios2-elf/lib\libc.a(lib_a-wsetup.o)
 .debug_abbrev  0x00001bb4      0x232 c:/altera/11.0sp1/nios2eds/bin/gnu/h-i686-mingw32/bin/../lib/gcc/nios2-elf/4.1.2/../../../../nios2-elf/lib\libc.a(lib_a-dtoa.o)
 .debug_abbrev  0x00001de6      0x1c6 c:/altera/11.0sp1/nios2eds/bin/gnu/h-i686-mingw32/bin/../lib/gcc/nios2-elf/4.1.2/../../../../nios2-elf/lib\libc.a(lib_a-fflush.o)
 .debug_abbrev  0x00001fac      0x24c c:/altera/11.0sp1/nios2eds/bin/gnu/h-i686-mingw32/bin/../lib/gcc/nios2-elf/4.1.2/../../../../nios2-elf/lib\libc.a(lib_a-findfp.o)
 .debug_abbrev  0x000021f8      0x18c c:/altera/11.0sp1/nios2eds/bin/gnu/h-i686-mingw32/bin/../lib/gcc/nios2-elf/4.1.2/../../../../nios2-elf/lib\libc.a(lib_a-fputc.o)
 .debug_abbrev  0x00002384      0x1aa c:/altera/11.0sp1/nios2eds/bin/gnu/h-i686-mingw32/bin/../lib/gcc/nios2-elf/4.1.2/../../../../nios2-elf/lib\libc.a(lib_a-fputs.o)
 .debug_abbrev  0x0000252e      0x1d9 c:/altera/11.0sp1/nios2eds/bin/gnu/h-i686-mingw32/bin/../lib/gcc/nios2-elf/4.1.2/../../../../nios2-elf/lib\libc.a(lib_a-freer.o)
 .debug_abbrev  0x00002707      0x1a3 c:/altera/11.0sp1/nios2eds/bin/gnu/h-i686-mingw32/bin/../lib/gcc/nios2-elf/4.1.2/../../../../nios2-elf/lib\libc.a(lib_a-fvwrite.o)
 .debug_abbrev  0x000028aa      0x1e3 c:/altera/11.0sp1/nios2eds/bin/gnu/h-i686-mingw32/bin/../lib/gcc/nios2-elf/4.1.2/../../../../nios2-elf/lib\libc.a(lib_a-fwalk.o)
 .debug_abbrev  0x00002a8d      0x1ed c:/altera/11.0sp1/nios2eds/bin/gnu/h-i686-mingw32/bin/../lib/gcc/nios2-elf/4.1.2/../../../../nios2-elf/lib\libc.a(lib_a-locale.o)
 .debug_abbrev  0x00002c7a      0x197 c:/altera/11.0sp1/nios2eds/bin/gnu/h-i686-mingw32/bin/../lib/gcc/nios2-elf/4.1.2/../../../../nios2-elf/lib\libc.a(lib_a-makebuf.o)
 .debug_abbrev  0x00002e11      0x216 c:/altera/11.0sp1/nios2eds/bin/gnu/h-i686-mingw32/bin/../lib/gcc/nios2-elf/4.1.2/../../../../nios2-elf/lib\libc.a(lib_a-mallocr.o)
 .debug_abbrev  0x00003027       0xb5 c:/altera/11.0sp1/nios2eds/bin/gnu/h-i686-mingw32/bin/../lib/gcc/nios2-elf/4.1.2/../../../../nios2-elf/lib\libc.a(lib_a-memchr.o)
 .debug_abbrev  0x000030dc      0x297 c:/altera/11.0sp1/nios2eds/bin/gnu/h-i686-mingw32/bin/../lib/gcc/nios2-elf/4.1.2/../../../../nios2-elf/lib\libc.a(lib_a-mprec.o)
 .debug_abbrev  0x00003373      0x17f c:/altera/11.0sp1/nios2eds/bin/gnu/h-i686-mingw32/bin/../lib/gcc/nios2-elf/4.1.2/../../../../nios2-elf/lib\libc.a(lib_a-putc.o)
 .debug_abbrev  0x000034f2      0x1c3 c:/altera/11.0sp1/nios2eds/bin/gnu/h-i686-mingw32/bin/../lib/gcc/nios2-elf/4.1.2/../../../../nios2-elf/lib\libc.a(lib_a-reallocr.o)
 .debug_abbrev  0x000036b5       0x79 c:/altera/11.0sp1/nios2eds/bin/gnu/h-i686-mingw32/bin/../lib/gcc/nios2-elf/4.1.2/../../../../nios2-elf/lib\libc.a(lib_a-s_isinfd.o)
 .debug_abbrev  0x0000372e       0x79 c:/altera/11.0sp1/nios2eds/bin/gnu/h-i686-mingw32/bin/../lib/gcc/nios2-elf/4.1.2/../../../../nios2-elf/lib\libc.a(lib_a-s_isnand.o)
 .debug_abbrev  0x000037a7      0x18c c:/altera/11.0sp1/nios2eds/bin/gnu/h-i686-mingw32/bin/../lib/gcc/nios2-elf/4.1.2/../../../../nios2-elf/lib\libc.a(lib_a-sbrkr.o)
 .debug_abbrev  0x00003933      0x1c9 c:/altera/11.0sp1/nios2eds/bin/gnu/h-i686-mingw32/bin/../lib/gcc/nios2-elf/4.1.2/../../../../nios2-elf/lib\libc.a(lib_a-stdio.o)
 .debug_abbrev  0x00003afc       0x80 c:/altera/11.0sp1/nios2eds/bin/gnu/h-i686-mingw32/bin/../lib/gcc/nios2-elf/4.1.2/../../../../nios2-elf/lib\libc.a(lib_a-strcmp.o)
 .debug_abbrev  0x00003b7c      0x198 c:/altera/11.0sp1/nios2eds/bin/gnu/h-i686-mingw32/bin/../lib/gcc/nios2-elf/4.1.2/../../../../nios2-elf/lib\libc.a(lib_a-wbuf.o)
 .debug_abbrev  0x00003d14      0x184 c:/altera/11.0sp1/nios2eds/bin/gnu/h-i686-mingw32/bin/../lib/gcc/nios2-elf/4.1.2/../../../../nios2-elf/lib\libc.a(lib_a-writer.o)
 .debug_abbrev  0x00003e98      0x1b8 c:/altera/11.0sp1/nios2eds/bin/gnu/h-i686-mingw32/bin/../lib/gcc/nios2-elf/4.1.2/../../../../nios2-elf/lib\libc.a(lib_a-callocr.o)
 .debug_abbrev  0x00004050      0x17f c:/altera/11.0sp1/nios2eds/bin/gnu/h-i686-mingw32/bin/../lib/gcc/nios2-elf/4.1.2/../../../../nios2-elf/lib\libc.a(lib_a-closer.o)
 .debug_abbrev  0x000041cf      0x1a7 c:/altera/11.0sp1/nios2eds/bin/gnu/h-i686-mingw32/bin/../lib/gcc/nios2-elf/4.1.2/../../../../nios2-elf/lib\libc.a(lib_a-fclose.o)
 .debug_abbrev  0x00004376      0x18e c:/altera/11.0sp1/nios2eds/bin/gnu/h-i686-mingw32/bin/../lib/gcc/nios2-elf/4.1.2/../../../../nios2-elf/lib\libc.a(lib_a-fstatr.o)
 .debug_abbrev  0x00004504       0x3b c:/altera/11.0sp1/nios2eds/bin/gnu/h-i686-mingw32/bin/../lib/gcc/nios2-elf/4.1.2/../../../../nios2-elf/lib\libc.a(lib_a-int_errno.o)
 .debug_abbrev  0x0000453f      0x17f c:/altera/11.0sp1/nios2eds/bin/gnu/h-i686-mingw32/bin/../lib/gcc/nios2-elf/4.1.2/../../../../nios2-elf/lib\libc.a(lib_a-isattyr.o)
 .debug_abbrev  0x000046be      0x18e c:/altera/11.0sp1/nios2eds/bin/gnu/h-i686-mingw32/bin/../lib/gcc/nios2-elf/4.1.2/../../../../nios2-elf/lib\libc.a(lib_a-lseekr.o)
 .debug_abbrev  0x0000484c      0x17f c:/altera/11.0sp1/nios2eds/bin/gnu/h-i686-mingw32/bin/../lib/gcc/nios2-elf/4.1.2/../../../../nios2-elf/lib\libc.a(lib_a-readr.o)
 .debug_abbrev  0x000049cb      0x16b c:/altera/11.0sp1/nios2eds/bin/gnu/h-i686-mingw32/bin/../lib/gcc/nios2-elf/4.1.2\libgcc.a(_udivdi3.o)
 .debug_abbrev  0x00004b36      0x18e c:/altera/11.0sp1/nios2eds/bin/gnu/h-i686-mingw32/bin/../lib/gcc/nios2-elf/4.1.2\libgcc.a(_umoddi3.o)
 .debug_abbrev  0x00004cc4      0x1d2 c:/altera/11.0sp1/nios2eds/bin/gnu/h-i686-mingw32/bin/../lib/gcc/nios2-elf/4.1.2\libgcc.a(_addsub_df.o)
 .debug_abbrev  0x00004e96      0x204 c:/altera/11.0sp1/nios2eds/bin/gnu/h-i686-mingw32/bin/../lib/gcc/nios2-elf/4.1.2\libgcc.a(_mul_df.o)
 .debug_abbrev  0x0000509a      0x1e3 c:/altera/11.0sp1/nios2eds/bin/gnu/h-i686-mingw32/bin/../lib/gcc/nios2-elf/4.1.2\libgcc.a(_div_df.o)
 .debug_abbrev  0x0000527d      0x151 c:/altera/11.0sp1/nios2eds/bin/gnu/h-i686-mingw32/bin/../lib/gcc/nios2-elf/4.1.2\libgcc.a(_eq_df.o)
 .debug_abbrev  0x000053ce      0x151 c:/altera/11.0sp1/nios2eds/bin/gnu/h-i686-mingw32/bin/../lib/gcc/nios2-elf/4.1.2\libgcc.a(_ne_df.o)
 .debug_abbrev  0x0000551f      0x151 c:/altera/11.0sp1/nios2eds/bin/gnu/h-i686-mingw32/bin/../lib/gcc/nios2-elf/4.1.2\libgcc.a(_gt_df.o)
 .debug_abbrev  0x00005670      0x151 c:/altera/11.0sp1/nios2eds/bin/gnu/h-i686-mingw32/bin/../lib/gcc/nios2-elf/4.1.2\libgcc.a(_ge_df.o)
 .debug_abbrev  0x000057c1      0x151 c:/altera/11.0sp1/nios2eds/bin/gnu/h-i686-mingw32/bin/../lib/gcc/nios2-elf/4.1.2\libgcc.a(_lt_df.o)
 .debug_abbrev  0x00005912      0x13f c:/altera/11.0sp1/nios2eds/bin/gnu/h-i686-mingw32/bin/../lib/gcc/nios2-elf/4.1.2\libgcc.a(_si_to_df.o)
 .debug_abbrev  0x00005a51      0x176 c:/altera/11.0sp1/nios2eds/bin/gnu/h-i686-mingw32/bin/../lib/gcc/nios2-elf/4.1.2\libgcc.a(_df_to_si.o)
 .debug_abbrev  0x00005bc7       0xba c:/altera/11.0sp1/nios2eds/bin/gnu/h-i686-mingw32/bin/../lib/gcc/nios2-elf/4.1.2\libgcc.a(_thenan_df.o)
 .debug_abbrev  0x00005c81      0x155 c:/altera/11.0sp1/nios2eds/bin/gnu/h-i686-mingw32/bin/../lib/gcc/nios2-elf/4.1.2\libgcc.a(_usi_to_df.o)
 .debug_abbrev  0x00005dd6       0xe0 c:/altera/11.0sp1/nios2eds/bin/gnu/h-i686-mingw32/bin/../lib/gcc/nios2-elf/4.1.2\libgcc.a(lib2-divmod.o)
 .debug_abbrev  0x00005eb6       0xee c:/altera/11.0sp1/nios2eds/bin/gnu/h-i686-mingw32/bin/../lib/gcc/nios2-elf/4.1.2\libgcc.a(_muldi3.o)
 .debug_abbrev  0x00005fa4       0x61 c:/altera/11.0sp1/nios2eds/bin/gnu/h-i686-mingw32/bin/../lib/gcc/nios2-elf/4.1.2\libgcc.a(_clz.o)
 .debug_abbrev  0x00006005       0xb9 c:/altera/11.0sp1/nios2eds/bin/gnu/h-i686-mingw32/bin/../lib/gcc/nios2-elf/4.1.2\libgcc.a(_clzsi2.o)
 .debug_abbrev  0x000060be      0x1b1 c:/altera/11.0sp1/nios2eds/bin/gnu/h-i686-mingw32/bin/../lib/gcc/nios2-elf/4.1.2\libgcc.a(_pack_df.o)
 .debug_abbrev  0x0000626f      0x149 c:/altera/11.0sp1/nios2eds/bin/gnu/h-i686-mingw32/bin/../lib/gcc/nios2-elf/4.1.2\libgcc.a(_unpack_df.o)
 .debug_abbrev  0x000063b8      0x132 c:/altera/11.0sp1/nios2eds/bin/gnu/h-i686-mingw32/bin/../lib/gcc/nios2-elf/4.1.2\libgcc.a(_fpcmp_parts_df.o)
 .debug_abbrev  0x000064ea      0x102 ../tcpip_test_bsp/\libucosii_bsp.a(alt_fstat.o)
 .debug_abbrev  0x000065ec      0x102 ../tcpip_test_bsp/\libucosii_bsp.a(alt_isatty.o)
 .debug_abbrev  0x000066ee       0x88 ../tcpip_test_bsp/\libucosii_bsp.a(alt_load.o)
 .debug_abbrev  0x00006776      0x102 ../tcpip_test_bsp/\libucosii_bsp.a(alt_lseek.o)
 .debug_abbrev  0x00006878      0x120 ../tcpip_test_bsp/\libucosii_bsp.a(alt_main.o)
 .debug_abbrev  0x00006998      0x115 ../tcpip_test_bsp/\libucosii_bsp.a(alt_sbrk.o)
 .debug_abbrev  0x00006aad      0x1b3 ../tcpip_test_bsp/\libucosii_bsp.a(alt_env_lock.o)
 .debug_abbrev  0x00006c60      0x234 ../tcpip_test_bsp/\libucosii_bsp.a(alt_malloc_lock.o)
 .debug_abbrev  0x00006e94      0x2aa ../tcpip_test_bsp/\libucosii_bsp.a(os_core.o)
 .debug_abbrev  0x0000713e      0x114 ../tcpip_test_bsp/\libucosii_bsp.a(os_dbg.o)
 .debug_abbrev  0x00007252      0x21b ../tcpip_test_bsp/\libucosii_bsp.a(os_flag.o)
 .debug_abbrev  0x0000746d      0x235 ../tcpip_test_bsp/\libucosii_bsp.a(os_mem.o)
 .debug_abbrev  0x000076a2      0x20d ../tcpip_test_bsp/\libucosii_bsp.a(os_q.o)
 .debug_abbrev  0x000078af      0x20d ../tcpip_test_bsp/\libucosii_bsp.a(os_sem.o)
 .debug_abbrev  0x00007abc      0x20e ../tcpip_test_bsp/\libucosii_bsp.a(os_task.o)
 .debug_abbrev  0x00007cca      0x1de ../tcpip_test_bsp/\libucosii_bsp.a(os_time.o)
 .debug_abbrev  0x00007ea8      0x1eb ../tcpip_test_bsp/\libucosii_bsp.a(alt_sys_init.o)
 .debug_abbrev  0x00008093      0x13c ../tcpip_test_bsp/\libucosii_bsp.a(altera_avalon_jtag_uart_fd.o)
 .debug_abbrev  0x000081cf      0x21e ../tcpip_test_bsp/\libucosii_bsp.a(altera_avalon_jtag_uart_init.o)
 .debug_abbrev  0x000083ed      0x135 ../tcpip_test_bsp/\libucosii_bsp.a(altera_avalon_jtag_uart_ioctl.o)
 .debug_abbrev  0x00008522      0x1ee ../tcpip_test_bsp/\libucosii_bsp.a(altera_avalon_jtag_uart_read.o)
 .debug_abbrev  0x00008710      0x1ea ../tcpip_test_bsp/\libucosii_bsp.a(altera_avalon_jtag_uart_write.o)
 .debug_abbrev  0x000088fa      0x23a ../tcpip_test_bsp/\libucosii_bsp.a(altera_avalon_sgdma.o)
 .debug_abbrev  0x00008b34      0x137 ../tcpip_test_bsp/\libucosii_bsp.a(altera_avalon_timer_sc.o)
 .debug_abbrev  0x00008c6b      0x229 ../tcpip_test_bsp/\libucosii_bsp.a(altera_avalon_tse.o)
 .debug_abbrev  0x00008e94       0xe5 ../tcpip_test_bsp/\libucosii_bsp.a(altera_avalon_tse_system_info.o)
 .debug_abbrev  0x00008f79      0x299 ../tcpip_test_bsp/\libucosii_bsp.a(ins_tse_mac.o)
 .debug_abbrev  0x00009212       0x77 ../tcpip_test_bsp/\libucosii_bsp.a(alt_iniche_close.o)
 .debug_abbrev  0x00009289      0x11f ../tcpip_test_bsp/\libucosii_bsp.a(alt_iniche_dev.o)
 .debug_abbrev  0x000093a8       0x7e ../tcpip_test_bsp/\libucosii_bsp.a(alt_iniche_read.o)
 .debug_abbrev  0x00009426       0x85 ../tcpip_test_bsp/\libucosii_bsp.a(alt_iniche_write.o)
 .debug_abbrev  0x000094ab      0x184 ../tcpip_test_bsp/\libucosii_bsp.a(ipnet.o)
 .debug_abbrev  0x0000962f      0x18b ../tcpip_test_bsp/\libucosii_bsp.a(ipstart.o)
 .debug_abbrev  0x000097ba      0x191 ../tcpip_test_bsp/\libucosii_bsp.a(igmp_cmn.o)
 .debug_abbrev  0x0000994b      0x1a3 ../tcpip_test_bsp/\libucosii_bsp.a(bsdsock.o)
 .debug_abbrev  0x00009aee       0x96 ../tcpip_test_bsp/\libucosii_bsp.a(cksum.o)
 .debug_abbrev  0x00009b84      0x18b ../tcpip_test_bsp/\libucosii_bsp.a(in_utils.o)
 .debug_abbrev  0x00009d0f      0x152 ../tcpip_test_bsp/\libucosii_bsp.a(netmain.o)
 .debug_abbrev  0x00009e61      0x144 ../tcpip_test_bsp/\libucosii_bsp.a(tk_crnos.o)
 .debug_abbrev  0x00009fa5      0x217 ../tcpip_test_bsp/\libucosii_bsp.a(dhcpclnt.o)
 .debug_abbrev  0x0000a1bc       0x8f ../tcpip_test_bsp/\libucosii_bsp.a(dhcputil.o)
 .debug_abbrev  0x0000a24b      0x196 ../tcpip_test_bsp/\libucosii_bsp.a(pktalloc.o)
 .debug_abbrev  0x0000a3e1       0xcb ../tcpip_test_bsp/\libucosii_bsp.a(q.o)
 .debug_abbrev  0x0000a4ac      0x144 ../tcpip_test_bsp/\libucosii_bsp.a(udp_open.o)
 .debug_abbrev  0x0000a5f0       0x14 ../tcpip_test_bsp/\libucosii_bsp.a(asm_cksum.o)
 .debug_abbrev  0x0000a604      0x242 ../tcpip_test_bsp/\libucosii_bsp.a(brdutils.o)
 .debug_abbrev  0x0000a846      0x194 ../tcpip_test_bsp/\libucosii_bsp.a(osportco.o)
 .debug_abbrev  0x0000a9da      0x199 ../tcpip_test_bsp/\libucosii_bsp.a(targnios.o)
 .debug_abbrev  0x0000ab73      0x1dc ../tcpip_test_bsp/\libucosii_bsp.a(nptcp.o)
 .debug_abbrev  0x0000ad4f      0x136 ../tcpip_test_bsp/\libucosii_bsp.a(rawsock.o)
 .debug_abbrev  0x0000ae85      0x1de ../tcpip_test_bsp/\libucosii_bsp.a(sockcall.o)
 .debug_abbrev  0x0000b063      0x1ef ../tcpip_test_bsp/\libucosii_bsp.a(socket.o)
 .debug_abbrev  0x0000b252      0x1ac ../tcpip_test_bsp/\libucosii_bsp.a(socket2.o)
 .debug_abbrev  0x0000b3fe      0x17f ../tcpip_test_bsp/\libucosii_bsp.a(soselect.o)
 .debug_abbrev  0x0000b57d      0x1ca ../tcpip_test_bsp/\libucosii_bsp.a(tcp_in.o)
 .debug_abbrev  0x0000b747      0x1a4 ../tcpip_test_bsp/\libucosii_bsp.a(tcp_out.o)
 .debug_abbrev  0x0000b8eb      0x1c3 ../tcpip_test_bsp/\libucosii_bsp.a(tcp_subr.o)
 .debug_abbrev  0x0000baae      0x19e ../tcpip_test_bsp/\libucosii_bsp.a(tcp_timr.o)
 .debug_abbrev  0x0000bc4c      0x175 ../tcpip_test_bsp/\libucosii_bsp.a(tcp_usr.o)
 .debug_abbrev  0x0000bdc1       0x77 ../tcpip_test_bsp/\libucosii_bsp.a(tcpport.o)
 .debug_abbrev  0x0000be38      0x190 ../tcpip_test_bsp/\libucosii_bsp.a(udpsock.o)
 .debug_abbrev  0x0000bfc8      0x172 ../tcpip_test_bsp/\libucosii_bsp.a(alt_alarm_start.o)
 .debug_abbrev  0x0000c13a      0x102 ../tcpip_test_bsp/\libucosii_bsp.a(alt_close.o)
 .debug_abbrev  0x0000c23c       0x57 ../tcpip_test_bsp/\libucosii_bsp.a(alt_dcache_flush_all.o)
 .debug_abbrev  0x0000c293      0x10a ../tcpip_test_bsp/\libucosii_bsp.a(alt_dev.o)
 .debug_abbrev  0x0000c39d       0xf6 ../tcpip_test_bsp/\libucosii_bsp.a(alt_dev_llist_insert.o)
 .debug_abbrev  0x0000c493       0x76 ../tcpip_test_bsp/\libucosii_bsp.a(alt_do_ctors.o)
 .debug_abbrev  0x0000c509       0x76 ../tcpip_test_bsp/\libucosii_bsp.a(alt_do_dtors.o)
 .debug_abbrev  0x0000c57f       0x5e ../tcpip_test_bsp/\libucosii_bsp.a(alt_errno.o)
 .debug_abbrev  0x0000c5dd       0xd6 ../tcpip_test_bsp/\libucosii_bsp.a(alt_find_dev.o)
 .debug_abbrev  0x0000c6b3       0x3f ../tcpip_test_bsp/\libucosii_bsp.a(alt_icache_flush_all.o)
 .debug_abbrev  0x0000c6f2      0x134 ../tcpip_test_bsp/\libucosii_bsp.a(alt_iic.o)
 .debug_abbrev  0x0000c826      0x14e ../tcpip_test_bsp/\libucosii_bsp.a(alt_iic_isr_register.o)
 .debug_abbrev  0x0000c974       0xf7 ../tcpip_test_bsp/\libucosii_bsp.a(alt_io_redirect.o)
 .debug_abbrev  0x0000ca6b       0x12 ../tcpip_test_bsp/\libucosii_bsp.a(alt_irq_entry.o)
 .debug_abbrev  0x0000ca7d      0x124 ../tcpip_test_bsp/\libucosii_bsp.a(alt_irq_handler.o)
 .debug_abbrev  0x0000cba1       0x44 ../tcpip_test_bsp/\libucosii_bsp.a(alt_irq_vars.o)
 .debug_abbrev  0x0000cbe5      0x119 ../tcpip_test_bsp/\libucosii_bsp.a(alt_open.o)
 .debug_abbrev  0x0000ccfe      0x102 ../tcpip_test_bsp/\libucosii_bsp.a(alt_read.o)
 .debug_abbrev  0x0000ce00       0xd3 ../tcpip_test_bsp/\libucosii_bsp.a(alt_release_fd.o)
 .debug_abbrev  0x0000ced3       0x74 ../tcpip_test_bsp/\libucosii_bsp.a(alt_remap_cached.o)
 .debug_abbrev  0x0000cf47       0x74 ../tcpip_test_bsp/\libucosii_bsp.a(alt_remap_uncached.o)
 .debug_abbrev  0x0000cfbb      0x150 ../tcpip_test_bsp/\libucosii_bsp.a(alt_tick.o)
 .debug_abbrev  0x0000d10b       0x83 ../tcpip_test_bsp/\libucosii_bsp.a(alt_uncached_malloc.o)
 .debug_abbrev  0x0000d18e       0xb7 ../tcpip_test_bsp/\libucosii_bsp.a(alt_usleep.o)
 .debug_abbrev  0x0000d245      0x107 ../tcpip_test_bsp/\libucosii_bsp.a(alt_write.o)
 .debug_abbrev  0x0000d34c       0x3f ../tcpip_test_bsp/\libucosii_bsp.a(altera_nios2_irq.o)
 .debug_abbrev  0x0000d38b       0x14 ../tcpip_test_bsp/\libucosii_bsp.a(os_cpu_a.o)
 .debug_abbrev  0x0000d39f      0x1d0 ../tcpip_test_bsp/\libucosii_bsp.a(os_cpu_c.o)
 .debug_abbrev  0x0000d56f      0x173 ../tcpip_test_bsp/\libucosii_bsp.a(allports.o)
 .debug_abbrev  0x0000d6e2      0x151 ../tcpip_test_bsp/\libucosii_bsp.a(timeouts.o)
 .debug_abbrev  0x0000d833       0xa4 ../tcpip_test_bsp/\libucosii_bsp.a(tk_misc.o)
 .debug_abbrev  0x0000d8d7       0x92 ../tcpip_test_bsp/\libucosii_bsp.a(alt_iniche_fcntl.o)
 .debug_abbrev  0x0000d969      0x1eb ../tcpip_test_bsp/\libucosii_bsp.a(et_arp.o)
 .debug_abbrev  0x0000db54      0x13d ../tcpip_test_bsp/\libucosii_bsp.a(iface.o)
 .debug_abbrev  0x0000dc91      0x1ed ../tcpip_test_bsp/\libucosii_bsp.a(ip.o)
 .debug_abbrev  0x0000de7e      0x1ca ../tcpip_test_bsp/\libucosii_bsp.a(ip_reasm.o)
 .debug_abbrev  0x0000e048      0x166 ../tcpip_test_bsp/\libucosii_bsp.a(ipdemux.o)
 .debug_abbrev  0x0000e1ae      0x114 ../tcpip_test_bsp/\libucosii_bsp.a(ipmc.o)
 .debug_abbrev  0x0000e2c2       0xe9 ../tcpip_test_bsp/\libucosii_bsp.a(ipport.o)
 .debug_abbrev  0x0000e3ab      0x19c ../tcpip_test_bsp/\libucosii_bsp.a(ipraw.o)
 .debug_abbrev  0x0000e547      0x156 ../tcpip_test_bsp/\libucosii_bsp.a(iproute.o)
 .debug_abbrev  0x0000e69d      0x1c0 ../tcpip_test_bsp/\libucosii_bsp.a(udp.o)
 .debug_abbrev  0x0000e85d      0x10e ../tcpip_test_bsp/\libucosii_bsp.a(igmp.o)
 .debug_abbrev  0x0000e96b      0x17a ../tcpip_test_bsp/\libucosii_bsp.a(igmp2.o)
 .debug_abbrev  0x0000eae5      0x189 ../tcpip_test_bsp/\libucosii_bsp.a(ipopt.o)
 .debug_abbrev  0x0000ec6e      0x15a ../tcpip_test_bsp/\libucosii_bsp.a(u_mctest.o)
 .debug_abbrev  0x0000edc8      0x12e ../tcpip_test_bsp/\libucosii_bsp.a(dhcsetup.o)
 .debug_abbrev  0x0000eef6      0x175 ../tcpip_test_bsp/\libucosii_bsp.a(memdev.o)
 .debug_abbrev  0x0000f06b      0x154 ../tcpip_test_bsp/\libucosii_bsp.a(parseip.o)
 .debug_abbrev  0x0000f1bf       0xad ../tcpip_test_bsp/\libucosii_bsp.a(tcpcksum.o)
 .debug_abbrev  0x0000f26c      0x19f ../tcpip_test_bsp/\libucosii_bsp.a(in_pcb.o)
 .debug_abbrev  0x0000f40b      0x1b6 ../tcpip_test_bsp/\libucosii_bsp.a(vfsfiles.o)
 .debug_abbrev  0x0000f5c1       0x77 ../tcpip_test_bsp/\libucosii_bsp.a(vfsport.o)
 .debug_abbrev  0x0000f638       0x6c ../tcpip_test_bsp/\libucosii_bsp.a(alt_busy_sleep.o)
 .debug_abbrev  0x0000f6a4       0x7a ../tcpip_test_bsp/\libucosii_bsp.a(alt_dcache_flush.o)
 .debug_abbrev  0x0000f71e       0x12 ../tcpip_test_bsp/\libucosii_bsp.a(alt_exception_entry.o)
 .debug_abbrev  0x0000f730      0x107 ../tcpip_test_bsp/\libucosii_bsp.a(alt_fcntl.o)
 .debug_abbrev  0x0000f837       0xd6 ../tcpip_test_bsp/\libucosii_bsp.a(alt_find_file.o)
 .debug_abbrev  0x0000f90d      0x173 ../tcpip_test_bsp/\libucosii_bsp.a(alt_get_fd.o)
 .debug_abbrev  0x0000fa80       0x7a ../tcpip_test_bsp/\libucosii_bsp.a(alt_icache_flush.o)
 .debug_abbrev  0x0000fafa      0x15d ../tcpip_test_bsp/\libucosii_bsp.a(icmp.o)
 .debug_abbrev  0x0000fc57       0xb7 c:/altera/11.0sp1/nios2eds/bin/gnu/h-i686-mingw32/bin/../lib/gcc/nios2-elf/4.1.2/../../../../nios2-elf/lib\libc.a(lib_a-atexit.o)
 .debug_abbrev  0x0000fd0e      0x176 c:/altera/11.0sp1/nios2eds/bin/gnu/h-i686-mingw32/bin/../lib/gcc/nios2-elf/4.1.2/../../../../nios2-elf/lib\libc.a(lib_a-atoi.o)
 .debug_abbrev  0x0000fe84      0x17f c:/altera/11.0sp1/nios2eds/bin/gnu/h-i686-mingw32/bin/../lib/gcc/nios2-elf/4.1.2/../../../../nios2-elf/lib\libc.a(lib_a-calloc.o)
 .debug_abbrev  0x00010003      0x16e c:/altera/11.0sp1/nios2eds/bin/gnu/h-i686-mingw32/bin/../lib/gcc/nios2-elf/4.1.2/../../../../nios2-elf/lib\libc.a(lib_a-exit.o)
 .debug_abbrev  0x00010171      0x17f c:/altera/11.0sp1/nios2eds/bin/gnu/h-i686-mingw32/bin/../lib/gcc/nios2-elf/4.1.2/../../../../nios2-elf/lib\libc.a(lib_a-getc.o)
 .debug_abbrev  0x000102f0      0x187 c:/altera/11.0sp1/nios2eds/bin/gnu/h-i686-mingw32/bin/../lib/gcc/nios2-elf/4.1.2/../../../../nios2-elf/lib\libc.a(lib_a-malloc.o)
 .debug_abbrev  0x00010477       0x7c c:/altera/11.0sp1/nios2eds/bin/gnu/h-i686-mingw32/bin/../lib/gcc/nios2-elf/4.1.2/../../../../nios2-elf/lib\libc.a(lib_a-memcmp.o)
 .debug_abbrev  0x000104f3      0x189 c:/altera/11.0sp1/nios2eds/bin/gnu/h-i686-mingw32/bin/../lib/gcc/nios2-elf/4.1.2/../../../../nios2-elf/lib\libc.a(lib_a-rget.o)
 .debug_abbrev  0x0001067c       0x8f c:/altera/11.0sp1/nios2eds/bin/gnu/h-i686-mingw32/bin/../lib/gcc/nios2-elf/4.1.2/../../../../nios2-elf/lib\libc.a(lib_a-strcpy.o)
 .debug_abbrev  0x0001070b       0x8d c:/altera/11.0sp1/nios2eds/bin/gnu/h-i686-mingw32/bin/../lib/gcc/nios2-elf/4.1.2/../../../../nios2-elf/lib\libc.a(lib_a-strncmp.o)
 .debug_abbrev  0x00010798       0x9c c:/altera/11.0sp1/nios2eds/bin/gnu/h-i686-mingw32/bin/../lib/gcc/nios2-elf/4.1.2/../../../../nios2-elf/lib\libc.a(lib_a-strncpy.o)
 .debug_abbrev  0x00010834      0x1c7 c:/altera/11.0sp1/nios2eds/bin/gnu/h-i686-mingw32/bin/../lib/gcc/nios2-elf/4.1.2/../../../../nios2-elf/lib\libc.a(lib_a-strtol.o)
 .debug_abbrev  0x000109fb      0x170 c:/altera/11.0sp1/nios2eds/bin/gnu/h-i686-mingw32/bin/../lib/gcc/nios2-elf/4.1.2/../../../../nios2-elf/lib\libc.a(lib_a-vprintf.o)
 .debug_abbrev  0x00010b6b      0x1a5 c:/altera/11.0sp1/nios2eds/bin/gnu/h-i686-mingw32/bin/../lib/gcc/nios2-elf/4.1.2/../../../../nios2-elf/lib\libc.a(lib_a-vsprintf.o)
 .debug_abbrev  0x00010d10      0x1ae c:/altera/11.0sp1/nios2eds/bin/gnu/h-i686-mingw32/bin/../lib/gcc/nios2-elf/4.1.2/../../../../nios2-elf/lib\libc.a(lib_a-__atexit.o)
 .debug_abbrev  0x00010ebe      0x1de c:/altera/11.0sp1/nios2eds/bin/gnu/h-i686-mingw32/bin/../lib/gcc/nios2-elf/4.1.2/../../../../nios2-elf/lib\libc.a(lib_a-__call_atexit.o)
 .debug_abbrev  0x0001109c      0x187 c:/altera/11.0sp1/nios2eds/bin/gnu/h-i686-mingw32/bin/../lib/gcc/nios2-elf/4.1.2/../../../../nios2-elf/lib\libc.a(lib_a-refill.o)
 .debug_abbrev  0x00011223       0xaa ../tcpip_test_bsp/\libucosii_bsp.a(alt_exit.o)

.debug_line     0x00000000    0x3ff10
 *(.debug_line)
 .debug_line    0x00000000       0x72 ../tcpip_test_bsp//obj/HAL/src/crt0.o
 .debug_line    0x00000072      0x714 obj/alt_error_handler.o
 .debug_line    0x00000786      0x435 obj/iniche_init.o
 .debug_line    0x00000bbb      0x3ac obj/led.o
 .debug_line    0x00000f67      0x48b obj/network_utilities.o
 .debug_line    0x000013f2      0x6da obj/simple_socket_server.o
 .debug_line    0x00001acc      0x3ec obj/tse_my_system.o
 .debug_line    0x00001eb8       0x7e c:/altera/11.0sp1/nios2eds/bin/gnu/h-i686-mingw32/bin/../lib/gcc/nios2-elf/4.1.2/../../../../nios2-elf/lib\libc.a(lib_a-ctype_.o)
 .debug_line    0x00001f36      0x284 c:/altera/11.0sp1/nios2eds/bin/gnu/h-i686-mingw32/bin/../lib/gcc/nios2-elf/4.1.2/../../../../nios2-elf/lib\libc.a(lib_a-fprintf.o)
 .debug_line    0x000021ba      0x2d9 c:/altera/11.0sp1/nios2eds/bin/gnu/h-i686-mingw32/bin/../lib/gcc/nios2-elf/4.1.2/../../../../nios2-elf/lib\libc.a(lib_a-fwrite.o)
 .debug_line    0x00002493      0x22d c:/altera/11.0sp1/nios2eds/bin/gnu/h-i686-mingw32/bin/../lib/gcc/nios2-elf/4.1.2/../../../../nios2-elf/lib\libc.a(lib_a-impure.o)
 .debug_line    0x000026c0      0x1ac c:/altera/11.0sp1/nios2eds/bin/gnu/h-i686-mingw32/bin/../lib/gcc/nios2-elf/4.1.2/../../../../nios2-elf/lib\libc.a(lib_a-memcpy.o)
 .debug_line    0x0000286c      0x30a c:/altera/11.0sp1/nios2eds/bin/gnu/h-i686-mingw32/bin/../lib/gcc/nios2-elf/4.1.2/../../../../nios2-elf/lib\libc.a(lib_a-memmove.o)
 .debug_line    0x00002b76      0x301 c:/altera/11.0sp1/nios2eds/bin/gnu/h-i686-mingw32/bin/../lib/gcc/nios2-elf/4.1.2/../../../../nios2-elf/lib\libc.a(lib_a-memset.o)
 .debug_line    0x00002e77      0x2a4 c:/altera/11.0sp1/nios2eds/bin/gnu/h-i686-mingw32/bin/../lib/gcc/nios2-elf/4.1.2/../../../../nios2-elf/lib\libc.a(lib_a-perror.o)
 .debug_line    0x0000311b      0x29b c:/altera/11.0sp1/nios2eds/bin/gnu/h-i686-mingw32/bin/../lib/gcc/nios2-elf/4.1.2/../../../../nios2-elf/lib\libc.a(lib_a-printf.o)
 .debug_line    0x000033b6      0x2f7 c:/altera/11.0sp1/nios2eds/bin/gnu/h-i686-mingw32/bin/../lib/gcc/nios2-elf/4.1.2/../../../../nios2-elf/lib\libc.a(lib_a-puts.o)
 .debug_line    0x000036ad      0x322 c:/altera/11.0sp1/nios2eds/bin/gnu/h-i686-mingw32/bin/../lib/gcc/nios2-elf/4.1.2/../../../../nios2-elf/lib\libc.a(lib_a-sprintf.o)
 .debug_line    0x000039cf      0x2c7 c:/altera/11.0sp1/nios2eds/bin/gnu/h-i686-mingw32/bin/../lib/gcc/nios2-elf/4.1.2/../../../../nios2-elf/lib\libc.a(lib_a-strchr.o)
 .debug_line    0x00003c96      0x4e1 c:/altera/11.0sp1/nios2eds/bin/gnu/h-i686-mingw32/bin/../lib/gcc/nios2-elf/4.1.2/../../../../nios2-elf/lib\libc.a(lib_a-strerror.o)
 .debug_line    0x00004177      0x26d c:/altera/11.0sp1/nios2eds/bin/gnu/h-i686-mingw32/bin/../lib/gcc/nios2-elf/4.1.2/../../../../nios2-elf/lib\libc.a(lib_a-strlen.o)
 .debug_line    0x000043e4       0x91 c:/altera/11.0sp1/nios2eds/bin/gnu/h-i686-mingw32/bin/../lib/gcc/nios2-elf/4.1.2/../../../../nios2-elf/lib\libc.a(lib_a-u_strerr.o)
 .debug_line    0x00004475     0x110c c:/altera/11.0sp1/nios2eds/bin/gnu/h-i686-mingw32/bin/../lib/gcc/nios2-elf/4.1.2/../../../../nios2-elf/lib\libc.a(lib_a-vfprintf.o)
 .debug_line    0x00005581      0x2f0 c:/altera/11.0sp1/nios2eds/bin/gnu/h-i686-mingw32/bin/../lib/gcc/nios2-elf/4.1.2/../../../../nios2-elf/lib\libc.a(lib_a-wsetup.o)
 .debug_line    0x00005871     0x12c6 c:/altera/11.0sp1/nios2eds/bin/gnu/h-i686-mingw32/bin/../lib/gcc/nios2-elf/4.1.2/../../../../nios2-elf/lib\libc.a(lib_a-dtoa.o)
 .debug_line    0x00006b37      0x40d c:/altera/11.0sp1/nios2eds/bin/gnu/h-i686-mingw32/bin/../lib/gcc/nios2-elf/4.1.2/../../../../nios2-elf/lib\libc.a(lib_a-fflush.o)
 .debug_line    0x00006f44      0x601 c:/altera/11.0sp1/nios2eds/bin/gnu/h-i686-mingw32/bin/../lib/gcc/nios2-elf/4.1.2/../../../../nios2-elf/lib\libc.a(lib_a-findfp.o)
 .debug_line    0x00007545      0x285 c:/altera/11.0sp1/nios2eds/bin/gnu/h-i686-mingw32/bin/../lib/gcc/nios2-elf/4.1.2/../../../../nios2-elf/lib\libc.a(lib_a-fputc.o)
 .debug_line    0x000077ca      0x2c8 c:/altera/11.0sp1/nios2eds/bin/gnu/h-i686-mingw32/bin/../lib/gcc/nios2-elf/4.1.2/../../../../nios2-elf/lib\libc.a(lib_a-fputs.o)
 .debug_line    0x00007a92      0x5eb c:/altera/11.0sp1/nios2eds/bin/gnu/h-i686-mingw32/bin/../lib/gcc/nios2-elf/4.1.2/../../../../nios2-elf/lib\libc.a(lib_a-freer.o)
 .debug_line    0x0000807d      0x641 c:/altera/11.0sp1/nios2eds/bin/gnu/h-i686-mingw32/bin/../lib/gcc/nios2-elf/4.1.2/../../../../nios2-elf/lib\libc.a(lib_a-fvwrite.o)
 .debug_line    0x000086be      0x34a c:/altera/11.0sp1/nios2eds/bin/gnu/h-i686-mingw32/bin/../lib/gcc/nios2-elf/4.1.2/../../../../nios2-elf/lib\libc.a(lib_a-fwalk.o)
 .debug_line    0x00008a08      0x2c8 c:/altera/11.0sp1/nios2eds/bin/gnu/h-i686-mingw32/bin/../lib/gcc/nios2-elf/4.1.2/../../../../nios2-elf/lib\libc.a(lib_a-locale.o)
 .debug_line    0x00008cd0      0x3c3 c:/altera/11.0sp1/nios2eds/bin/gnu/h-i686-mingw32/bin/../lib/gcc/nios2-elf/4.1.2/../../../../nios2-elf/lib\libc.a(lib_a-makebuf.o)
 .debug_line    0x00009093      0x80a c:/altera/11.0sp1/nios2eds/bin/gnu/h-i686-mingw32/bin/../lib/gcc/nios2-elf/4.1.2/../../../../nios2-elf/lib\libc.a(lib_a-mallocr.o)
 .debug_line    0x0000989d      0x303 c:/altera/11.0sp1/nios2eds/bin/gnu/h-i686-mingw32/bin/../lib/gcc/nios2-elf/4.1.2/../../../../nios2-elf/lib\libc.a(lib_a-memchr.o)
 .debug_line    0x00009ba0     0x1243 c:/altera/11.0sp1/nios2eds/bin/gnu/h-i686-mingw32/bin/../lib/gcc/nios2-elf/4.1.2/../../../../nios2-elf/lib\libc.a(lib_a-mprec.o)
 .debug_line    0x0000ade3      0x2c4 c:/altera/11.0sp1/nios2eds/bin/gnu/h-i686-mingw32/bin/../lib/gcc/nios2-elf/4.1.2/../../../../nios2-elf/lib\libc.a(lib_a-putc.o)
 .debug_line    0x0000b0a7      0x58a c:/altera/11.0sp1/nios2eds/bin/gnu/h-i686-mingw32/bin/../lib/gcc/nios2-elf/4.1.2/../../../../nios2-elf/lib\libc.a(lib_a-reallocr.o)
 .debug_line    0x0000b631      0x222 c:/altera/11.0sp1/nios2eds/bin/gnu/h-i686-mingw32/bin/../lib/gcc/nios2-elf/4.1.2/../../../../nios2-elf/lib\libc.a(lib_a-s_isinfd.o)
 .debug_line    0x0000b853      0x21a c:/altera/11.0sp1/nios2eds/bin/gnu/h-i686-mingw32/bin/../lib/gcc/nios2-elf/4.1.2/../../../../nios2-elf/lib\libc.a(lib_a-s_isnand.o)
 .debug_line    0x0000ba6d      0x299 c:/altera/11.0sp1/nios2eds/bin/gnu/h-i686-mingw32/bin/../lib/gcc/nios2-elf/4.1.2/../../../../nios2-elf/lib\libc.a(lib_a-sbrkr.o)
 .debug_line    0x0000bd06      0x38c c:/altera/11.0sp1/nios2eds/bin/gnu/h-i686-mingw32/bin/../lib/gcc/nios2-elf/4.1.2/../../../../nios2-elf/lib\libc.a(lib_a-stdio.o)
 .debug_line    0x0000c092      0x2d5 c:/altera/11.0sp1/nios2eds/bin/gnu/h-i686-mingw32/bin/../lib/gcc/nios2-elf/4.1.2/../../../../nios2-elf/lib\libc.a(lib_a-strcmp.o)
 .debug_line    0x0000c367      0x350 c:/altera/11.0sp1/nios2eds/bin/gnu/h-i686-mingw32/bin/../lib/gcc/nios2-elf/4.1.2/../../../../nios2-elf/lib\libc.a(lib_a-wbuf.o)
 .debug_line    0x0000c6b7      0x29a c:/altera/11.0sp1/nios2eds/bin/gnu/h-i686-mingw32/bin/../lib/gcc/nios2-elf/4.1.2/../../../../nios2-elf/lib\libc.a(lib_a-writer.o)
 .debug_line    0x0000c951      0x25c c:/altera/11.0sp1/nios2eds/bin/gnu/h-i686-mingw32/bin/../lib/gcc/nios2-elf/4.1.2/../../../../nios2-elf/lib\libc.a(lib_a-callocr.o)
 .debug_line    0x0000cbad      0x29a c:/altera/11.0sp1/nios2eds/bin/gnu/h-i686-mingw32/bin/../lib/gcc/nios2-elf/4.1.2/../../../../nios2-elf/lib\libc.a(lib_a-closer.o)
 .debug_line    0x0000ce47      0x2e8 c:/altera/11.0sp1/nios2eds/bin/gnu/h-i686-mingw32/bin/../lib/gcc/nios2-elf/4.1.2/../../../../nios2-elf/lib\libc.a(lib_a-fclose.o)
 .debug_line    0x0000d12f      0x264 c:/altera/11.0sp1/nios2eds/bin/gnu/h-i686-mingw32/bin/../lib/gcc/nios2-elf/4.1.2/../../../../nios2-elf/lib\libc.a(lib_a-fstatr.o)
 .debug_line    0x0000d393      0x1df c:/altera/11.0sp1/nios2eds/bin/gnu/h-i686-mingw32/bin/../lib/gcc/nios2-elf/4.1.2/../../../../nios2-elf/lib\libc.a(lib_a-int_errno.o)
 .debug_line    0x0000d572      0x29b c:/altera/11.0sp1/nios2eds/bin/gnu/h-i686-mingw32/bin/../lib/gcc/nios2-elf/4.1.2/../../../../nios2-elf/lib\libc.a(lib_a-isattyr.o)
 .debug_line    0x0000d80d      0x29a c:/altera/11.0sp1/nios2eds/bin/gnu/h-i686-mingw32/bin/../lib/gcc/nios2-elf/4.1.2/../../../../nios2-elf/lib\libc.a(lib_a-lseekr.o)
 .debug_line    0x0000daa7      0x299 c:/altera/11.0sp1/nios2eds/bin/gnu/h-i686-mingw32/bin/../lib/gcc/nios2-elf/4.1.2/../../../../nios2-elf/lib\libc.a(lib_a-readr.o)
 .debug_line    0x0000dd40      0x2f2 c:/altera/11.0sp1/nios2eds/bin/gnu/h-i686-mingw32/bin/../lib/gcc/nios2-elf/4.1.2\libgcc.a(_udivdi3.o)
 .debug_line    0x0000e032      0x37d c:/altera/11.0sp1/nios2eds/bin/gnu/h-i686-mingw32/bin/../lib/gcc/nios2-elf/4.1.2\libgcc.a(_umoddi3.o)
 .debug_line    0x0000e3af      0x430 c:/altera/11.0sp1/nios2eds/bin/gnu/h-i686-mingw32/bin/../lib/gcc/nios2-elf/4.1.2\libgcc.a(_addsub_df.o)
 .debug_line    0x0000e7df      0x3e5 c:/altera/11.0sp1/nios2eds/bin/gnu/h-i686-mingw32/bin/../lib/gcc/nios2-elf/4.1.2\libgcc.a(_mul_df.o)
 .debug_line    0x0000ebc4      0x301 c:/altera/11.0sp1/nios2eds/bin/gnu/h-i686-mingw32/bin/../lib/gcc/nios2-elf/4.1.2\libgcc.a(_div_df.o)
 .debug_line    0x0000eec5      0x129 c:/altera/11.0sp1/nios2eds/bin/gnu/h-i686-mingw32/bin/../lib/gcc/nios2-elf/4.1.2\libgcc.a(_eq_df.o)
 .debug_line    0x0000efee      0x129 c:/altera/11.0sp1/nios2eds/bin/gnu/h-i686-mingw32/bin/../lib/gcc/nios2-elf/4.1.2\libgcc.a(_ne_df.o)
 .debug_line    0x0000f117      0x129 c:/altera/11.0sp1/nios2eds/bin/gnu/h-i686-mingw32/bin/../lib/gcc/nios2-elf/4.1.2\libgcc.a(_gt_df.o)
 .debug_line    0x0000f240      0x129 c:/altera/11.0sp1/nios2eds/bin/gnu/h-i686-mingw32/bin/../lib/gcc/nios2-elf/4.1.2\libgcc.a(_ge_df.o)
 .debug_line    0x0000f369      0x129 c:/altera/11.0sp1/nios2eds/bin/gnu/h-i686-mingw32/bin/../lib/gcc/nios2-elf/4.1.2\libgcc.a(_lt_df.o)
 .debug_line    0x0000f492      0x175 c:/altera/11.0sp1/nios2eds/bin/gnu/h-i686-mingw32/bin/../lib/gcc/nios2-elf/4.1.2\libgcc.a(_si_to_df.o)
 .debug_line    0x0000f607      0x149 c:/altera/11.0sp1/nios2eds/bin/gnu/h-i686-mingw32/bin/../lib/gcc/nios2-elf/4.1.2\libgcc.a(_df_to_si.o)
 .debug_line    0x0000f750       0x94 c:/altera/11.0sp1/nios2eds/bin/gnu/h-i686-mingw32/bin/../lib/gcc/nios2-elf/4.1.2\libgcc.a(_thenan_df.o)
 .debug_line    0x0000f7e4      0x189 c:/altera/11.0sp1/nios2eds/bin/gnu/h-i686-mingw32/bin/../lib/gcc/nios2-elf/4.1.2\libgcc.a(_usi_to_df.o)
 .debug_line    0x0000f96d      0x24f c:/altera/11.0sp1/nios2eds/bin/gnu/h-i686-mingw32/bin/../lib/gcc/nios2-elf/4.1.2\libgcc.a(lib2-divmod.o)
 .debug_line    0x0000fbbc      0x11f c:/altera/11.0sp1/nios2eds/bin/gnu/h-i686-mingw32/bin/../lib/gcc/nios2-elf/4.1.2\libgcc.a(_muldi3.o)
 .debug_line    0x0000fcdb       0xaa c:/altera/11.0sp1/nios2eds/bin/gnu/h-i686-mingw32/bin/../lib/gcc/nios2-elf/4.1.2\libgcc.a(_clz.o)
 .debug_line    0x0000fd85      0x105 c:/altera/11.0sp1/nios2eds/bin/gnu/h-i686-mingw32/bin/../lib/gcc/nios2-elf/4.1.2\libgcc.a(_clzsi2.o)
 .debug_line    0x0000fe8a      0x222 c:/altera/11.0sp1/nios2eds/bin/gnu/h-i686-mingw32/bin/../lib/gcc/nios2-elf/4.1.2\libgcc.a(_pack_df.o)
 .debug_line    0x000100ac      0x1e4 c:/altera/11.0sp1/nios2eds/bin/gnu/h-i686-mingw32/bin/../lib/gcc/nios2-elf/4.1.2\libgcc.a(_unpack_df.o)
 .debug_line    0x00010290      0x187 c:/altera/11.0sp1/nios2eds/bin/gnu/h-i686-mingw32/bin/../lib/gcc/nios2-elf/4.1.2\libgcc.a(_fpcmp_parts_df.o)
 .debug_line    0x00010417      0x301 ../tcpip_test_bsp/\libucosii_bsp.a(alt_fstat.o)
 .debug_line    0x00010718      0x302 ../tcpip_test_bsp/\libucosii_bsp.a(alt_isatty.o)
 .debug_line    0x00010a1a      0x217 ../tcpip_test_bsp/\libucosii_bsp.a(alt_load.o)
 .debug_line    0x00010c31      0x301 ../tcpip_test_bsp/\libucosii_bsp.a(alt_lseek.o)
 .debug_line    0x00010f32      0x349 ../tcpip_test_bsp/\libucosii_bsp.a(alt_main.o)
 .debug_line    0x0001127b      0x261 ../tcpip_test_bsp/\libucosii_bsp.a(alt_sbrk.o)
 .debug_line    0x000114dc      0x2bf ../tcpip_test_bsp/\libucosii_bsp.a(alt_env_lock.o)
 .debug_line    0x0001179b      0x37b ../tcpip_test_bsp/\libucosii_bsp.a(alt_malloc_lock.o)
 .debug_line    0x00011b16     0x1663 ../tcpip_test_bsp/\libucosii_bsp.a(os_core.o)
 .debug_line    0x00013179      0x388 ../tcpip_test_bsp/\libucosii_bsp.a(os_dbg.o)
 .debug_line    0x00013501     0x11e7 ../tcpip_test_bsp/\libucosii_bsp.a(os_flag.o)
 .debug_line    0x000146e8      0x78a ../tcpip_test_bsp/\libucosii_bsp.a(os_mem.o)
 .debug_line    0x00014e72      0xe6b ../tcpip_test_bsp/\libucosii_bsp.a(os_q.o)
 .debug_line    0x00015cdd      0xa23 ../tcpip_test_bsp/\libucosii_bsp.a(os_sem.o)
 .debug_line    0x00016700     0x112c ../tcpip_test_bsp/\libucosii_bsp.a(os_task.o)
 .debug_line    0x0001782c      0x52f ../tcpip_test_bsp/\libucosii_bsp.a(os_time.o)
 .debug_line    0x00017d5b      0x4fb ../tcpip_test_bsp/\libucosii_bsp.a(alt_sys_init.o)
 .debug_line    0x00018256      0x319 ../tcpip_test_bsp/\libucosii_bsp.a(altera_avalon_jtag_uart_fd.o)
 .debug_line    0x0001856f      0x598 ../tcpip_test_bsp/\libucosii_bsp.a(altera_avalon_jtag_uart_init.o)
 .debug_line    0x00018b07      0x356 ../tcpip_test_bsp/\libucosii_bsp.a(altera_avalon_jtag_uart_ioctl.o)
 .debug_line    0x00018e5d      0x494 ../tcpip_test_bsp/\libucosii_bsp.a(altera_avalon_jtag_uart_read.o)
 .debug_line    0x000192f1      0x4a2 ../tcpip_test_bsp/\libucosii_bsp.a(altera_avalon_jtag_uart_write.o)
 .debug_line    0x00019793      0x66e ../tcpip_test_bsp/\libucosii_bsp.a(altera_avalon_sgdma.o)
 .debug_line    0x00019e01      0x2b3 ../tcpip_test_bsp/\libucosii_bsp.a(altera_avalon_timer_sc.o)
 .debug_line    0x0001a0b4     0x2097 ../tcpip_test_bsp/\libucosii_bsp.a(altera_avalon_tse.o)
 .debug_line    0x0001c14b      0x33e ../tcpip_test_bsp/\libucosii_bsp.a(altera_avalon_tse_system_info.o)
 .debug_line    0x0001c489      0xc2f ../tcpip_test_bsp/\libucosii_bsp.a(ins_tse_mac.o)
 .debug_line    0x0001d0b8      0x347 ../tcpip_test_bsp/\libucosii_bsp.a(alt_iniche_close.o)
 .debug_line    0x0001d3ff      0x3ea ../tcpip_test_bsp/\libucosii_bsp.a(alt_iniche_dev.o)
 .debug_line    0x0001d7e9      0x346 ../tcpip_test_bsp/\libucosii_bsp.a(alt_iniche_read.o)
 .debug_line    0x0001db2f      0x357 ../tcpip_test_bsp/\libucosii_bsp.a(alt_iniche_write.o)
 .debug_line    0x0001de86      0x7a6 ../tcpip_test_bsp/\libucosii_bsp.a(ipnet.o)
 .debug_line    0x0001e62c      0x4e7 ../tcpip_test_bsp/\libucosii_bsp.a(ipstart.o)
 .debug_line    0x0001eb13      0x91c ../tcpip_test_bsp/\libucosii_bsp.a(igmp_cmn.o)
 .debug_line    0x0001f42f      0x6c7 ../tcpip_test_bsp/\libucosii_bsp.a(bsdsock.o)
 .debug_line    0x0001faf6      0x30a ../tcpip_test_bsp/\libucosii_bsp.a(cksum.o)
 .debug_line    0x0001fe00      0x7a9 ../tcpip_test_bsp/\libucosii_bsp.a(in_utils.o)
 .debug_line    0x000205a9      0x43f ../tcpip_test_bsp/\libucosii_bsp.a(netmain.o)
 .debug_line    0x000209e8      0x5a8 ../tcpip_test_bsp/\libucosii_bsp.a(tk_crnos.o)
 .debug_line    0x00020f90     0x1069 ../tcpip_test_bsp/\libucosii_bsp.a(dhcpclnt.o)
 .debug_line    0x00021ff9      0x2ff ../tcpip_test_bsp/\libucosii_bsp.a(dhcputil.o)
 .debug_line    0x000222f8      0x649 ../tcpip_test_bsp/\libucosii_bsp.a(pktalloc.o)
 .debug_line    0x00022941      0x3db ../tcpip_test_bsp/\libucosii_bsp.a(q.o)
 .debug_line    0x00022d1c      0x46e ../tcpip_test_bsp/\libucosii_bsp.a(udp_open.o)
 .debug_line    0x0002318a       0xaf ../tcpip_test_bsp/\libucosii_bsp.a(asm_cksum.o)
 .debug_line    0x00023239      0x472 ../tcpip_test_bsp/\libucosii_bsp.a(brdutils.o)
 .debug_line    0x000236ab      0x4ff ../tcpip_test_bsp/\libucosii_bsp.a(osportco.o)
 .debug_line    0x00023baa      0x63e ../tcpip_test_bsp/\libucosii_bsp.a(targnios.o)
 .debug_line    0x000241e8      0xf23 ../tcpip_test_bsp/\libucosii_bsp.a(nptcp.o)
 .debug_line    0x0002510b      0x848 ../tcpip_test_bsp/\libucosii_bsp.a(rawsock.o)
 .debug_line    0x00025953      0xe36 ../tcpip_test_bsp/\libucosii_bsp.a(sockcall.o)
 .debug_line    0x00026789     0x12b8 ../tcpip_test_bsp/\libucosii_bsp.a(socket.o)
 .debug_line    0x00027a41      0xbec ../tcpip_test_bsp/\libucosii_bsp.a(socket2.o)
 .debug_line    0x0002862d      0x72d ../tcpip_test_bsp/\libucosii_bsp.a(soselect.o)
 .debug_line    0x00028d5a     0x15ee ../tcpip_test_bsp/\libucosii_bsp.a(tcp_in.o)
 .debug_line    0x0002a348      0xa59 ../tcpip_test_bsp/\libucosii_bsp.a(tcp_out.o)
 .debug_line    0x0002ada1      0x7c3 ../tcpip_test_bsp/\libucosii_bsp.a(tcp_subr.o)
 .debug_line    0x0002b564      0x613 ../tcpip_test_bsp/\libucosii_bsp.a(tcp_timr.o)
 .debug_line    0x0002bb77      0x8a2 ../tcpip_test_bsp/\libucosii_bsp.a(tcp_usr.o)
 .debug_line    0x0002c419      0x33f ../tcpip_test_bsp/\libucosii_bsp.a(tcpport.o)
 .debug_line    0x0002c758      0x959 ../tcpip_test_bsp/\libucosii_bsp.a(udpsock.o)
 .debug_line    0x0002d0b1      0x2dc ../tcpip_test_bsp/\libucosii_bsp.a(alt_alarm_start.o)
 .debug_line    0x0002d38d      0x2f9 ../tcpip_test_bsp/\libucosii_bsp.a(alt_close.o)
 .debug_line    0x0002d686      0x1cd ../tcpip_test_bsp/\libucosii_bsp.a(alt_dcache_flush_all.o)
 .debug_line    0x0002d853      0x2ba ../tcpip_test_bsp/\libucosii_bsp.a(alt_dev.o)
 .debug_line    0x0002db0d      0x25a ../tcpip_test_bsp/\libucosii_bsp.a(alt_dev_llist_insert.o)
 .debug_line    0x0002dd67       0x83 ../tcpip_test_bsp/\libucosii_bsp.a(alt_do_ctors.o)
 .debug_line    0x0002ddea       0x83 ../tcpip_test_bsp/\libucosii_bsp.a(alt_do_dtors.o)
 .debug_line    0x0002de6d      0x1aa ../tcpip_test_bsp/\libucosii_bsp.a(alt_errno.o)
 .debug_line    0x0002e017      0x2da ../tcpip_test_bsp/\libucosii_bsp.a(alt_find_dev.o)
 .debug_line    0x0002e2f1      0x1bd ../tcpip_test_bsp/\libucosii_bsp.a(alt_icache_flush_all.o)
 .debug_line    0x0002e4ae      0x2c8 ../tcpip_test_bsp/\libucosii_bsp.a(alt_iic.o)
 .debug_line    0x0002e776      0x249 ../tcpip_test_bsp/\libucosii_bsp.a(alt_iic_isr_register.o)
 .debug_line    0x0002e9bf      0x323 ../tcpip_test_bsp/\libucosii_bsp.a(alt_io_redirect.o)
 .debug_line    0x0002ece2       0x6b ../tcpip_test_bsp/\libucosii_bsp.a(alt_irq_entry.o)
 .debug_line    0x0002ed4d      0x2c4 ../tcpip_test_bsp/\libucosii_bsp.a(alt_irq_handler.o)
 .debug_line    0x0002f011       0x72 ../tcpip_test_bsp/\libucosii_bsp.a(alt_irq_vars.o)
 .debug_line    0x0002f083      0x35f ../tcpip_test_bsp/\libucosii_bsp.a(alt_open.o)
 .debug_line    0x0002f3e2      0x328 ../tcpip_test_bsp/\libucosii_bsp.a(alt_read.o)
 .debug_line    0x0002f70a      0x279 ../tcpip_test_bsp/\libucosii_bsp.a(alt_release_fd.o)
 .debug_line    0x0002f983      0x1b9 ../tcpip_test_bsp/\libucosii_bsp.a(alt_remap_cached.o)
 .debug_line    0x0002fb3c      0x1c3 ../tcpip_test_bsp/\libucosii_bsp.a(alt_remap_uncached.o)
 .debug_line    0x0002fcff      0x316 ../tcpip_test_bsp/\libucosii_bsp.a(alt_tick.o)
 .debug_line    0x00030015      0x1cc ../tcpip_test_bsp/\libucosii_bsp.a(alt_uncached_malloc.o)
 .debug_line    0x000301e1      0x2ad ../tcpip_test_bsp/\libucosii_bsp.a(alt_usleep.o)
 .debug_line    0x0003048e      0x329 ../tcpip_test_bsp/\libucosii_bsp.a(alt_write.o)
 .debug_line    0x000307b7      0x1c9 ../tcpip_test_bsp/\libucosii_bsp.a(altera_nios2_irq.o)
 .debug_line    0x00030980       0x86 ../tcpip_test_bsp/\libucosii_bsp.a(os_cpu_a.o)
 .debug_line    0x00030a06      0x330 ../tcpip_test_bsp/\libucosii_bsp.a(os_cpu_c.o)
 .debug_line    0x00030d36      0x51f ../tcpip_test_bsp/\libucosii_bsp.a(allports.o)
 .debug_line    0x00031255      0x483 ../tcpip_test_bsp/\libucosii_bsp.a(timeouts.o)
 .debug_line    0x000316d8      0x370 ../tcpip_test_bsp/\libucosii_bsp.a(tk_misc.o)
 .debug_line    0x00031a48      0x38f ../tcpip_test_bsp/\libucosii_bsp.a(alt_iniche_fcntl.o)
 .debug_line    0x00031dd7      0xca2 ../tcpip_test_bsp/\libucosii_bsp.a(et_arp.o)
 .debug_line    0x00032a79      0x479 ../tcpip_test_bsp/\libucosii_bsp.a(iface.o)
 .debug_line    0x00032ef2      0xf95 ../tcpip_test_bsp/\libucosii_bsp.a(ip.o)
 .debug_line    0x00033e87      0xf7c ../tcpip_test_bsp/\libucosii_bsp.a(ip_reasm.o)
 .debug_line    0x00034e03      0x786 ../tcpip_test_bsp/\libucosii_bsp.a(ipdemux.o)
 .debug_line    0x00035589      0x468 ../tcpip_test_bsp/\libucosii_bsp.a(ipmc.o)
 .debug_line    0x000359f1      0x338 ../tcpip_test_bsp/\libucosii_bsp.a(ipport.o)
 .debug_line    0x00035d29      0x5b9 ../tcpip_test_bsp/\libucosii_bsp.a(ipraw.o)
 .debug_line    0x000362e2      0x5bb ../tcpip_test_bsp/\libucosii_bsp.a(iproute.o)
 .debug_line    0x0003689d      0x7f6 ../tcpip_test_bsp/\libucosii_bsp.a(udp.o)
 .debug_line    0x00037093      0x43a ../tcpip_test_bsp/\libucosii_bsp.a(igmp.o)
 .debug_line    0x000374cd      0x62d ../tcpip_test_bsp/\libucosii_bsp.a(igmp2.o)
 .debug_line    0x00037afa      0x711 ../tcpip_test_bsp/\libucosii_bsp.a(ipopt.o)
 .debug_line    0x0003820b      0x5fb ../tcpip_test_bsp/\libucosii_bsp.a(u_mctest.o)
 .debug_line    0x00038806      0x43f ../tcpip_test_bsp/\libucosii_bsp.a(dhcsetup.o)
 .debug_line    0x00038c45      0x449 ../tcpip_test_bsp/\libucosii_bsp.a(memdev.o)
 .debug_line    0x0003908e      0x64d ../tcpip_test_bsp/\libucosii_bsp.a(parseip.o)
 .debug_line    0x000396db      0x3b9 ../tcpip_test_bsp/\libucosii_bsp.a(tcpcksum.o)
 .debug_line    0x00039a94      0x76d ../tcpip_test_bsp/\libucosii_bsp.a(in_pcb.o)
 .debug_line    0x0003a201      0xff7 ../tcpip_test_bsp/\libucosii_bsp.a(vfsfiles.o)
 .debug_line    0x0003b1f8      0x2c4 ../tcpip_test_bsp/\libucosii_bsp.a(vfsport.o)
 .debug_line    0x0003b4bc      0x25c ../tcpip_test_bsp/\libucosii_bsp.a(alt_busy_sleep.o)
 .debug_line    0x0003b718      0x1e1 ../tcpip_test_bsp/\libucosii_bsp.a(alt_dcache_flush.o)
 .debug_line    0x0003b8f9       0xab ../tcpip_test_bsp/\libucosii_bsp.a(alt_exception_entry.o)
 .debug_line    0x0003b9a4      0x358 ../tcpip_test_bsp/\libucosii_bsp.a(alt_fcntl.o)
 .debug_line    0x0003bcfc      0x2eb ../tcpip_test_bsp/\libucosii_bsp.a(alt_find_file.o)
 .debug_line    0x0003bfe7      0x31b ../tcpip_test_bsp/\libucosii_bsp.a(alt_get_fd.o)
 .debug_line    0x0003c302      0x1f9 ../tcpip_test_bsp/\libucosii_bsp.a(alt_icache_flush.o)
 .debug_line    0x0003c4fb      0x958 ../tcpip_test_bsp/\libucosii_bsp.a(icmp.o)
 .debug_line    0x0003ce53      0x200 c:/altera/11.0sp1/nios2eds/bin/gnu/h-i686-mingw32/bin/../lib/gcc/nios2-elf/4.1.2/../../../../nios2-elf/lib\libc.a(lib_a-atexit.o)
 .debug_line    0x0003d053      0x20a c:/altera/11.0sp1/nios2eds/bin/gnu/h-i686-mingw32/bin/../lib/gcc/nios2-elf/4.1.2/../../../../nios2-elf/lib\libc.a(lib_a-atoi.o)
 .debug_line    0x0003d25d      0x20c c:/altera/11.0sp1/nios2eds/bin/gnu/h-i686-mingw32/bin/../lib/gcc/nios2-elf/4.1.2/../../../../nios2-elf/lib\libc.a(lib_a-calloc.o)
 .debug_line    0x0003d469      0x238 c:/altera/11.0sp1/nios2eds/bin/gnu/h-i686-mingw32/bin/../lib/gcc/nios2-elf/4.1.2/../../../../nios2-elf/lib\libc.a(lib_a-exit.o)
 .debug_line    0x0003d6a1      0x2a4 c:/altera/11.0sp1/nios2eds/bin/gnu/h-i686-mingw32/bin/../lib/gcc/nios2-elf/4.1.2/../../../../nios2-elf/lib\libc.a(lib_a-getc.o)
 .debug_line    0x0003d945      0x24b c:/altera/11.0sp1/nios2eds/bin/gnu/h-i686-mingw32/bin/../lib/gcc/nios2-elf/4.1.2/../../../../nios2-elf/lib\libc.a(lib_a-malloc.o)
 .debug_line    0x0003db90      0x29f c:/altera/11.0sp1/nios2eds/bin/gnu/h-i686-mingw32/bin/../lib/gcc/nios2-elf/4.1.2/../../../../nios2-elf/lib\libc.a(lib_a-memcmp.o)
 .debug_line    0x0003de2f      0x28d c:/altera/11.0sp1/nios2eds/bin/gnu/h-i686-mingw32/bin/../lib/gcc/nios2-elf/4.1.2/../../../../nios2-elf/lib\libc.a(lib_a-rget.o)
 .debug_line    0x0003e0bc      0x287 c:/altera/11.0sp1/nios2eds/bin/gnu/h-i686-mingw32/bin/../lib/gcc/nios2-elf/4.1.2/../../../../nios2-elf/lib\libc.a(lib_a-strcpy.o)
 .debug_line    0x0003e343      0x2fe c:/altera/11.0sp1/nios2eds/bin/gnu/h-i686-mingw32/bin/../lib/gcc/nios2-elf/4.1.2/../../../../nios2-elf/lib\libc.a(lib_a-strncmp.o)
 .debug_line    0x0003e641      0x2d0 c:/altera/11.0sp1/nios2eds/bin/gnu/h-i686-mingw32/bin/../lib/gcc/nios2-elf/4.1.2/../../../../nios2-elf/lib\libc.a(lib_a-strncpy.o)
 .debug_line    0x0003e911      0x403 c:/altera/11.0sp1/nios2eds/bin/gnu/h-i686-mingw32/bin/../lib/gcc/nios2-elf/4.1.2/../../../../nios2-elf/lib\libc.a(lib_a-strtol.o)
 .debug_line    0x0003ed14      0x26f c:/altera/11.0sp1/nios2eds/bin/gnu/h-i686-mingw32/bin/../lib/gcc/nios2-elf/4.1.2/../../../../nios2-elf/lib\libc.a(lib_a-vprintf.o)
 .debug_line    0x0003ef83      0x2d9 c:/altera/11.0sp1/nios2eds/bin/gnu/h-i686-mingw32/bin/../lib/gcc/nios2-elf/4.1.2/../../../../nios2-elf/lib\libc.a(lib_a-vsprintf.o)
 .debug_line    0x0003f25c      0x313 c:/altera/11.0sp1/nios2eds/bin/gnu/h-i686-mingw32/bin/../lib/gcc/nios2-elf/4.1.2/../../../../nios2-elf/lib\libc.a(lib_a-__atexit.o)
 .debug_line    0x0003f56f      0x367 c:/altera/11.0sp1/nios2eds/bin/gnu/h-i686-mingw32/bin/../lib/gcc/nios2-elf/4.1.2/../../../../nios2-elf/lib\libc.a(lib_a-__call_atexit.o)
 .debug_line    0x0003f8d6      0x3c4 c:/altera/11.0sp1/nios2eds/bin/gnu/h-i686-mingw32/bin/../lib/gcc/nios2-elf/4.1.2/../../../../nios2-elf/lib\libc.a(lib_a-refill.o)
 .debug_line    0x0003fc9a      0x276 ../tcpip_test_bsp/\libucosii_bsp.a(alt_exit.o)

.debug_frame    0x00000000     0x6334
 *(.debug_frame)
 .debug_frame   0x00000000       0x64 obj/alt_error_handler.o
 .debug_frame   0x00000064       0x48 obj/iniche_init.o
 .debug_frame   0x000000ac       0x48 obj/led.o
 .debug_frame   0x000000f4       0x64 obj/network_utilities.o
 .debug_frame   0x00000158       0xfc obj/simple_socket_server.o
 .debug_frame   0x00000254       0x4c obj/tse_my_system.o
 .debug_frame   0x000002a0       0x40 c:/altera/11.0sp1/nios2eds/bin/gnu/h-i686-mingw32/bin/../lib/gcc/nios2-elf/4.1.2/../../../../nios2-elf/lib\libc.a(lib_a-fprintf.o)
 .debug_frame   0x000002e0       0x48 c:/altera/11.0sp1/nios2eds/bin/gnu/h-i686-mingw32/bin/../lib/gcc/nios2-elf/4.1.2/../../../../nios2-elf/lib\libc.a(lib_a-fwrite.o)
 .debug_frame   0x00000328       0x20 c:/altera/11.0sp1/nios2eds/bin/gnu/h-i686-mingw32/bin/../lib/gcc/nios2-elf/4.1.2/../../../../nios2-elf/lib\libc.a(lib_a-memcpy.o)
 .debug_frame   0x00000348       0x20 c:/altera/11.0sp1/nios2eds/bin/gnu/h-i686-mingw32/bin/../lib/gcc/nios2-elf/4.1.2/../../../../nios2-elf/lib\libc.a(lib_a-memmove.o)
 .debug_frame   0x00000368       0x20 c:/altera/11.0sp1/nios2eds/bin/gnu/h-i686-mingw32/bin/../lib/gcc/nios2-elf/4.1.2/../../../../nios2-elf/lib\libc.a(lib_a-memset.o)
 .debug_frame   0x00000388       0x38 c:/altera/11.0sp1/nios2eds/bin/gnu/h-i686-mingw32/bin/../lib/gcc/nios2-elf/4.1.2/../../../../nios2-elf/lib\libc.a(lib_a-perror.o)
 .debug_frame   0x000003c0       0x40 c:/altera/11.0sp1/nios2eds/bin/gnu/h-i686-mingw32/bin/../lib/gcc/nios2-elf/4.1.2/../../../../nios2-elf/lib\libc.a(lib_a-printf.o)
 .debug_frame   0x00000400       0x3c c:/altera/11.0sp1/nios2eds/bin/gnu/h-i686-mingw32/bin/../lib/gcc/nios2-elf/4.1.2/../../../../nios2-elf/lib\libc.a(lib_a-puts.o)
 .debug_frame   0x0000043c       0x40 c:/altera/11.0sp1/nios2eds/bin/gnu/h-i686-mingw32/bin/../lib/gcc/nios2-elf/4.1.2/../../../../nios2-elf/lib\libc.a(lib_a-sprintf.o)
 .debug_frame   0x0000047c       0x20 c:/altera/11.0sp1/nios2eds/bin/gnu/h-i686-mingw32/bin/../lib/gcc/nios2-elf/4.1.2/../../../../nios2-elf/lib\libc.a(lib_a-strchr.o)
 .debug_frame   0x0000049c       0x28 c:/altera/11.0sp1/nios2eds/bin/gnu/h-i686-mingw32/bin/../lib/gcc/nios2-elf/4.1.2/../../../../nios2-elf/lib\libc.a(lib_a-strerror.o)
 .debug_frame   0x000004c4       0x20 c:/altera/11.0sp1/nios2eds/bin/gnu/h-i686-mingw32/bin/../lib/gcc/nios2-elf/4.1.2/../../../../nios2-elf/lib\libc.a(lib_a-strlen.o)
 .debug_frame   0x000004e4       0x20 c:/altera/11.0sp1/nios2eds/bin/gnu/h-i686-mingw32/bin/../lib/gcc/nios2-elf/4.1.2/../../../../nios2-elf/lib\libc.a(lib_a-u_strerr.o)
 .debug_frame   0x00000504       0x64 c:/altera/11.0sp1/nios2eds/bin/gnu/h-i686-mingw32/bin/../lib/gcc/nios2-elf/4.1.2/../../../../nios2-elf/lib\libc.a(lib_a-vfprintf.o)
 .debug_frame   0x00000568       0x2c c:/altera/11.0sp1/nios2eds/bin/gnu/h-i686-mingw32/bin/../lib/gcc/nios2-elf/4.1.2/../../../../nios2-elf/lib\libc.a(lib_a-wsetup.o)
 .debug_frame   0x00000594       0x64 c:/altera/11.0sp1/nios2eds/bin/gnu/h-i686-mingw32/bin/../lib/gcc/nios2-elf/4.1.2/../../../../nios2-elf/lib\libc.a(lib_a-dtoa.o)
 .debug_frame   0x000005f8       0x40 c:/altera/11.0sp1/nios2eds/bin/gnu/h-i686-mingw32/bin/../lib/gcc/nios2-elf/4.1.2/../../../../nios2-elf/lib\libc.a(lib_a-fflush.o)
 .debug_frame   0x00000638      0x118 c:/altera/11.0sp1/nios2eds/bin/gnu/h-i686-mingw32/bin/../lib/gcc/nios2-elf/4.1.2/../../../../nios2-elf/lib\libc.a(lib_a-findfp.o)
 .debug_frame   0x00000750       0x4c c:/altera/11.0sp1/nios2eds/bin/gnu/h-i686-mingw32/bin/../lib/gcc/nios2-elf/4.1.2/../../../../nios2-elf/lib\libc.a(lib_a-fputc.o)
 .debug_frame   0x0000079c       0x3c c:/altera/11.0sp1/nios2eds/bin/gnu/h-i686-mingw32/bin/../lib/gcc/nios2-elf/4.1.2/../../../../nios2-elf/lib\libc.a(lib_a-fputs.o)
 .debug_frame   0x000007d8       0x4c c:/altera/11.0sp1/nios2eds/bin/gnu/h-i686-mingw32/bin/../lib/gcc/nios2-elf/4.1.2/../../../../nios2-elf/lib\libc.a(lib_a-freer.o)
 .debug_frame   0x00000824       0x38 c:/altera/11.0sp1/nios2eds/bin/gnu/h-i686-mingw32/bin/../lib/gcc/nios2-elf/4.1.2/../../../../nios2-elf/lib\libc.a(lib_a-fvwrite.o)
 .debug_frame   0x0000085c       0x60 c:/altera/11.0sp1/nios2eds/bin/gnu/h-i686-mingw32/bin/../lib/gcc/nios2-elf/4.1.2/../../../../nios2-elf/lib\libc.a(lib_a-fwalk.o)
 .debug_frame   0x000008bc       0x70 c:/altera/11.0sp1/nios2eds/bin/gnu/h-i686-mingw32/bin/../lib/gcc/nios2-elf/4.1.2/../../../../nios2-elf/lib\libc.a(lib_a-locale.o)
 .debug_frame   0x0000092c       0x2c c:/altera/11.0sp1/nios2eds/bin/gnu/h-i686-mingw32/bin/../lib/gcc/nios2-elf/4.1.2/../../../../nios2-elf/lib\libc.a(lib_a-makebuf.o)
 .debug_frame   0x00000958       0x38 c:/altera/11.0sp1/nios2eds/bin/gnu/h-i686-mingw32/bin/../lib/gcc/nios2-elf/4.1.2/../../../../nios2-elf/lib\libc.a(lib_a-mallocr.o)
 .debug_frame   0x00000990       0x20 c:/altera/11.0sp1/nios2eds/bin/gnu/h-i686-mingw32/bin/../lib/gcc/nios2-elf/4.1.2/../../../../nios2-elf/lib\libc.a(lib_a-memchr.o)
 .debug_frame   0x000009b0      0x218 c:/altera/11.0sp1/nios2eds/bin/gnu/h-i686-mingw32/bin/../lib/gcc/nios2-elf/4.1.2/../../../../nios2-elf/lib\libc.a(lib_a-mprec.o)
 .debug_frame   0x00000bc8       0x4c c:/altera/11.0sp1/nios2eds/bin/gnu/h-i686-mingw32/bin/../lib/gcc/nios2-elf/4.1.2/../../../../nios2-elf/lib\libc.a(lib_a-putc.o)
 .debug_frame   0x00000c14       0x38 c:/altera/11.0sp1/nios2eds/bin/gnu/h-i686-mingw32/bin/../lib/gcc/nios2-elf/4.1.2/../../../../nios2-elf/lib\libc.a(lib_a-reallocr.o)
 .debug_frame   0x00000c4c       0x20 c:/altera/11.0sp1/nios2eds/bin/gnu/h-i686-mingw32/bin/../lib/gcc/nios2-elf/4.1.2/../../../../nios2-elf/lib\libc.a(lib_a-s_isinfd.o)
 .debug_frame   0x00000c6c       0x20 c:/altera/11.0sp1/nios2eds/bin/gnu/h-i686-mingw32/bin/../lib/gcc/nios2-elf/4.1.2/../../../../nios2-elf/lib\libc.a(lib_a-s_isnand.o)
 .debug_frame   0x00000c8c       0x2c c:/altera/11.0sp1/nios2eds/bin/gnu/h-i686-mingw32/bin/../lib/gcc/nios2-elf/4.1.2/../../../../nios2-elf/lib\libc.a(lib_a-sbrkr.o)
 .debug_frame   0x00000cb8       0x78 c:/altera/11.0sp1/nios2eds/bin/gnu/h-i686-mingw32/bin/../lib/gcc/nios2-elf/4.1.2/../../../../nios2-elf/lib\libc.a(lib_a-stdio.o)
 .debug_frame   0x00000d30       0x20 c:/altera/11.0sp1/nios2eds/bin/gnu/h-i686-mingw32/bin/../lib/gcc/nios2-elf/4.1.2/../../../../nios2-elf/lib\libc.a(lib_a-strcmp.o)
 .debug_frame   0x00000d50       0x3c c:/altera/11.0sp1/nios2eds/bin/gnu/h-i686-mingw32/bin/../lib/gcc/nios2-elf/4.1.2/../../../../nios2-elf/lib\libc.a(lib_a-wbuf.o)
 .debug_frame   0x00000d8c       0x2c c:/altera/11.0sp1/nios2eds/bin/gnu/h-i686-mingw32/bin/../lib/gcc/nios2-elf/4.1.2/../../../../nios2-elf/lib\libc.a(lib_a-writer.o)
 .debug_frame   0x00000db8       0x28 c:/altera/11.0sp1/nios2eds/bin/gnu/h-i686-mingw32/bin/../lib/gcc/nios2-elf/4.1.2/../../../../nios2-elf/lib\libc.a(lib_a-callocr.o)
 .debug_frame   0x00000de0       0x2c c:/altera/11.0sp1/nios2eds/bin/gnu/h-i686-mingw32/bin/../lib/gcc/nios2-elf/4.1.2/../../../../nios2-elf/lib\libc.a(lib_a-closer.o)
 .debug_frame   0x00000e0c       0x3c c:/altera/11.0sp1/nios2eds/bin/gnu/h-i686-mingw32/bin/../lib/gcc/nios2-elf/4.1.2/../../../../nios2-elf/lib\libc.a(lib_a-fclose.o)
 .debug_frame   0x00000e48       0x2c c:/altera/11.0sp1/nios2eds/bin/gnu/h-i686-mingw32/bin/../lib/gcc/nios2-elf/4.1.2/../../../../nios2-elf/lib\libc.a(lib_a-fstatr.o)
 .debug_frame   0x00000e74       0x2c c:/altera/11.0sp1/nios2eds/bin/gnu/h-i686-mingw32/bin/../lib/gcc/nios2-elf/4.1.2/../../../../nios2-elf/lib\libc.a(lib_a-isattyr.o)
 .debug_frame   0x00000ea0       0x2c c:/altera/11.0sp1/nios2eds/bin/gnu/h-i686-mingw32/bin/../lib/gcc/nios2-elf/4.1.2/../../../../nios2-elf/lib\libc.a(lib_a-lseekr.o)
 .debug_frame   0x00000ecc       0x2c c:/altera/11.0sp1/nios2eds/bin/gnu/h-i686-mingw32/bin/../lib/gcc/nios2-elf/4.1.2/../../../../nios2-elf/lib\libc.a(lib_a-readr.o)
 .debug_frame   0x00000ef8       0x38 c:/altera/11.0sp1/nios2eds/bin/gnu/h-i686-mingw32/bin/../lib/gcc/nios2-elf/4.1.2\libgcc.a(_udivdi3.o)
 .debug_frame   0x00000f30       0x38 c:/altera/11.0sp1/nios2eds/bin/gnu/h-i686-mingw32/bin/../lib/gcc/nios2-elf/4.1.2\libgcc.a(_umoddi3.o)
 .debug_frame   0x00000f68       0x70 c:/altera/11.0sp1/nios2eds/bin/gnu/h-i686-mingw32/bin/../lib/gcc/nios2-elf/4.1.2\libgcc.a(_addsub_df.o)
 .debug_frame   0x00000fd8       0x3c c:/altera/11.0sp1/nios2eds/bin/gnu/h-i686-mingw32/bin/../lib/gcc/nios2-elf/4.1.2\libgcc.a(_mul_df.o)
 .debug_frame   0x00001014       0x30 c:/altera/11.0sp1/nios2eds/bin/gnu/h-i686-mingw32/bin/../lib/gcc/nios2-elf/4.1.2\libgcc.a(_div_df.o)
 .debug_frame   0x00001044       0x2c c:/altera/11.0sp1/nios2eds/bin/gnu/h-i686-mingw32/bin/../lib/gcc/nios2-elf/4.1.2\libgcc.a(_eq_df.o)
 .debug_frame   0x00001070       0x2c c:/altera/11.0sp1/nios2eds/bin/gnu/h-i686-mingw32/bin/../lib/gcc/nios2-elf/4.1.2\libgcc.a(_ne_df.o)
 .debug_frame   0x0000109c       0x2c c:/altera/11.0sp1/nios2eds/bin/gnu/h-i686-mingw32/bin/../lib/gcc/nios2-elf/4.1.2\libgcc.a(_gt_df.o)
 .debug_frame   0x000010c8       0x2c c:/altera/11.0sp1/nios2eds/bin/gnu/h-i686-mingw32/bin/../lib/gcc/nios2-elf/4.1.2\libgcc.a(_ge_df.o)
 .debug_frame   0x000010f4       0x2c c:/altera/11.0sp1/nios2eds/bin/gnu/h-i686-mingw32/bin/../lib/gcc/nios2-elf/4.1.2\libgcc.a(_lt_df.o)
 .debug_frame   0x00001120       0x30 c:/altera/11.0sp1/nios2eds/bin/gnu/h-i686-mingw32/bin/../lib/gcc/nios2-elf/4.1.2\libgcc.a(_si_to_df.o)
 .debug_frame   0x00001150       0x28 c:/altera/11.0sp1/nios2eds/bin/gnu/h-i686-mingw32/bin/../lib/gcc/nios2-elf/4.1.2\libgcc.a(_df_to_si.o)
 .debug_frame   0x00001178       0x38 c:/altera/11.0sp1/nios2eds/bin/gnu/h-i686-mingw32/bin/../lib/gcc/nios2-elf/4.1.2\libgcc.a(_usi_to_df.o)
 .debug_frame   0x000011b0       0x70 c:/altera/11.0sp1/nios2eds/bin/gnu/h-i686-mingw32/bin/../lib/gcc/nios2-elf/4.1.2\libgcc.a(lib2-divmod.o)
 .debug_frame   0x00001220       0x2c c:/altera/11.0sp1/nios2eds/bin/gnu/h-i686-mingw32/bin/../lib/gcc/nios2-elf/4.1.2\libgcc.a(_muldi3.o)
 .debug_frame   0x0000124c       0x20 c:/altera/11.0sp1/nios2eds/bin/gnu/h-i686-mingw32/bin/../lib/gcc/nios2-elf/4.1.2\libgcc.a(_clzsi2.o)
 .debug_frame   0x0000126c       0x2c c:/altera/11.0sp1/nios2eds/bin/gnu/h-i686-mingw32/bin/../lib/gcc/nios2-elf/4.1.2\libgcc.a(_pack_df.o)
 .debug_frame   0x00001298       0x20 c:/altera/11.0sp1/nios2eds/bin/gnu/h-i686-mingw32/bin/../lib/gcc/nios2-elf/4.1.2\libgcc.a(_unpack_df.o)
 .debug_frame   0x000012b8       0x20 c:/altera/11.0sp1/nios2eds/bin/gnu/h-i686-mingw32/bin/../lib/gcc/nios2-elf/4.1.2\libgcc.a(_fpcmp_parts_df.o)
 .debug_frame   0x000012d8       0x48 ../tcpip_test_bsp/\libucosii_bsp.a(alt_fstat.o)
 .debug_frame   0x00001320       0x48 ../tcpip_test_bsp/\libucosii_bsp.a(alt_isatty.o)
 .debug_frame   0x00001368       0x48 ../tcpip_test_bsp/\libucosii_bsp.a(alt_load.o)
 .debug_frame   0x000013b0       0x48 ../tcpip_test_bsp/\libucosii_bsp.a(alt_lseek.o)
 .debug_frame   0x000013f8       0x2c ../tcpip_test_bsp/\libucosii_bsp.a(alt_main.o)
 .debug_frame   0x00001424       0x2c ../tcpip_test_bsp/\libucosii_bsp.a(alt_sbrk.o)
 .debug_frame   0x00001450       0x4c ../tcpip_test_bsp/\libucosii_bsp.a(alt_env_lock.o)
 .debug_frame   0x0000149c       0x4c ../tcpip_test_bsp/\libucosii_bsp.a(alt_malloc_lock.o)
 .debug_frame   0x000014e8      0x3e4 ../tcpip_test_bsp/\libucosii_bsp.a(os_core.o)
 .debug_frame   0x000018cc       0x2c ../tcpip_test_bsp/\libucosii_bsp.a(os_dbg.o)
 .debug_frame   0x000018f8      0x180 ../tcpip_test_bsp/\libucosii_bsp.a(os_flag.o)
 .debug_frame   0x00001a78       0xd4 ../tcpip_test_bsp/\libucosii_bsp.a(os_mem.o)
 .debug_frame   0x00001b4c      0x144 ../tcpip_test_bsp/\libucosii_bsp.a(os_q.o)
 .debug_frame   0x00001c90       0xf0 ../tcpip_test_bsp/\libucosii_bsp.a(os_sem.o)
 .debug_frame   0x00001d80      0x160 ../tcpip_test_bsp/\libucosii_bsp.a(os_task.o)
 .debug_frame   0x00001ee0       0x9c ../tcpip_test_bsp/\libucosii_bsp.a(os_time.o)
 .debug_frame   0x00001f7c       0x64 ../tcpip_test_bsp/\libucosii_bsp.a(alt_sys_init.o)
 .debug_frame   0x00001fe0       0x80 ../tcpip_test_bsp/\libucosii_bsp.a(altera_avalon_jtag_uart_fd.o)
 .debug_frame   0x00002060       0x80 ../tcpip_test_bsp/\libucosii_bsp.a(altera_avalon_jtag_uart_init.o)
 .debug_frame   0x000020e0       0x2c ../tcpip_test_bsp/\libucosii_bsp.a(altera_avalon_jtag_uart_ioctl.o)
 .debug_frame   0x0000210c       0x2c ../tcpip_test_bsp/\libucosii_bsp.a(altera_avalon_jtag_uart_read.o)
 .debug_frame   0x00002138       0x2c ../tcpip_test_bsp/\libucosii_bsp.a(altera_avalon_jtag_uart_write.o)
 .debug_frame   0x00002164      0x240 ../tcpip_test_bsp/\libucosii_bsp.a(altera_avalon_sgdma.o)
 .debug_frame   0x000023a4       0x48 ../tcpip_test_bsp/\libucosii_bsp.a(altera_avalon_timer_sc.o)
 .debug_frame   0x000023ec      0x4d8 ../tcpip_test_bsp/\libucosii_bsp.a(altera_avalon_tse.o)
 .debug_frame   0x000028c4      0x114 ../tcpip_test_bsp/\libucosii_bsp.a(ins_tse_mac.o)
 .debug_frame   0x000029d8       0x2c ../tcpip_test_bsp/\libucosii_bsp.a(alt_iniche_close.o)
 .debug_frame   0x00002a04       0x2c ../tcpip_test_bsp/\libucosii_bsp.a(alt_iniche_dev.o)
 .debug_frame   0x00002a30       0x2c ../tcpip_test_bsp/\libucosii_bsp.a(alt_iniche_read.o)
 .debug_frame   0x00002a5c       0x2c ../tcpip_test_bsp/\libucosii_bsp.a(alt_iniche_write.o)
 .debug_frame   0x00002a88       0xb8 ../tcpip_test_bsp/\libucosii_bsp.a(ipnet.o)
 .debug_frame   0x00002b40       0x80 ../tcpip_test_bsp/\libucosii_bsp.a(ipstart.o)
 .debug_frame   0x00002bc0       0xf4 ../tcpip_test_bsp/\libucosii_bsp.a(igmp_cmn.o)
 .debug_frame   0x00002cb4      0x128 ../tcpip_test_bsp/\libucosii_bsp.a(bsdsock.o)
 .debug_frame   0x00002ddc       0x48 ../tcpip_test_bsp/\libucosii_bsp.a(cksum.o)
 .debug_frame   0x00002e24      0x164 ../tcpip_test_bsp/\libucosii_bsp.a(in_utils.o)
 .debug_frame   0x00002f88       0x64 ../tcpip_test_bsp/\libucosii_bsp.a(netmain.o)
 .debug_frame   0x00002fec       0xd4 ../tcpip_test_bsp/\libucosii_bsp.a(tk_crnos.o)
 .debug_frame   0x000030c0      0x24c ../tcpip_test_bsp/\libucosii_bsp.a(dhcpclnt.o)
 .debug_frame   0x0000330c       0x2c ../tcpip_test_bsp/\libucosii_bsp.a(dhcputil.o)
 .debug_frame   0x00003338       0xb8 ../tcpip_test_bsp/\libucosii_bsp.a(pktalloc.o)
 .debug_frame   0x000033f0       0x64 ../tcpip_test_bsp/\libucosii_bsp.a(q.o)
 .debug_frame   0x00003454       0x48 ../tcpip_test_bsp/\libucosii_bsp.a(udp_open.o)
 .debug_frame   0x0000349c       0xf0 ../tcpip_test_bsp/\libucosii_bsp.a(brdutils.o)
 .debug_frame   0x0000358c       0x9c ../tcpip_test_bsp/\libucosii_bsp.a(osportco.o)
 .debug_frame   0x00003628      0x110 ../tcpip_test_bsp/\libucosii_bsp.a(targnios.o)
 .debug_frame   0x00003738      0x208 ../tcpip_test_bsp/\libucosii_bsp.a(nptcp.o)
 .debug_frame   0x00003940       0x68 ../tcpip_test_bsp/\libucosii_bsp.a(rawsock.o)
 .debug_frame   0x000039a8      0x224 ../tcpip_test_bsp/\libucosii_bsp.a(sockcall.o)
 .debug_frame   0x00003bcc      0x1d0 ../tcpip_test_bsp/\libucosii_bsp.a(socket.o)
 .debug_frame   0x00003d9c      0x294 ../tcpip_test_bsp/\libucosii_bsp.a(socket2.o)
 .debug_frame   0x00004030      0x110 ../tcpip_test_bsp/\libucosii_bsp.a(soselect.o)
 .debug_frame   0x00004140       0xd8 ../tcpip_test_bsp/\libucosii_bsp.a(tcp_in.o)
 .debug_frame   0x00004218       0x68 ../tcpip_test_bsp/\libucosii_bsp.a(tcp_out.o)
 .debug_frame   0x00004280      0x10c ../tcpip_test_bsp/\libucosii_bsp.a(tcp_subr.o)
 .debug_frame   0x0000438c       0x64 ../tcpip_test_bsp/\libucosii_bsp.a(tcp_timr.o)
 .debug_frame   0x000043f0       0x80 ../tcpip_test_bsp/\libucosii_bsp.a(tcp_usr.o)
 .debug_frame   0x00004470       0x2c ../tcpip_test_bsp/\libucosii_bsp.a(tcpport.o)
 .debug_frame   0x0000449c       0xbc ../tcpip_test_bsp/\libucosii_bsp.a(udpsock.o)
 .debug_frame   0x00004558       0x2c ../tcpip_test_bsp/\libucosii_bsp.a(alt_alarm_start.o)
 .debug_frame   0x00004584       0x48 ../tcpip_test_bsp/\libucosii_bsp.a(alt_close.o)
 .debug_frame   0x000045cc       0x2c ../tcpip_test_bsp/\libucosii_bsp.a(alt_dcache_flush_all.o)
 .debug_frame   0x000045f8       0x2c ../tcpip_test_bsp/\libucosii_bsp.a(alt_dev.o)
 .debug_frame   0x00004624       0x48 ../tcpip_test_bsp/\libucosii_bsp.a(alt_dev_llist_insert.o)
 .debug_frame   0x0000466c       0x2c ../tcpip_test_bsp/\libucosii_bsp.a(alt_do_ctors.o)
 .debug_frame   0x00004698       0x2c ../tcpip_test_bsp/\libucosii_bsp.a(alt_do_dtors.o)
 .debug_frame   0x000046c4       0x2c ../tcpip_test_bsp/\libucosii_bsp.a(alt_find_dev.o)
 .debug_frame   0x000046f0       0x2c ../tcpip_test_bsp/\libucosii_bsp.a(alt_icache_flush_all.o)
 .debug_frame   0x0000471c       0x80 ../tcpip_test_bsp/\libucosii_bsp.a(alt_iic.o)
 .debug_frame   0x0000479c       0x2c ../tcpip_test_bsp/\libucosii_bsp.a(alt_iic_isr_register.o)
 .debug_frame   0x000047c8       0x48 ../tcpip_test_bsp/\libucosii_bsp.a(alt_io_redirect.o)
 .debug_frame   0x00004810       0x2c ../tcpip_test_bsp/\libucosii_bsp.a(alt_irq_handler.o)
 .debug_frame   0x0000483c       0x64 ../tcpip_test_bsp/\libucosii_bsp.a(alt_open.o)
 .debug_frame   0x000048a0       0x48 ../tcpip_test_bsp/\libucosii_bsp.a(alt_read.o)
 .debug_frame   0x000048e8       0x2c ../tcpip_test_bsp/\libucosii_bsp.a(alt_release_fd.o)
 .debug_frame   0x00004914       0x2c ../tcpip_test_bsp/\libucosii_bsp.a(alt_remap_cached.o)
 .debug_frame   0x00004940       0x2c ../tcpip_test_bsp/\libucosii_bsp.a(alt_remap_uncached.o)
 .debug_frame   0x0000496c       0x48 ../tcpip_test_bsp/\libucosii_bsp.a(alt_tick.o)
 .debug_frame   0x000049b4       0x2c ../tcpip_test_bsp/\libucosii_bsp.a(alt_uncached_malloc.o)
 .debug_frame   0x000049e0       0x2c ../tcpip_test_bsp/\libucosii_bsp.a(alt_usleep.o)
 .debug_frame   0x00004a0c       0x48 ../tcpip_test_bsp/\libucosii_bsp.a(alt_write.o)
 .debug_frame   0x00004a54       0x2c ../tcpip_test_bsp/\libucosii_bsp.a(altera_nios2_irq.o)
 .debug_frame   0x00004a80      0x128 ../tcpip_test_bsp/\libucosii_bsp.a(os_cpu_c.o)
 .debug_frame   0x00004ba8       0xe0 ../tcpip_test_bsp/\libucosii_bsp.a(allports.o)
 .debug_frame   0x00004c88       0x80 ../tcpip_test_bsp/\libucosii_bsp.a(timeouts.o)
 .debug_frame   0x00004d08       0x48 ../tcpip_test_bsp/\libucosii_bsp.a(tk_misc.o)
 .debug_frame   0x00004d50       0x2c ../tcpip_test_bsp/\libucosii_bsp.a(alt_iniche_fcntl.o)
 .debug_frame   0x00004d7c      0x160 ../tcpip_test_bsp/\libucosii_bsp.a(et_arp.o)
 .debug_frame   0x00004edc       0x80 ../tcpip_test_bsp/\libucosii_bsp.a(iface.o)
 .debug_frame   0x00004f5c      0x160 ../tcpip_test_bsp/\libucosii_bsp.a(ip.o)
 .debug_frame   0x000050bc      0x1d0 ../tcpip_test_bsp/\libucosii_bsp.a(ip_reasm.o)
 .debug_frame   0x0000528c       0x68 ../tcpip_test_bsp/\libucosii_bsp.a(ipdemux.o)
 .debug_frame   0x000052f4       0x64 ../tcpip_test_bsp/\libucosii_bsp.a(ipmc.o)
 .debug_frame   0x00005358       0x64 ../tcpip_test_bsp/\libucosii_bsp.a(ipport.o)
 .debug_frame   0x000053bc       0xb8 ../tcpip_test_bsp/\libucosii_bsp.a(ipraw.o)
 .debug_frame   0x00005474       0x64 ../tcpip_test_bsp/\libucosii_bsp.a(iproute.o)
 .debug_frame   0x000054d8       0xd4 ../tcpip_test_bsp/\libucosii_bsp.a(udp.o)
 .debug_frame   0x000055ac       0x2c ../tcpip_test_bsp/\libucosii_bsp.a(igmp.o)
 .debug_frame   0x000055d8       0x9c ../tcpip_test_bsp/\libucosii_bsp.a(igmp2.o)
 .debug_frame   0x00005674       0x84 ../tcpip_test_bsp/\libucosii_bsp.a(ipopt.o)
 .debug_frame   0x000056f8       0x4c ../tcpip_test_bsp/\libucosii_bsp.a(u_mctest.o)
 .debug_frame   0x00005744       0x48 ../tcpip_test_bsp/\libucosii_bsp.a(dhcsetup.o)
 .debug_frame   0x0000578c      0x10c ../tcpip_test_bsp/\libucosii_bsp.a(memdev.o)
 .debug_frame   0x00005898      0x10c ../tcpip_test_bsp/\libucosii_bsp.a(parseip.o)
 .debug_frame   0x000059a4       0x2c ../tcpip_test_bsp/\libucosii_bsp.a(tcpcksum.o)
 .debug_frame   0x000059d0       0xf0 ../tcpip_test_bsp/\libucosii_bsp.a(in_pcb.o)
 .debug_frame   0x00005ac0      0x320 ../tcpip_test_bsp/\libucosii_bsp.a(vfsfiles.o)
 .debug_frame   0x00005de0       0x2c ../tcpip_test_bsp/\libucosii_bsp.a(vfsport.o)
 .debug_frame   0x00005e0c       0x2c ../tcpip_test_bsp/\libucosii_bsp.a(alt_busy_sleep.o)
 .debug_frame   0x00005e38       0x2c ../tcpip_test_bsp/\libucosii_bsp.a(alt_dcache_flush.o)
 .debug_frame   0x00005e64       0x48 ../tcpip_test_bsp/\libucosii_bsp.a(alt_fcntl.o)
 .debug_frame   0x00005eac       0x2c ../tcpip_test_bsp/\libucosii_bsp.a(alt_find_file.o)
 .debug_frame   0x00005ed8       0x2c ../tcpip_test_bsp/\libucosii_bsp.a(alt_get_fd.o)
 .debug_frame   0x00005f04       0x2c ../tcpip_test_bsp/\libucosii_bsp.a(alt_icache_flush.o)
 .debug_frame   0x00005f30       0x84 ../tcpip_test_bsp/\libucosii_bsp.a(icmp.o)
 .debug_frame   0x00005fb4       0x20 c:/altera/11.0sp1/nios2eds/bin/gnu/h-i686-mingw32/bin/../lib/gcc/nios2-elf/4.1.2/../../../../nios2-elf/lib\libc.a(lib_a-atexit.o)
 .debug_frame   0x00005fd4       0x30 c:/altera/11.0sp1/nios2eds/bin/gnu/h-i686-mingw32/bin/../lib/gcc/nios2-elf/4.1.2/../../../../nios2-elf/lib\libc.a(lib_a-atoi.o)
 .debug_frame   0x00006004       0x20 c:/altera/11.0sp1/nios2eds/bin/gnu/h-i686-mingw32/bin/../lib/gcc/nios2-elf/4.1.2/../../../../nios2-elf/lib\libc.a(lib_a-calloc.o)
 .debug_frame   0x00006024       0x28 c:/altera/11.0sp1/nios2eds/bin/gnu/h-i686-mingw32/bin/../lib/gcc/nios2-elf/4.1.2/../../../../nios2-elf/lib\libc.a(lib_a-exit.o)
 .debug_frame   0x0000604c       0x48 c:/altera/11.0sp1/nios2eds/bin/gnu/h-i686-mingw32/bin/../lib/gcc/nios2-elf/4.1.2/../../../../nios2-elf/lib\libc.a(lib_a-getc.o)
 .debug_frame   0x00006094       0x30 c:/altera/11.0sp1/nios2eds/bin/gnu/h-i686-mingw32/bin/../lib/gcc/nios2-elf/4.1.2/../../../../nios2-elf/lib\libc.a(lib_a-malloc.o)
 .debug_frame   0x000060c4       0x20 c:/altera/11.0sp1/nios2eds/bin/gnu/h-i686-mingw32/bin/../lib/gcc/nios2-elf/4.1.2/../../../../nios2-elf/lib\libc.a(lib_a-memcmp.o)
 .debug_frame   0x000060e4       0x38 c:/altera/11.0sp1/nios2eds/bin/gnu/h-i686-mingw32/bin/../lib/gcc/nios2-elf/4.1.2/../../../../nios2-elf/lib\libc.a(lib_a-rget.o)
 .debug_frame   0x0000611c       0x20 c:/altera/11.0sp1/nios2eds/bin/gnu/h-i686-mingw32/bin/../lib/gcc/nios2-elf/4.1.2/../../../../nios2-elf/lib\libc.a(lib_a-strcpy.o)
 .debug_frame   0x0000613c       0x20 c:/altera/11.0sp1/nios2eds/bin/gnu/h-i686-mingw32/bin/../lib/gcc/nios2-elf/4.1.2/../../../../nios2-elf/lib\libc.a(lib_a-strncmp.o)
 .debug_frame   0x0000615c       0x20 c:/altera/11.0sp1/nios2eds/bin/gnu/h-i686-mingw32/bin/../lib/gcc/nios2-elf/4.1.2/../../../../nios2-elf/lib\libc.a(lib_a-strncpy.o)
 .debug_frame   0x0000617c       0x4c c:/altera/11.0sp1/nios2eds/bin/gnu/h-i686-mingw32/bin/../lib/gcc/nios2-elf/4.1.2/../../../../nios2-elf/lib\libc.a(lib_a-strtol.o)
 .debug_frame   0x000061c8       0x30 c:/altera/11.0sp1/nios2eds/bin/gnu/h-i686-mingw32/bin/../lib/gcc/nios2-elf/4.1.2/../../../../nios2-elf/lib\libc.a(lib_a-vprintf.o)
 .debug_frame   0x000061f8       0x38 c:/altera/11.0sp1/nios2eds/bin/gnu/h-i686-mingw32/bin/../lib/gcc/nios2-elf/4.1.2/../../../../nios2-elf/lib\libc.a(lib_a-vsprintf.o)
 .debug_frame   0x00006230       0x34 c:/altera/11.0sp1/nios2eds/bin/gnu/h-i686-mingw32/bin/../lib/gcc/nios2-elf/4.1.2/../../../../nios2-elf/lib\libc.a(lib_a-__atexit.o)
 .debug_frame   0x00006264       0x4c c:/altera/11.0sp1/nios2eds/bin/gnu/h-i686-mingw32/bin/../lib/gcc/nios2-elf/4.1.2/../../../../nios2-elf/lib\libc.a(lib_a-__call_atexit.o)
 .debug_frame   0x000062b0       0x3c c:/altera/11.0sp1/nios2eds/bin/gnu/h-i686-mingw32/bin/../lib/gcc/nios2-elf/4.1.2/../../../../nios2-elf/lib\libc.a(lib_a-refill.o)
 .debug_frame   0x000062ec       0x48 ../tcpip_test_bsp/\libucosii_bsp.a(alt_exit.o)

.debug_str      0x00000000     0x3675
 *(.debug_str)
 .debug_str     0x00000000       0x4e obj/alt_error_handler.o
 .debug_str     0x0000004e       0x1d obj/iniche_init.o
 .debug_str     0x0000006b       0x1d obj/led.o
 .debug_str     0x00000088       0x1b obj/network_utilities.o
 .debug_str     0x000000a3       0x2c obj/simple_socket_server.o
 .debug_str     0x000000cf       0x12 obj/tse_my_system.o
 .debug_str     0x000000e1       0xee c:/altera/11.0sp1/nios2eds/bin/gnu/h-i686-mingw32/bin/../lib/gcc/nios2-elf/4.1.2/../../../../nios2-elf/lib\libc.a(lib_a-ctype_.o)
                                0x105 (size before relaxing)
 .debug_str     0x000001cf      0x499 c:/altera/11.0sp1/nios2eds/bin/gnu/h-i686-mingw32/bin/../lib/gcc/nios2-elf/4.1.2/../../../../nios2-elf/lib\libc.a(lib_a-fprintf.o)
                                0x51f (size before relaxing)
 .debug_str     0x00000668       0x87 c:/altera/11.0sp1/nios2eds/bin/gnu/h-i686-mingw32/bin/../lib/gcc/nios2-elf/4.1.2/../../../../nios2-elf/lib\libc.a(lib_a-fwrite.o)
                                0x55f (size before relaxing)
 .debug_str     0x000006ef       0xe4 c:/altera/11.0sp1/nios2eds/bin/gnu/h-i686-mingw32/bin/../lib/gcc/nios2-elf/4.1.2/../../../../nios2-elf/lib\libc.a(lib_a-impure.o)
                                0x51a (size before relaxing)
 .debug_str     0x000007d3       0xf5 c:/altera/11.0sp1/nios2eds/bin/gnu/h-i686-mingw32/bin/../lib/gcc/nios2-elf/4.1.2/../../../../nios2-elf/lib\libc.a(lib_a-memcpy.o)
                                0x128 (size before relaxing)
 .debug_str     0x000008c8       0x5d c:/altera/11.0sp1/nios2eds/bin/gnu/h-i686-mingw32/bin/../lib/gcc/nios2-elf/4.1.2/../../../../nios2-elf/lib\libc.a(lib_a-memmove.o)
                                0x19d (size before relaxing)
 .debug_str     0x00000925       0x56 c:/altera/11.0sp1/nios2eds/bin/gnu/h-i686-mingw32/bin/../lib/gcc/nios2-elf/4.1.2/../../../../nios2-elf/lib\libc.a(lib_a-memset.o)
                                0x17e (size before relaxing)
 .debug_str     0x0000097b       0x4b c:/altera/11.0sp1/nios2eds/bin/gnu/h-i686-mingw32/bin/../lib/gcc/nios2-elf/4.1.2/../../../../nios2-elf/lib\libc.a(lib_a-perror.o)
                                0x512 (size before relaxing)
 .debug_str     0x000009c6       0x44 c:/altera/11.0sp1/nios2eds/bin/gnu/h-i686-mingw32/bin/../lib/gcc/nios2-elf/4.1.2/../../../../nios2-elf/lib\libc.a(lib_a-printf.o)
                                0x523 (size before relaxing)
 .debug_str     0x00000a0a       0x40 c:/altera/11.0sp1/nios2eds/bin/gnu/h-i686-mingw32/bin/../lib/gcc/nios2-elf/4.1.2/../../../../nios2-elf/lib\libc.a(lib_a-puts.o)
                                0x549 (size before relaxing)
 .debug_str     0x00000a4a       0x46 c:/altera/11.0sp1/nios2eds/bin/gnu/h-i686-mingw32/bin/../lib/gcc/nios2-elf/4.1.2/../../../../nios2-elf/lib\libc.a(lib_a-sprintf.o)
                                0x52b (size before relaxing)
 .debug_str     0x00000a90       0x47 c:/altera/11.0sp1/nios2eds/bin/gnu/h-i686-mingw32/bin/../lib/gcc/nios2-elf/4.1.2/../../../../nios2-elf/lib\libc.a(lib_a-strchr.o)
                                0x175 (size before relaxing)
 .debug_str     0x00000ad7       0x44 c:/altera/11.0sp1/nios2eds/bin/gnu/h-i686-mingw32/bin/../lib/gcc/nios2-elf/4.1.2/../../../../nios2-elf/lib\libc.a(lib_a-strerror.o)
                                0x174 (size before relaxing)
 .debug_str     0x00000b1b       0x42 c:/altera/11.0sp1/nios2eds/bin/gnu/h-i686-mingw32/bin/../lib/gcc/nios2-elf/4.1.2/../../../../nios2-elf/lib\libc.a(lib_a-strlen.o)
                                0x17d (size before relaxing)
 .debug_str     0x00000b5d       0x4c c:/altera/11.0sp1/nios2eds/bin/gnu/h-i686-mingw32/bin/../lib/gcc/nios2-elf/4.1.2/../../../../nios2-elf/lib\libc.a(lib_a-u_strerr.o)
                                 0xf0 (size before relaxing)
 .debug_str     0x00000ba9      0x178 c:/altera/11.0sp1/nios2eds/bin/gnu/h-i686-mingw32/bin/../lib/gcc/nios2-elf/4.1.2/../../../../nios2-elf/lib\libc.a(lib_a-vfprintf.o)
                                0x6f8 (size before relaxing)
 .debug_str     0x00000d21       0x46 c:/altera/11.0sp1/nios2eds/bin/gnu/h-i686-mingw32/bin/../lib/gcc/nios2-elf/4.1.2/../../../../nios2-elf/lib\libc.a(lib_a-wsetup.o)
                                0x50c (size before relaxing)
 .debug_str     0x00000d67      0x18e c:/altera/11.0sp1/nios2eds/bin/gnu/h-i686-mingw32/bin/../lib/gcc/nios2-elf/4.1.2/../../../../nios2-elf/lib\libc.a(lib_a-dtoa.o)
                                0x601 (size before relaxing)
 .debug_str     0x00000ef5       0x52 c:/altera/11.0sp1/nios2eds/bin/gnu/h-i686-mingw32/bin/../lib/gcc/nios2-elf/4.1.2/../../../../nios2-elf/lib\libc.a(lib_a-fflush.o)
                                0x532 (size before relaxing)
 .debug_str     0x00000f47      0x102 c:/altera/11.0sp1/nios2eds/bin/gnu/h-i686-mingw32/bin/../lib/gcc/nios2-elf/4.1.2/../../../../nios2-elf/lib\libc.a(lib_a-findfp.o)
                                0x5f4 (size before relaxing)
 .debug_str     0x00001049       0x48 c:/altera/11.0sp1/nios2eds/bin/gnu/h-i686-mingw32/bin/../lib/gcc/nios2-elf/4.1.2/../../../../nios2-elf/lib\libc.a(lib_a-fputc.o)
                                0x51a (size before relaxing)
 .debug_str     0x00001091       0x48 c:/altera/11.0sp1/nios2eds/bin/gnu/h-i686-mingw32/bin/../lib/gcc/nios2-elf/4.1.2/../../../../nios2-elf/lib\libc.a(lib_a-fputs.o)
                                0x558 (size before relaxing)
 .debug_str     0x000010d9      0x15b c:/altera/11.0sp1/nios2eds/bin/gnu/h-i686-mingw32/bin/../lib/gcc/nios2-elf/4.1.2/../../../../nios2-elf/lib\libc.a(lib_a-freer.o)
                                0x643 (size before relaxing)
 .debug_str     0x00001234       0x66 c:/altera/11.0sp1/nios2eds/bin/gnu/h-i686-mingw32/bin/../lib/gcc/nios2-elf/4.1.2/../../../../nios2-elf/lib\libc.a(lib_a-fvwrite.o)
                                0x563 (size before relaxing)
 .debug_str     0x0000129a       0x5e c:/altera/11.0sp1/nios2eds/bin/gnu/h-i686-mingw32/bin/../lib/gcc/nios2-elf/4.1.2/../../../../nios2-elf/lib\libc.a(lib_a-fwalk.o)
                                0x535 (size before relaxing)
 .debug_str     0x000012f8      0x225 c:/altera/11.0sp1/nios2eds/bin/gnu/h-i686-mingw32/bin/../lib/gcc/nios2-elf/4.1.2/../../../../nios2-elf/lib\libc.a(lib_a-locale.o)
                                0x6a9 (size before relaxing)
 .debug_str     0x0000151d      0x123 c:/altera/11.0sp1/nios2eds/bin/gnu/h-i686-mingw32/bin/../lib/gcc/nios2-elf/4.1.2/../../../../nios2-elf/lib\libc.a(lib_a-makebuf.o)
                                0x606 (size before relaxing)
 .debug_str     0x00001640       0xe9 c:/altera/11.0sp1/nios2eds/bin/gnu/h-i686-mingw32/bin/../lib/gcc/nios2-elf/4.1.2/../../../../nios2-elf/lib\libc.a(lib_a-mallocr.o)
                                0x6f1 (size before relaxing)
 .debug_str     0x00001729       0x47 c:/altera/11.0sp1/nios2eds/bin/gnu/h-i686-mingw32/bin/../lib/gcc/nios2-elf/4.1.2/../../../../nios2-elf/lib\libc.a(lib_a-memchr.o)
                                0x18b (size before relaxing)
 .debug_str     0x00001770       0xf8 c:/altera/11.0sp1/nios2eds/bin/gnu/h-i686-mingw32/bin/../lib/gcc/nios2-elf/4.1.2/../../../../nios2-elf/lib\libc.a(lib_a-mprec.o)
                                0x60e (size before relaxing)
 .debug_str     0x00001868       0x40 c:/altera/11.0sp1/nios2eds/bin/gnu/h-i686-mingw32/bin/../lib/gcc/nios2-elf/4.1.2/../../../../nios2-elf/lib\libc.a(lib_a-putc.o)
                                0x512 (size before relaxing)
 .debug_str     0x000018a8       0x59 c:/altera/11.0sp1/nios2eds/bin/gnu/h-i686-mingw32/bin/../lib/gcc/nios2-elf/4.1.2/../../../../nios2-elf/lib\libc.a(lib_a-reallocr.o)
                                0x5c3 (size before relaxing)
 .debug_str     0x00001901       0xdc c:/altera/11.0sp1/nios2eds/bin/gnu/h-i686-mingw32/bin/../lib/gcc/nios2-elf/4.1.2/../../../../nios2-elf/lib\libc.a(lib_a-s_isinfd.o)
                                0x18a (size before relaxing)
 .debug_str     0x000019dd       0x46 c:/altera/11.0sp1/nios2eds/bin/gnu/h-i686-mingw32/bin/../lib/gcc/nios2-elf/4.1.2/../../../../nios2-elf/lib\libc.a(lib_a-s_isnand.o)
                                0x18a (size before relaxing)
 .debug_str     0x00001a23       0x50 c:/altera/11.0sp1/nios2eds/bin/gnu/h-i686-mingw32/bin/../lib/gcc/nios2-elf/4.1.2/../../../../nios2-elf/lib\libc.a(lib_a-sbrkr.o)
                                0x50b (size before relaxing)
 .debug_str     0x00001a73       0x62 c:/altera/11.0sp1/nios2eds/bin/gnu/h-i686-mingw32/bin/../lib/gcc/nios2-elf/4.1.2/../../../../nios2-elf/lib\libc.a(lib_a-stdio.o)
                                0x531 (size before relaxing)
 .debug_str     0x00001ad5       0x42 c:/altera/11.0sp1/nios2eds/bin/gnu/h-i686-mingw32/bin/../lib/gcc/nios2-elf/4.1.2/../../../../nios2-elf/lib\libc.a(lib_a-strcmp.o)
                                0x163 (size before relaxing)
 .debug_str     0x00001b17       0x4a c:/altera/11.0sp1/nios2eds/bin/gnu/h-i686-mingw32/bin/../lib/gcc/nios2-elf/4.1.2/../../../../nios2-elf/lib\libc.a(lib_a-wbuf.o)
                                0x510 (size before relaxing)
 .debug_str     0x00001b61       0x4c c:/altera/11.0sp1/nios2eds/bin/gnu/h-i686-mingw32/bin/../lib/gcc/nios2-elf/4.1.2/../../../../nios2-elf/lib\libc.a(lib_a-writer.o)
                                0x50e (size before relaxing)
 .debug_str     0x00001bad       0x19 c:/altera/11.0sp1/nios2eds/bin/gnu/h-i686-mingw32/bin/../lib/gcc/nios2-elf/4.1.2/../../../../nios2-elf/lib\libc.a(lib_a-callocr.o)
                                0x542 (size before relaxing)
 .debug_str     0x00001bc6       0x43 c:/altera/11.0sp1/nios2eds/bin/gnu/h-i686-mingw32/bin/../lib/gcc/nios2-elf/4.1.2/../../../../nios2-elf/lib\libc.a(lib_a-closer.o)
                                0x4fe (size before relaxing)
 .debug_str     0x00001c09       0x4b c:/altera/11.0sp1/nios2eds/bin/gnu/h-i686-mingw32/bin/../lib/gcc/nios2-elf/4.1.2/../../../../nios2-elf/lib\libc.a(lib_a-fclose.o)
                                0x516 (size before relaxing)
 .debug_str     0x00001c54       0x49 c:/altera/11.0sp1/nios2eds/bin/gnu/h-i686-mingw32/bin/../lib/gcc/nios2-elf/4.1.2/../../../../nios2-elf/lib\libc.a(lib_a-fstatr.o)
                                0x5f1 (size before relaxing)
 .debug_str     0x00001c9d       0x3d c:/altera/11.0sp1/nios2eds/bin/gnu/h-i686-mingw32/bin/../lib/gcc/nios2-elf/4.1.2/../../../../nios2-elf/lib\libc.a(lib_a-int_errno.o)
                                0x163 (size before relaxing)
 .debug_str     0x00001cda       0x45 c:/altera/11.0sp1/nios2eds/bin/gnu/h-i686-mingw32/bin/../lib/gcc/nios2-elf/4.1.2/../../../../nios2-elf/lib\libc.a(lib_a-isattyr.o)
                                0x500 (size before relaxing)
 .debug_str     0x00001d1f       0x43 c:/altera/11.0sp1/nios2eds/bin/gnu/h-i686-mingw32/bin/../lib/gcc/nios2-elf/4.1.2/../../../../nios2-elf/lib\libc.a(lib_a-lseekr.o)
                                0x50c (size before relaxing)
 .debug_str     0x00001d62       0x41 c:/altera/11.0sp1/nios2eds/bin/gnu/h-i686-mingw32/bin/../lib/gcc/nios2-elf/4.1.2/../../../../nios2-elf/lib\libc.a(lib_a-readr.o)
                                0x50c (size before relaxing)
 .debug_str     0x00001da3      0x147 c:/altera/11.0sp1/nios2eds/bin/gnu/h-i686-mingw32/bin/../lib/gcc/nios2-elf/4.1.2\libgcc.a(_udivdi3.o)
                                0x1f7 (size before relaxing)
 .debug_str     0x00001eea        0xa c:/altera/11.0sp1/nios2eds/bin/gnu/h-i686-mingw32/bin/../lib/gcc/nios2-elf/4.1.2\libgcc.a(_umoddi3.o)
                                0x1f7 (size before relaxing)
 .debug_str     0x00001ef4      0x137 c:/altera/11.0sp1/nios2eds/bin/gnu/h-i686-mingw32/bin/../lib/gcc/nios2-elf/4.1.2\libgcc.a(_addsub_df.o)
                                0x26f (size before relaxing)
 .debug_str     0x0000202b       0x40 c:/altera/11.0sp1/nios2eds/bin/gnu/h-i686-mingw32/bin/../lib/gcc/nios2-elf/4.1.2\libgcc.a(_mul_df.o)
                                0x241 (size before relaxing)
 .debug_str     0x0000206b       0x35 c:/altera/11.0sp1/nios2eds/bin/gnu/h-i686-mingw32/bin/../lib/gcc/nios2-elf/4.1.2\libgcc.a(_div_df.o)
                                0x231 (size before relaxing)
 .debug_str     0x000020a0        0x8 c:/altera/11.0sp1/nios2eds/bin/gnu/h-i686-mingw32/bin/../lib/gcc/nios2-elf/4.1.2\libgcc.a(_eq_df.o)
                                0x1fe (size before relaxing)
 .debug_str     0x000020a8        0x8 c:/altera/11.0sp1/nios2eds/bin/gnu/h-i686-mingw32/bin/../lib/gcc/nios2-elf/4.1.2\libgcc.a(_ne_df.o)
                                0x1fe (size before relaxing)
 .debug_str     0x000020b0        0x8 c:/altera/11.0sp1/nios2eds/bin/gnu/h-i686-mingw32/bin/../lib/gcc/nios2-elf/4.1.2\libgcc.a(_gt_df.o)
                                0x1fe (size before relaxing)
 .debug_str     0x000020b8        0x8 c:/altera/11.0sp1/nios2eds/bin/gnu/h-i686-mingw32/bin/../lib/gcc/nios2-elf/4.1.2\libgcc.a(_ge_df.o)
                                0x1fe (size before relaxing)
 .debug_str     0x000020c0        0x8 c:/altera/11.0sp1/nios2eds/bin/gnu/h-i686-mingw32/bin/../lib/gcc/nios2-elf/4.1.2\libgcc.a(_lt_df.o)
                                0x1fe (size before relaxing)
 .debug_str     0x000020c8       0x18 c:/altera/11.0sp1/nios2eds/bin/gnu/h-i686-mingw32/bin/../lib/gcc/nios2-elf/4.1.2\libgcc.a(_si_to_df.o)
                                0x1de (size before relaxing)
 .debug_str     0x000020e0        0xa c:/altera/11.0sp1/nios2eds/bin/gnu/h-i686-mingw32/bin/../lib/gcc/nios2-elf/4.1.2\libgcc.a(_df_to_si.o)
                                0x207 (size before relaxing)
 .debug_str     0x00000000      0x1a3 c:/altera/11.0sp1/nios2eds/bin/gnu/h-i686-mingw32/bin/../lib/gcc/nios2-elf/4.1.2\libgcc.a(_thenan_df.o)
 .debug_str     0x000020ea       0x14 c:/altera/11.0sp1/nios2eds/bin/gnu/h-i686-mingw32/bin/../lib/gcc/nios2-elf/4.1.2\libgcc.a(_usi_to_df.o)
                                0x1da (size before relaxing)
 .debug_str     0x000020fe       0x76 c:/altera/11.0sp1/nios2eds/bin/gnu/h-i686-mingw32/bin/../lib/gcc/nios2-elf/4.1.2\libgcc.a(lib2-divmod.o)
                                0x1b4 (size before relaxing)
 .debug_str     0x00002174        0x9 c:/altera/11.0sp1/nios2eds/bin/gnu/h-i686-mingw32/bin/../lib/gcc/nios2-elf/4.1.2\libgcc.a(_muldi3.o)
                                0x1ac (size before relaxing)
 .debug_str     0x00000000      0x161 c:/altera/11.0sp1/nios2eds/bin/gnu/h-i686-mingw32/bin/../lib/gcc/nios2-elf/4.1.2\libgcc.a(_clz.o)
 .debug_str     0x0000217d        0x9 c:/altera/11.0sp1/nios2eds/bin/gnu/h-i686-mingw32/bin/../lib/gcc/nios2-elf/4.1.2\libgcc.a(_clzsi2.o)
                                0x17e (size before relaxing)
 .debug_str     0x00002186       0x10 c:/altera/11.0sp1/nios2eds/bin/gnu/h-i686-mingw32/bin/../lib/gcc/nios2-elf/4.1.2\libgcc.a(_pack_df.o)
                                0x206 (size before relaxing)
 .debug_str     0x00002196        0xb c:/altera/11.0sp1/nios2eds/bin/gnu/h-i686-mingw32/bin/../lib/gcc/nios2-elf/4.1.2\libgcc.a(_unpack_df.o)
                                0x1e8 (size before relaxing)
 .debug_str     0x000021a1       0x10 c:/altera/11.0sp1/nios2eds/bin/gnu/h-i686-mingw32/bin/../lib/gcc/nios2-elf/4.1.2\libgcc.a(_fpcmp_parts_df.o)
                                0x1c6 (size before relaxing)
 .debug_str     0x000021b1       0x12 ../tcpip_test_bsp/\libucosii_bsp.a(alt_fstat.o)
 .debug_str     0x000021c3       0x12 ../tcpip_test_bsp/\libucosii_bsp.a(alt_isatty.o)
 .debug_str     0x000021d5       0x12 ../tcpip_test_bsp/\libucosii_bsp.a(alt_load.o)
 .debug_str     0x000021e7       0x12 ../tcpip_test_bsp/\libucosii_bsp.a(alt_lseek.o)
 .debug_str     0x000021f9       0x12 ../tcpip_test_bsp/\libucosii_bsp.a(alt_main.o)
 .debug_str     0x0000220b       0x1a ../tcpip_test_bsp/\libucosii_bsp.a(alt_sbrk.o)
 .debug_str     0x00002225       0x36 ../tcpip_test_bsp/\libucosii_bsp.a(alt_env_lock.o)
 .debug_str     0x0000225b       0x36 ../tcpip_test_bsp/\libucosii_bsp.a(alt_malloc_lock.o)
 .debug_str     0x00002291       0x46 ../tcpip_test_bsp/\libucosii_bsp.a(os_core.o)
 .debug_str     0x000022d7       0x2b ../tcpip_test_bsp/\libucosii_bsp.a(os_dbg.o)
 .debug_str     0x00002302       0x4e ../tcpip_test_bsp/\libucosii_bsp.a(os_flag.o)
 .debug_str     0x00002350       0x2c ../tcpip_test_bsp/\libucosii_bsp.a(os_mem.o)
 .debug_str     0x0000237c       0x36 ../tcpip_test_bsp/\libucosii_bsp.a(os_q.o)
 .debug_str     0x000023b2       0x36 ../tcpip_test_bsp/\libucosii_bsp.a(os_sem.o)
 .debug_str     0x000023e8       0x23 ../tcpip_test_bsp/\libucosii_bsp.a(os_task.o)
 .debug_str     0x0000240b       0x1f ../tcpip_test_bsp/\libucosii_bsp.a(os_time.o)
 .debug_str     0x0000242a       0x2f ../tcpip_test_bsp/\libucosii_bsp.a(alt_sys_init.o)
 .debug_str     0x00002459       0x12 ../tcpip_test_bsp/\libucosii_bsp.a(altera_avalon_jtag_uart_fd.o)
 .debug_str     0x0000246b       0x1a ../tcpip_test_bsp/\libucosii_bsp.a(altera_avalon_jtag_uart_init.o)
 .debug_str     0x00002485       0x12 ../tcpip_test_bsp/\libucosii_bsp.a(altera_avalon_jtag_uart_ioctl.o)
 .debug_str     0x00002497       0x22 ../tcpip_test_bsp/\libucosii_bsp.a(altera_avalon_jtag_uart_read.o)
 .debug_str     0x000024b9       0x22 ../tcpip_test_bsp/\libucosii_bsp.a(altera_avalon_jtag_uart_write.o)
 .debug_str     0x000024db       0xe7 ../tcpip_test_bsp/\libucosii_bsp.a(altera_avalon_sgdma.o)
 .debug_str     0x000025c2       0x12 ../tcpip_test_bsp/\libucosii_bsp.a(altera_avalon_timer_sc.o)
 .debug_str     0x000025d4      0x328 ../tcpip_test_bsp/\libucosii_bsp.a(altera_avalon_tse.o)
 .debug_str     0x000028fc       0x12 ../tcpip_test_bsp/\libucosii_bsp.a(altera_avalon_tse_system_info.o)
 .debug_str     0x0000290e       0xac ../tcpip_test_bsp/\libucosii_bsp.a(ins_tse_mac.o)
 .debug_str     0x000029ba       0x12 ../tcpip_test_bsp/\libucosii_bsp.a(alt_iniche_close.o)
 .debug_str     0x000029cc       0x12 ../tcpip_test_bsp/\libucosii_bsp.a(alt_iniche_dev.o)
 .debug_str     0x000029de       0x12 ../tcpip_test_bsp/\libucosii_bsp.a(alt_iniche_read.o)
 .debug_str     0x000029f0       0x12 ../tcpip_test_bsp/\libucosii_bsp.a(alt_iniche_write.o)
 .debug_str     0x00002a02       0x12 ../tcpip_test_bsp/\libucosii_bsp.a(ipnet.o)
 .debug_str     0x00002a14       0x12 ../tcpip_test_bsp/\libucosii_bsp.a(ipstart.o)
 .debug_str     0x00002a26       0x12 ../tcpip_test_bsp/\libucosii_bsp.a(igmp_cmn.o)
 .debug_str     0x00002a38       0x20 ../tcpip_test_bsp/\libucosii_bsp.a(bsdsock.o)
 .debug_str     0x00002a58       0x12 ../tcpip_test_bsp/\libucosii_bsp.a(cksum.o)
 .debug_str     0x00002a6a       0x12 ../tcpip_test_bsp/\libucosii_bsp.a(in_utils.o)
 .debug_str     0x00002a7c       0x12 ../tcpip_test_bsp/\libucosii_bsp.a(netmain.o)
 .debug_str     0x00002a8e       0x12 ../tcpip_test_bsp/\libucosii_bsp.a(tk_crnos.o)
 .debug_str     0x00002aa0       0x2e ../tcpip_test_bsp/\libucosii_bsp.a(dhcpclnt.o)
 .debug_str     0x00002ace       0x12 ../tcpip_test_bsp/\libucosii_bsp.a(dhcputil.o)
 .debug_str     0x00002ae0       0x12 ../tcpip_test_bsp/\libucosii_bsp.a(pktalloc.o)
 .debug_str     0x00002af2       0x12 ../tcpip_test_bsp/\libucosii_bsp.a(q.o)
 .debug_str     0x00002b04       0x12 ../tcpip_test_bsp/\libucosii_bsp.a(udp_open.o)
 .debug_str     0x00002b16       0x20 ../tcpip_test_bsp/\libucosii_bsp.a(brdutils.o)
 .debug_str     0x00002b36       0x22 ../tcpip_test_bsp/\libucosii_bsp.a(osportco.o)
 .debug_str     0x00002b58       0x12 ../tcpip_test_bsp/\libucosii_bsp.a(targnios.o)
 .debug_str     0x00002b6a       0x1e ../tcpip_test_bsp/\libucosii_bsp.a(nptcp.o)
 .debug_str     0x00002b88       0x12 ../tcpip_test_bsp/\libucosii_bsp.a(rawsock.o)
 .debug_str     0x00002b9a       0x34 ../tcpip_test_bsp/\libucosii_bsp.a(sockcall.o)
 .debug_str     0x00002bce       0x18 ../tcpip_test_bsp/\libucosii_bsp.a(socket.o)
 .debug_str     0x00002be6       0x12 ../tcpip_test_bsp/\libucosii_bsp.a(socket2.o)
 .debug_str     0x00002bf8       0x12 ../tcpip_test_bsp/\libucosii_bsp.a(soselect.o)
 .debug_str     0x00002c0a       0x12 ../tcpip_test_bsp/\libucosii_bsp.a(tcp_in.o)
 .debug_str     0x00002c1c       0x12 ../tcpip_test_bsp/\libucosii_bsp.a(tcp_out.o)
 .debug_str     0x00002c2e       0x12 ../tcpip_test_bsp/\libucosii_bsp.a(tcp_subr.o)
 .debug_str     0x00002c40       0x12 ../tcpip_test_bsp/\libucosii_bsp.a(tcp_timr.o)
 .debug_str     0x00002c52       0x12 ../tcpip_test_bsp/\libucosii_bsp.a(tcp_usr.o)
 .debug_str     0x00002c64       0x12 ../tcpip_test_bsp/\libucosii_bsp.a(tcpport.o)
 .debug_str     0x00002c76       0x1a ../tcpip_test_bsp/\libucosii_bsp.a(udpsock.o)
 .debug_str     0x00002c90       0x23 ../tcpip_test_bsp/\libucosii_bsp.a(alt_alarm_start.o)
 .debug_str     0x00002cb3       0x12 ../tcpip_test_bsp/\libucosii_bsp.a(alt_close.o)
 .debug_str     0x00002cc5       0x12 ../tcpip_test_bsp/\libucosii_bsp.a(alt_dcache_flush_all.o)
 .debug_str     0x00002cd7       0x12 ../tcpip_test_bsp/\libucosii_bsp.a(alt_dev.o)
 .debug_str     0x00002ce9       0x12 ../tcpip_test_bsp/\libucosii_bsp.a(alt_dev_llist_insert.o)
 .debug_str     0x00002cfb       0x12 ../tcpip_test_bsp/\libucosii_bsp.a(alt_errno.o)
 .debug_str     0x00002d0d       0x12 ../tcpip_test_bsp/\libucosii_bsp.a(alt_find_dev.o)
 .debug_str     0x00002d1f       0x12 ../tcpip_test_bsp/\libucosii_bsp.a(alt_icache_flush_all.o)
 .debug_str     0x00002d31       0x18 ../tcpip_test_bsp/\libucosii_bsp.a(alt_iic.o)
 .debug_str     0x00002d49       0x1a ../tcpip_test_bsp/\libucosii_bsp.a(alt_iic_isr_register.o)
 .debug_str     0x00002d63       0x12 ../tcpip_test_bsp/\libucosii_bsp.a(alt_io_redirect.o)
 .debug_str     0x00002d75       0x12 ../tcpip_test_bsp/\libucosii_bsp.a(alt_irq_handler.o)
 .debug_str     0x00002d87       0x12 ../tcpip_test_bsp/\libucosii_bsp.a(alt_open.o)
 .debug_str     0x00002d99       0x12 ../tcpip_test_bsp/\libucosii_bsp.a(alt_read.o)
 .debug_str     0x00002dab       0x12 ../tcpip_test_bsp/\libucosii_bsp.a(alt_release_fd.o)
 .debug_str     0x00002dbd       0x12 ../tcpip_test_bsp/\libucosii_bsp.a(alt_remap_cached.o)
 .debug_str     0x00002dcf       0x12 ../tcpip_test_bsp/\libucosii_bsp.a(alt_remap_uncached.o)
 .debug_str     0x00002de1       0x1a ../tcpip_test_bsp/\libucosii_bsp.a(alt_tick.o)
 .debug_str     0x00002dfb       0x12 ../tcpip_test_bsp/\libucosii_bsp.a(alt_uncached_malloc.o)
 .debug_str     0x00002e0d       0x12 ../tcpip_test_bsp/\libucosii_bsp.a(alt_usleep.o)
 .debug_str     0x00002e1f       0x12 ../tcpip_test_bsp/\libucosii_bsp.a(alt_write.o)
 .debug_str     0x00002e31       0x12 ../tcpip_test_bsp/\libucosii_bsp.a(altera_nios2_irq.o)
 .debug_str     0x00002e43       0x20 ../tcpip_test_bsp/\libucosii_bsp.a(os_cpu_c.o)
 .debug_str     0x00002e63       0x12 ../tcpip_test_bsp/\libucosii_bsp.a(allports.o)
 .debug_str     0x00002e75       0x1b ../tcpip_test_bsp/\libucosii_bsp.a(timeouts.o)
 .debug_str     0x00002e90       0x12 ../tcpip_test_bsp/\libucosii_bsp.a(tk_misc.o)
 .debug_str     0x00002ea2       0x12 ../tcpip_test_bsp/\libucosii_bsp.a(alt_iniche_fcntl.o)
 .debug_str     0x00002eb4       0x3d ../tcpip_test_bsp/\libucosii_bsp.a(et_arp.o)
 .debug_str     0x00002ef1       0x12 ../tcpip_test_bsp/\libucosii_bsp.a(iface.o)
 .debug_str     0x00002f03       0x2c ../tcpip_test_bsp/\libucosii_bsp.a(ip.o)
 .debug_str     0x00002f2f       0x4e ../tcpip_test_bsp/\libucosii_bsp.a(ip_reasm.o)
 .debug_str     0x00002f7d       0x12 ../tcpip_test_bsp/\libucosii_bsp.a(ipdemux.o)
 .debug_str     0x00002f8f       0x12 ../tcpip_test_bsp/\libucosii_bsp.a(ipmc.o)
 .debug_str     0x00002fa1       0x12 ../tcpip_test_bsp/\libucosii_bsp.a(ipport.o)
 .debug_str     0x00002fb3       0x12 ../tcpip_test_bsp/\libucosii_bsp.a(ipraw.o)
 .debug_str     0x00002fc5       0x12 ../tcpip_test_bsp/\libucosii_bsp.a(iproute.o)
 .debug_str     0x00002fd7       0x12 ../tcpip_test_bsp/\libucosii_bsp.a(udp.o)
 .debug_str     0x00002fe9       0x12 ../tcpip_test_bsp/\libucosii_bsp.a(igmp.o)
 .debug_str     0x00002ffb       0x20 ../tcpip_test_bsp/\libucosii_bsp.a(igmp2.o)
 .debug_str     0x0000301b       0x12 ../tcpip_test_bsp/\libucosii_bsp.a(ipopt.o)
 .debug_str     0x0000302d       0x12 ../tcpip_test_bsp/\libucosii_bsp.a(u_mctest.o)
 .debug_str     0x0000303f       0x12 ../tcpip_test_bsp/\libucosii_bsp.a(dhcsetup.o)
 .debug_str     0x00003051       0x1b ../tcpip_test_bsp/\libucosii_bsp.a(memdev.o)
 .debug_str     0x0000306c       0x12 ../tcpip_test_bsp/\libucosii_bsp.a(parseip.o)
 .debug_str     0x0000307e       0x12 ../tcpip_test_bsp/\libucosii_bsp.a(tcpcksum.o)
 .debug_str     0x00003090       0x12 ../tcpip_test_bsp/\libucosii_bsp.a(in_pcb.o)
 .debug_str     0x000030a2       0x2b ../tcpip_test_bsp/\libucosii_bsp.a(vfsfiles.o)
 .debug_str     0x000030cd       0x12 ../tcpip_test_bsp/\libucosii_bsp.a(vfsport.o)
 .debug_str     0x000030df       0x12 ../tcpip_test_bsp/\libucosii_bsp.a(alt_busy_sleep.o)
 .debug_str     0x000030f1       0x12 ../tcpip_test_bsp/\libucosii_bsp.a(alt_dcache_flush.o)
 .debug_str     0x00003103       0x12 ../tcpip_test_bsp/\libucosii_bsp.a(alt_fcntl.o)
 .debug_str     0x00003115       0x12 ../tcpip_test_bsp/\libucosii_bsp.a(alt_find_file.o)
 .debug_str     0x00003127       0x12 ../tcpip_test_bsp/\libucosii_bsp.a(alt_get_fd.o)
 .debug_str     0x00003139       0x12 ../tcpip_test_bsp/\libucosii_bsp.a(alt_icache_flush.o)
 .debug_str     0x0000314b       0x12 ../tcpip_test_bsp/\libucosii_bsp.a(icmp.o)
 .debug_str     0x0000315d       0x3b c:/altera/11.0sp1/nios2eds/bin/gnu/h-i686-mingw32/bin/../lib/gcc/nios2-elf/4.1.2/../../../../nios2-elf/lib\libc.a(lib_a-atexit.o)
                                0x1bf (size before relaxing)
 .debug_str     0x00003198       0x46 c:/altera/11.0sp1/nios2eds/bin/gnu/h-i686-mingw32/bin/../lib/gcc/nios2-elf/4.1.2/../../../../nios2-elf/lib\libc.a(lib_a-atoi.o)
                                0x4fc (size before relaxing)
 .debug_str     0x000031de       0x42 c:/altera/11.0sp1/nios2eds/bin/gnu/h-i686-mingw32/bin/../lib/gcc/nios2-elf/4.1.2/../../../../nios2-elf/lib\libc.a(lib_a-calloc.o)
                                0x510 (size before relaxing)
 .debug_str     0x00003220       0x3e c:/altera/11.0sp1/nios2eds/bin/gnu/h-i686-mingw32/bin/../lib/gcc/nios2-elf/4.1.2/../../../../nios2-elf/lib\libc.a(lib_a-exit.o)
                                0x50c (size before relaxing)
 .debug_str     0x0000325e       0x45 c:/altera/11.0sp1/nios2eds/bin/gnu/h-i686-mingw32/bin/../lib/gcc/nios2-elf/4.1.2/../../../../nios2-elf/lib\libc.a(lib_a-getc.o)
                                0x512 (size before relaxing)
 .debug_str     0x000032a3       0x47 c:/altera/11.0sp1/nios2eds/bin/gnu/h-i686-mingw32/bin/../lib/gcc/nios2-elf/4.1.2/../../../../nios2-elf/lib\libc.a(lib_a-malloc.o)
                                0x51c (size before relaxing)
 .debug_str     0x000032ea       0x42 c:/altera/11.0sp1/nios2eds/bin/gnu/h-i686-mingw32/bin/../lib/gcc/nios2-elf/4.1.2/../../../../nios2-elf/lib\libc.a(lib_a-memcmp.o)
                                0x16a (size before relaxing)
 .debug_str     0x0000332c       0x4a c:/altera/11.0sp1/nios2eds/bin/gnu/h-i686-mingw32/bin/../lib/gcc/nios2-elf/4.1.2/../../../../nios2-elf/lib\libc.a(lib_a-rget.o)
                                0x510 (size before relaxing)
 .debug_str     0x00003376       0x42 c:/altera/11.0sp1/nios2eds/bin/gnu/h-i686-mingw32/bin/../lib/gcc/nios2-elf/4.1.2/../../../../nios2-elf/lib\libc.a(lib_a-strcpy.o)
                                0x185 (size before relaxing)
 .debug_str     0x000033b8       0x44 c:/altera/11.0sp1/nios2eds/bin/gnu/h-i686-mingw32/bin/../lib/gcc/nios2-elf/4.1.2/../../../../nios2-elf/lib\libc.a(lib_a-strncmp.o)
                                0x16c (size before relaxing)
 .debug_str     0x000033fc       0x44 c:/altera/11.0sp1/nios2eds/bin/gnu/h-i686-mingw32/bin/../lib/gcc/nios2-elf/4.1.2/../../../../nios2-elf/lib\libc.a(lib_a-strncpy.o)
                                0x194 (size before relaxing)
 .debug_str     0x00003440       0x61 c:/altera/11.0sp1/nios2eds/bin/gnu/h-i686-mingw32/bin/../lib/gcc/nios2-elf/4.1.2/../../../../nios2-elf/lib\libc.a(lib_a-strtol.o)
                                0x53e (size before relaxing)
 .debug_str     0x000034a1       0x4e c:/altera/11.0sp1/nios2eds/bin/gnu/h-i686-mingw32/bin/../lib/gcc/nios2-elf/4.1.2/../../../../nios2-elf/lib\libc.a(lib_a-vprintf.o)
                                0x526 (size before relaxing)
 .debug_str     0x000034ef       0x51 c:/altera/11.0sp1/nios2eds/bin/gnu/h-i686-mingw32/bin/../lib/gcc/nios2-elf/4.1.2/../../../../nios2-elf/lib\libc.a(lib_a-vsprintf.o)
                                0x52e (size before relaxing)
 .debug_str     0x00003540       0x51 c:/altera/11.0sp1/nios2eds/bin/gnu/h-i686-mingw32/bin/../lib/gcc/nios2-elf/4.1.2/../../../../nios2-elf/lib\libc.a(lib_a-__atexit.o)
                                0x524 (size before relaxing)
 .debug_str     0x00003591       0x7b c:/altera/11.0sp1/nios2eds/bin/gnu/h-i686-mingw32/bin/../lib/gcc/nios2-elf/4.1.2/../../../../nios2-elf/lib\libc.a(lib_a-__call_atexit.o)
                                0x54e (size before relaxing)
 .debug_str     0x0000360c       0x4d c:/altera/11.0sp1/nios2eds/bin/gnu/h-i686-mingw32/bin/../lib/gcc/nios2-elf/4.1.2/../../../../nios2-elf/lib\libc.a(lib_a-refill.o)
                                0x51a (size before relaxing)
 .debug_str     0x00003659       0x1c ../tcpip_test_bsp/\libucosii_bsp.a(alt_exit.o)

.debug_loc      0x00000000    0x138b7
 *(.debug_loc)
 .debug_loc     0x00000000       0x81 obj/alt_error_handler.o
 .debug_loc     0x00000081       0x56 obj/iniche_init.o
 .debug_loc     0x000000d7       0x56 obj/led.o
 .debug_loc     0x0000012d       0x81 obj/network_utilities.o
 .debug_loc     0x000001ae      0x15b obj/simple_socket_server.o
 .debug_loc     0x00000309       0x57 obj/tse_my_system.o
 .debug_loc     0x00000360       0xf1 c:/altera/11.0sp1/nios2eds/bin/gnu/h-i686-mingw32/bin/../lib/gcc/nios2-elf/4.1.2/../../../../nios2-elf/lib\libc.a(lib_a-fprintf.o)
 .debug_loc     0x00000451      0x18e c:/altera/11.0sp1/nios2eds/bin/gnu/h-i686-mingw32/bin/../lib/gcc/nios2-elf/4.1.2/../../../../nios2-elf/lib\libc.a(lib_a-fwrite.o)
 .debug_loc     0x000005df       0xca c:/altera/11.0sp1/nios2eds/bin/gnu/h-i686-mingw32/bin/../lib/gcc/nios2-elf/4.1.2/../../../../nios2-elf/lib\libc.a(lib_a-memcpy.o)
 .debug_loc     0x000006a9      0x117 c:/altera/11.0sp1/nios2eds/bin/gnu/h-i686-mingw32/bin/../lib/gcc/nios2-elf/4.1.2/../../../../nios2-elf/lib\libc.a(lib_a-memmove.o)
 .debug_loc     0x000007c0       0xa1 c:/altera/11.0sp1/nios2eds/bin/gnu/h-i686-mingw32/bin/../lib/gcc/nios2-elf/4.1.2/../../../../nios2-elf/lib\libc.a(lib_a-memset.o)
 .debug_loc     0x00000861       0xa2 c:/altera/11.0sp1/nios2eds/bin/gnu/h-i686-mingw32/bin/../lib/gcc/nios2-elf/4.1.2/../../../../nios2-elf/lib\libc.a(lib_a-perror.o)
 .debug_loc     0x00000903       0xcb c:/altera/11.0sp1/nios2eds/bin/gnu/h-i686-mingw32/bin/../lib/gcc/nios2-elf/4.1.2/../../../../nios2-elf/lib\libc.a(lib_a-printf.o)
 .debug_loc     0x000009ce       0xa2 c:/altera/11.0sp1/nios2eds/bin/gnu/h-i686-mingw32/bin/../lib/gcc/nios2-elf/4.1.2/../../../../nios2-elf/lib\libc.a(lib_a-puts.o)
 .debug_loc     0x00000a70       0xc0 c:/altera/11.0sp1/nios2eds/bin/gnu/h-i686-mingw32/bin/../lib/gcc/nios2-elf/4.1.2/../../../../nios2-elf/lib\libc.a(lib_a-sprintf.o)
 .debug_loc     0x00000b30       0xf3 c:/altera/11.0sp1/nios2eds/bin/gnu/h-i686-mingw32/bin/../lib/gcc/nios2-elf/4.1.2/../../../../nios2-elf/lib\libc.a(lib_a-strchr.o)
 .debug_loc     0x00000c23      0x418 c:/altera/11.0sp1/nios2eds/bin/gnu/h-i686-mingw32/bin/../lib/gcc/nios2-elf/4.1.2/../../../../nios2-elf/lib\libc.a(lib_a-strerror.o)
 .debug_loc     0x0000103b       0x3c c:/altera/11.0sp1/nios2eds/bin/gnu/h-i686-mingw32/bin/../lib/gcc/nios2-elf/4.1.2/../../../../nios2-elf/lib\libc.a(lib_a-strlen.o)
 .debug_loc     0x00001077     0x1e0d c:/altera/11.0sp1/nios2eds/bin/gnu/h-i686-mingw32/bin/../lib/gcc/nios2-elf/4.1.2/../../../../nios2-elf/lib\libc.a(lib_a-vfprintf.o)
 .debug_loc     0x00002e84       0x7c c:/altera/11.0sp1/nios2eds/bin/gnu/h-i686-mingw32/bin/../lib/gcc/nios2-elf/4.1.2/../../../../nios2-elf/lib\libc.a(lib_a-wsetup.o)
 .debug_loc     0x00002f00     0x1dfa c:/altera/11.0sp1/nios2eds/bin/gnu/h-i686-mingw32/bin/../lib/gcc/nios2-elf/4.1.2/../../../../nios2-elf/lib\libc.a(lib_a-dtoa.o)
 .debug_loc     0x00004cfa      0x1f6 c:/altera/11.0sp1/nios2eds/bin/gnu/h-i686-mingw32/bin/../lib/gcc/nios2-elf/4.1.2/../../../../nios2-elf/lib\libc.a(lib_a-fflush.o)
 .debug_loc     0x00004ef0      0x19f c:/altera/11.0sp1/nios2eds/bin/gnu/h-i686-mingw32/bin/../lib/gcc/nios2-elf/4.1.2/../../../../nios2-elf/lib\libc.a(lib_a-findfp.o)
 .debug_loc     0x0000508f      0x14d c:/altera/11.0sp1/nios2eds/bin/gnu/h-i686-mingw32/bin/../lib/gcc/nios2-elf/4.1.2/../../../../nios2-elf/lib\libc.a(lib_a-fputc.o)
 .debug_loc     0x000051dc       0xcb c:/altera/11.0sp1/nios2eds/bin/gnu/h-i686-mingw32/bin/../lib/gcc/nios2-elf/4.1.2/../../../../nios2-elf/lib\libc.a(lib_a-fputs.o)
 .debug_loc     0x000052a7      0x4a7 c:/altera/11.0sp1/nios2eds/bin/gnu/h-i686-mingw32/bin/../lib/gcc/nios2-elf/4.1.2/../../../../nios2-elf/lib\libc.a(lib_a-freer.o)
 .debug_loc     0x0000574e      0x4e4 c:/altera/11.0sp1/nios2eds/bin/gnu/h-i686-mingw32/bin/../lib/gcc/nios2-elf/4.1.2/../../../../nios2-elf/lib\libc.a(lib_a-fvwrite.o)
 .debug_loc     0x00005c32      0x1d2 c:/altera/11.0sp1/nios2eds/bin/gnu/h-i686-mingw32/bin/../lib/gcc/nios2-elf/4.1.2/../../../../nios2-elf/lib\libc.a(lib_a-fwalk.o)
 .debug_loc     0x00005e04       0xe1 c:/altera/11.0sp1/nios2eds/bin/gnu/h-i686-mingw32/bin/../lib/gcc/nios2-elf/4.1.2/../../../../nios2-elf/lib\libc.a(lib_a-locale.o)
 .debug_loc     0x00005ee5      0x11c c:/altera/11.0sp1/nios2eds/bin/gnu/h-i686-mingw32/bin/../lib/gcc/nios2-elf/4.1.2/../../../../nios2-elf/lib\libc.a(lib_a-makebuf.o)
 .debug_loc     0x00006001      0xaeb c:/altera/11.0sp1/nios2eds/bin/gnu/h-i686-mingw32/bin/../lib/gcc/nios2-elf/4.1.2/../../../../nios2-elf/lib\libc.a(lib_a-mallocr.o)
 .debug_loc     0x00006aec      0x106 c:/altera/11.0sp1/nios2eds/bin/gnu/h-i686-mingw32/bin/../lib/gcc/nios2-elf/4.1.2/../../../../nios2-elf/lib\libc.a(lib_a-memchr.o)
 .debug_loc     0x00006bf2     0x14d6 c:/altera/11.0sp1/nios2eds/bin/gnu/h-i686-mingw32/bin/../lib/gcc/nios2-elf/4.1.2/../../../../nios2-elf/lib\libc.a(lib_a-mprec.o)
 .debug_loc     0x000080c8      0x20d c:/altera/11.0sp1/nios2eds/bin/gnu/h-i686-mingw32/bin/../lib/gcc/nios2-elf/4.1.2/../../../../nios2-elf/lib\libc.a(lib_a-putc.o)
 .debug_loc     0x000082d5      0x8c0 c:/altera/11.0sp1/nios2eds/bin/gnu/h-i686-mingw32/bin/../lib/gcc/nios2-elf/4.1.2/../../../../nios2-elf/lib\libc.a(lib_a-reallocr.o)
 .debug_loc     0x00008b95       0x36 c:/altera/11.0sp1/nios2eds/bin/gnu/h-i686-mingw32/bin/../lib/gcc/nios2-elf/4.1.2/../../../../nios2-elf/lib\libc.a(lib_a-s_isinfd.o)
 .debug_loc     0x00008bcb       0x18 c:/altera/11.0sp1/nios2eds/bin/gnu/h-i686-mingw32/bin/../lib/gcc/nios2-elf/4.1.2/../../../../nios2-elf/lib\libc.a(lib_a-s_isnand.o)
 .debug_loc     0x00008be3       0x5b c:/altera/11.0sp1/nios2eds/bin/gnu/h-i686-mingw32/bin/../lib/gcc/nios2-elf/4.1.2/../../../../nios2-elf/lib\libc.a(lib_a-sbrkr.o)
 .debug_loc     0x00008c3e      0x21f c:/altera/11.0sp1/nios2eds/bin/gnu/h-i686-mingw32/bin/../lib/gcc/nios2-elf/4.1.2/../../../../nios2-elf/lib\libc.a(lib_a-stdio.o)
 .debug_loc     0x00008e5d       0x65 c:/altera/11.0sp1/nios2eds/bin/gnu/h-i686-mingw32/bin/../lib/gcc/nios2-elf/4.1.2/../../../../nios2-elf/lib\libc.a(lib_a-strcmp.o)
 .debug_loc     0x00008ec2      0x157 c:/altera/11.0sp1/nios2eds/bin/gnu/h-i686-mingw32/bin/../lib/gcc/nios2-elf/4.1.2/../../../../nios2-elf/lib\libc.a(lib_a-wbuf.o)
 .debug_loc     0x00009019       0x97 c:/altera/11.0sp1/nios2eds/bin/gnu/h-i686-mingw32/bin/../lib/gcc/nios2-elf/4.1.2/../../../../nios2-elf/lib\libc.a(lib_a-writer.o)
 .debug_loc     0x000090b0       0xe9 c:/altera/11.0sp1/nios2eds/bin/gnu/h-i686-mingw32/bin/../lib/gcc/nios2-elf/4.1.2/../../../../nios2-elf/lib\libc.a(lib_a-callocr.o)
 .debug_loc     0x00009199       0x5b c:/altera/11.0sp1/nios2eds/bin/gnu/h-i686-mingw32/bin/../lib/gcc/nios2-elf/4.1.2/../../../../nios2-elf/lib\libc.a(lib_a-closer.o)
 .debug_loc     0x000091f4       0xe4 c:/altera/11.0sp1/nios2eds/bin/gnu/h-i686-mingw32/bin/../lib/gcc/nios2-elf/4.1.2/../../../../nios2-elf/lib\libc.a(lib_a-fclose.o)
 .debug_loc     0x000092d8       0x79 c:/altera/11.0sp1/nios2eds/bin/gnu/h-i686-mingw32/bin/../lib/gcc/nios2-elf/4.1.2/../../../../nios2-elf/lib\libc.a(lib_a-fstatr.o)
 .debug_loc     0x00009351       0x5b c:/altera/11.0sp1/nios2eds/bin/gnu/h-i686-mingw32/bin/../lib/gcc/nios2-elf/4.1.2/../../../../nios2-elf/lib\libc.a(lib_a-isattyr.o)
 .debug_loc     0x000093ac       0x97 c:/altera/11.0sp1/nios2eds/bin/gnu/h-i686-mingw32/bin/../lib/gcc/nios2-elf/4.1.2/../../../../nios2-elf/lib\libc.a(lib_a-lseekr.o)
 .debug_loc     0x00009443       0x97 c:/altera/11.0sp1/nios2eds/bin/gnu/h-i686-mingw32/bin/../lib/gcc/nios2-elf/4.1.2/../../../../nios2-elf/lib\libc.a(lib_a-readr.o)
 .debug_loc     0x000094da      0xc12 c:/altera/11.0sp1/nios2eds/bin/gnu/h-i686-mingw32/bin/../lib/gcc/nios2-elf/4.1.2\libgcc.a(_udivdi3.o)
 .debug_loc     0x0000a0ec      0xc31 c:/altera/11.0sp1/nios2eds/bin/gnu/h-i686-mingw32/bin/../lib/gcc/nios2-elf/4.1.2\libgcc.a(_umoddi3.o)
 .debug_loc     0x0000ad1d      0x47a c:/altera/11.0sp1/nios2eds/bin/gnu/h-i686-mingw32/bin/../lib/gcc/nios2-elf/4.1.2\libgcc.a(_addsub_df.o)
 .debug_loc     0x0000b197      0x3b4 c:/altera/11.0sp1/nios2eds/bin/gnu/h-i686-mingw32/bin/../lib/gcc/nios2-elf/4.1.2\libgcc.a(_mul_df.o)
 .debug_loc     0x0000b54b      0x1df c:/altera/11.0sp1/nios2eds/bin/gnu/h-i686-mingw32/bin/../lib/gcc/nios2-elf/4.1.2\libgcc.a(_div_df.o)
 .debug_loc     0x0000b72a       0x70 c:/altera/11.0sp1/nios2eds/bin/gnu/h-i686-mingw32/bin/../lib/gcc/nios2-elf/4.1.2\libgcc.a(_eq_df.o)
 .debug_loc     0x0000b79a       0x70 c:/altera/11.0sp1/nios2eds/bin/gnu/h-i686-mingw32/bin/../lib/gcc/nios2-elf/4.1.2\libgcc.a(_ne_df.o)
 .debug_loc     0x0000b80a       0x70 c:/altera/11.0sp1/nios2eds/bin/gnu/h-i686-mingw32/bin/../lib/gcc/nios2-elf/4.1.2\libgcc.a(_gt_df.o)
 .debug_loc     0x0000b87a       0x70 c:/altera/11.0sp1/nios2eds/bin/gnu/h-i686-mingw32/bin/../lib/gcc/nios2-elf/4.1.2\libgcc.a(_ge_df.o)
 .debug_loc     0x0000b8ea       0x70 c:/altera/11.0sp1/nios2eds/bin/gnu/h-i686-mingw32/bin/../lib/gcc/nios2-elf/4.1.2\libgcc.a(_lt_df.o)
 .debug_loc     0x0000b95a       0x9a c:/altera/11.0sp1/nios2eds/bin/gnu/h-i686-mingw32/bin/../lib/gcc/nios2-elf/4.1.2\libgcc.a(_si_to_df.o)
 .debug_loc     0x0000b9f4       0x8b c:/altera/11.0sp1/nios2eds/bin/gnu/h-i686-mingw32/bin/../lib/gcc/nios2-elf/4.1.2\libgcc.a(_df_to_si.o)
 .debug_loc     0x0000ba7f       0x5b c:/altera/11.0sp1/nios2eds/bin/gnu/h-i686-mingw32/bin/../lib/gcc/nios2-elf/4.1.2\libgcc.a(_usi_to_df.o)
 .debug_loc     0x0000bada      0x1d2 c:/altera/11.0sp1/nios2eds/bin/gnu/h-i686-mingw32/bin/../lib/gcc/nios2-elf/4.1.2\libgcc.a(lib2-divmod.o)
 .debug_loc     0x0000bcac       0xcf c:/altera/11.0sp1/nios2eds/bin/gnu/h-i686-mingw32/bin/../lib/gcc/nios2-elf/4.1.2\libgcc.a(_muldi3.o)
 .debug_loc     0x0000bd7b       0x1e c:/altera/11.0sp1/nios2eds/bin/gnu/h-i686-mingw32/bin/../lib/gcc/nios2-elf/4.1.2\libgcc.a(_clzsi2.o)
 .debug_loc     0x0000bd99      0x184 c:/altera/11.0sp1/nios2eds/bin/gnu/h-i686-mingw32/bin/../lib/gcc/nios2-elf/4.1.2\libgcc.a(_pack_df.o)
 .debug_loc     0x0000bf1d       0xe5 c:/altera/11.0sp1/nios2eds/bin/gnu/h-i686-mingw32/bin/../lib/gcc/nios2-elf/4.1.2\libgcc.a(_unpack_df.o)
 .debug_loc     0x0000c002       0x56 ../tcpip_test_bsp/\libucosii_bsp.a(alt_fstat.o)
 .debug_loc     0x0000c058       0x57 ../tcpip_test_bsp/\libucosii_bsp.a(alt_isatty.o)
 .debug_loc     0x0000c0af       0x56 ../tcpip_test_bsp/\libucosii_bsp.a(alt_load.o)
 .debug_loc     0x0000c105       0x56 ../tcpip_test_bsp/\libucosii_bsp.a(alt_lseek.o)
 .debug_loc     0x0000c15b       0x2b ../tcpip_test_bsp/\libucosii_bsp.a(alt_main.o)
 .debug_loc     0x0000c186       0x2b ../tcpip_test_bsp/\libucosii_bsp.a(alt_sbrk.o)
 .debug_loc     0x0000c1b1       0x57 ../tcpip_test_bsp/\libucosii_bsp.a(alt_env_lock.o)
 .debug_loc     0x0000c208       0x57 ../tcpip_test_bsp/\libucosii_bsp.a(alt_malloc_lock.o)
 .debug_loc     0x0000c25f      0x5e2 ../tcpip_test_bsp/\libucosii_bsp.a(os_core.o)
 .debug_loc     0x0000c841       0x2b ../tcpip_test_bsp/\libucosii_bsp.a(os_dbg.o)
 .debug_loc     0x0000c86c      0x232 ../tcpip_test_bsp/\libucosii_bsp.a(os_flag.o)
 .debug_loc     0x0000ca9e      0x12d ../tcpip_test_bsp/\libucosii_bsp.a(os_mem.o)
 .debug_loc     0x0000cbcb      0x1da ../tcpip_test_bsp/\libucosii_bsp.a(os_q.o)
 .debug_loc     0x0000cda5      0x158 ../tcpip_test_bsp/\libucosii_bsp.a(os_sem.o)
 .debug_loc     0x0000cefd      0x207 ../tcpip_test_bsp/\libucosii_bsp.a(os_task.o)
 .debug_loc     0x0000d104       0xd7 ../tcpip_test_bsp/\libucosii_bsp.a(os_time.o)
 .debug_loc     0x0000d1db       0x81 ../tcpip_test_bsp/\libucosii_bsp.a(alt_sys_init.o)
 .debug_loc     0x0000d25c       0xac ../tcpip_test_bsp/\libucosii_bsp.a(altera_avalon_jtag_uart_fd.o)
 .debug_loc     0x0000d308       0xac ../tcpip_test_bsp/\libucosii_bsp.a(altera_avalon_jtag_uart_init.o)
 .debug_loc     0x0000d3b4       0x2b ../tcpip_test_bsp/\libucosii_bsp.a(altera_avalon_jtag_uart_ioctl.o)
 .debug_loc     0x0000d3df       0x2c ../tcpip_test_bsp/\libucosii_bsp.a(altera_avalon_jtag_uart_read.o)
 .debug_loc     0x0000d40b       0x2c ../tcpip_test_bsp/\libucosii_bsp.a(altera_avalon_jtag_uart_write.o)
 .debug_loc     0x0000d437      0x35c ../tcpip_test_bsp/\libucosii_bsp.a(altera_avalon_sgdma.o)
 .debug_loc     0x0000d793       0x56 ../tcpip_test_bsp/\libucosii_bsp.a(altera_avalon_timer_sc.o)
 .debug_loc     0x0000d7e9      0x73d ../tcpip_test_bsp/\libucosii_bsp.a(altera_avalon_tse.o)
 .debug_loc     0x0000df26      0x185 ../tcpip_test_bsp/\libucosii_bsp.a(ins_tse_mac.o)
 .debug_loc     0x0000e0ab       0x2b ../tcpip_test_bsp/\libucosii_bsp.a(alt_iniche_close.o)
 .debug_loc     0x0000e0d6       0x2b ../tcpip_test_bsp/\libucosii_bsp.a(alt_iniche_dev.o)
 .debug_loc     0x0000e101       0x2b ../tcpip_test_bsp/\libucosii_bsp.a(alt_iniche_read.o)
 .debug_loc     0x0000e12c       0x2b ../tcpip_test_bsp/\libucosii_bsp.a(alt_iniche_write.o)
 .debug_loc     0x0000e157      0x102 ../tcpip_test_bsp/\libucosii_bsp.a(ipnet.o)
 .debug_loc     0x0000e259       0xac ../tcpip_test_bsp/\libucosii_bsp.a(ipstart.o)
 .debug_loc     0x0000e305      0x159 ../tcpip_test_bsp/\libucosii_bsp.a(igmp_cmn.o)
 .debug_loc     0x0000e45e      0x1af ../tcpip_test_bsp/\libucosii_bsp.a(bsdsock.o)
 .debug_loc     0x0000e60d       0x56 ../tcpip_test_bsp/\libucosii_bsp.a(cksum.o)
 .debug_loc     0x0000e663      0x204 ../tcpip_test_bsp/\libucosii_bsp.a(in_utils.o)
 .debug_loc     0x0000e867       0x81 ../tcpip_test_bsp/\libucosii_bsp.a(netmain.o)
 .debug_loc     0x0000e8e8      0x12f ../tcpip_test_bsp/\libucosii_bsp.a(tk_crnos.o)
 .debug_loc     0x0000ea17      0x35c ../tcpip_test_bsp/\libucosii_bsp.a(dhcpclnt.o)
 .debug_loc     0x0000ed73       0x2b ../tcpip_test_bsp/\libucosii_bsp.a(dhcputil.o)
 .debug_loc     0x0000ed9e      0x102 ../tcpip_test_bsp/\libucosii_bsp.a(pktalloc.o)
 .debug_loc     0x0000eea0       0x81 ../tcpip_test_bsp/\libucosii_bsp.a(q.o)
 .debug_loc     0x0000ef21       0x56 ../tcpip_test_bsp/\libucosii_bsp.a(udp_open.o)
 .debug_loc     0x0000ef77      0x158 ../tcpip_test_bsp/\libucosii_bsp.a(brdutils.o)
 .debug_loc     0x0000f0cf       0xd8 ../tcpip_test_bsp/\libucosii_bsp.a(osportco.o)
 .debug_loc     0x0000f1a7      0x183 ../tcpip_test_bsp/\libucosii_bsp.a(targnios.o)
 .debug_loc     0x0000f32a      0x306 ../tcpip_test_bsp/\libucosii_bsp.a(nptcp.o)
 .debug_loc     0x0000f630       0x82 ../tcpip_test_bsp/\libucosii_bsp.a(rawsock.o)
 .debug_loc     0x0000f6b2      0x332 ../tcpip_test_bsp/\libucosii_bsp.a(sockcall.o)
 .debug_loc     0x0000f9e4      0x2b1 ../tcpip_test_bsp/\libucosii_bsp.a(socket.o)
 .debug_loc     0x0000fc95      0x3dd ../tcpip_test_bsp/\libucosii_bsp.a(socket2.o)
 .debug_loc     0x00010072      0x184 ../tcpip_test_bsp/\libucosii_bsp.a(soselect.o)
 .debug_loc     0x000101f6      0x12e ../tcpip_test_bsp/\libucosii_bsp.a(tcp_in.o)
 .debug_loc     0x00010324       0x82 ../tcpip_test_bsp/\libucosii_bsp.a(tcp_out.o)
 .debug_loc     0x000103a6      0x183 ../tcpip_test_bsp/\libucosii_bsp.a(tcp_subr.o)
 .debug_loc     0x00010529       0x81 ../tcpip_test_bsp/\libucosii_bsp.a(tcp_timr.o)
 .debug_loc     0x000105aa       0xac ../tcpip_test_bsp/\libucosii_bsp.a(tcp_usr.o)
 .debug_loc     0x00010656       0x2b ../tcpip_test_bsp/\libucosii_bsp.a(tcpport.o)
 .debug_loc     0x00010681      0x102 ../tcpip_test_bsp/\libucosii_bsp.a(udpsock.o)
 .debug_loc     0x00010783       0x2b ../tcpip_test_bsp/\libucosii_bsp.a(alt_alarm_start.o)
 .debug_loc     0x000107ae       0x56 ../tcpip_test_bsp/\libucosii_bsp.a(alt_close.o)
 .debug_loc     0x00010804       0x2b ../tcpip_test_bsp/\libucosii_bsp.a(alt_dcache_flush_all.o)
 .debug_loc     0x0001082f       0x2b ../tcpip_test_bsp/\libucosii_bsp.a(alt_dev.o)
 .debug_loc     0x0001085a       0x56 ../tcpip_test_bsp/\libucosii_bsp.a(alt_dev_llist_insert.o)
 .debug_loc     0x000108b0       0x2b ../tcpip_test_bsp/\libucosii_bsp.a(alt_do_ctors.o)
 .debug_loc     0x000108db       0x2b ../tcpip_test_bsp/\libucosii_bsp.a(alt_do_dtors.o)
 .debug_loc     0x00010906       0x2b ../tcpip_test_bsp/\libucosii_bsp.a(alt_find_dev.o)
 .debug_loc     0x00010931       0x2b ../tcpip_test_bsp/\libucosii_bsp.a(alt_icache_flush_all.o)
 .debug_loc     0x0001095c       0xac ../tcpip_test_bsp/\libucosii_bsp.a(alt_iic.o)
 .debug_loc     0x00010a08       0x2b ../tcpip_test_bsp/\libucosii_bsp.a(alt_iic_isr_register.o)
 .debug_loc     0x00010a33       0x56 ../tcpip_test_bsp/\libucosii_bsp.a(alt_io_redirect.o)
 .debug_loc     0x00010a89       0x2b ../tcpip_test_bsp/\libucosii_bsp.a(alt_irq_handler.o)
 .debug_loc     0x00010ab4       0x81 ../tcpip_test_bsp/\libucosii_bsp.a(alt_open.o)
 .debug_loc     0x00010b35       0x56 ../tcpip_test_bsp/\libucosii_bsp.a(alt_read.o)
 .debug_loc     0x00010b8b       0x2b ../tcpip_test_bsp/\libucosii_bsp.a(alt_release_fd.o)
 .debug_loc     0x00010bb6       0x2b ../tcpip_test_bsp/\libucosii_bsp.a(alt_remap_cached.o)
 .debug_loc     0x00010be1       0x2b ../tcpip_test_bsp/\libucosii_bsp.a(alt_remap_uncached.o)
 .debug_loc     0x00010c0c       0x56 ../tcpip_test_bsp/\libucosii_bsp.a(alt_tick.o)
 .debug_loc     0x00010c62       0x2b ../tcpip_test_bsp/\libucosii_bsp.a(alt_uncached_malloc.o)
 .debug_loc     0x00010c8d       0x2b ../tcpip_test_bsp/\libucosii_bsp.a(alt_usleep.o)
 .debug_loc     0x00010cb8       0x56 ../tcpip_test_bsp/\libucosii_bsp.a(alt_write.o)
 .debug_loc     0x00010d0e       0x2b ../tcpip_test_bsp/\libucosii_bsp.a(altera_nios2_irq.o)
 .debug_loc     0x00010d39      0x1ae ../tcpip_test_bsp/\libucosii_bsp.a(os_cpu_c.o)
 .debug_loc     0x00010ee7      0x12d ../tcpip_test_bsp/\libucosii_bsp.a(allports.o)
 .debug_loc     0x00011014       0xac ../tcpip_test_bsp/\libucosii_bsp.a(timeouts.o)
 .debug_loc     0x000110c0       0x56 ../tcpip_test_bsp/\libucosii_bsp.a(tk_misc.o)
 .debug_loc     0x00011116       0x2b ../tcpip_test_bsp/\libucosii_bsp.a(alt_iniche_fcntl.o)
 .debug_loc     0x00011141      0x204 ../tcpip_test_bsp/\libucosii_bsp.a(et_arp.o)
 .debug_loc     0x00011345       0xac ../tcpip_test_bsp/\libucosii_bsp.a(iface.o)
 .debug_loc     0x000113f1      0x207 ../tcpip_test_bsp/\libucosii_bsp.a(ip.o)
 .debug_loc     0x000115f8      0x2b2 ../tcpip_test_bsp/\libucosii_bsp.a(ip_reasm.o)
 .debug_loc     0x000118aa       0x81 ../tcpip_test_bsp/\libucosii_bsp.a(ipdemux.o)
 .debug_loc     0x0001192b       0x81 ../tcpip_test_bsp/\libucosii_bsp.a(ipmc.o)
 .debug_loc     0x000119ac       0x81 ../tcpip_test_bsp/\libucosii_bsp.a(ipport.o)
 .debug_loc     0x00011a2d      0x102 ../tcpip_test_bsp/\libucosii_bsp.a(ipraw.o)
 .debug_loc     0x00011b2f       0x81 ../tcpip_test_bsp/\libucosii_bsp.a(iproute.o)
 .debug_loc     0x00011bb0      0x12f ../tcpip_test_bsp/\libucosii_bsp.a(udp.o)
 .debug_loc     0x00011cdf       0x2b ../tcpip_test_bsp/\libucosii_bsp.a(igmp.o)
 .debug_loc     0x00011d0a       0xd7 ../tcpip_test_bsp/\libucosii_bsp.a(igmp2.o)
 .debug_loc     0x00011de1       0xac ../tcpip_test_bsp/\libucosii_bsp.a(ipopt.o)
 .debug_loc     0x00011e8d       0x57 ../tcpip_test_bsp/\libucosii_bsp.a(u_mctest.o)
 .debug_loc     0x00011ee4       0x56 ../tcpip_test_bsp/\libucosii_bsp.a(dhcsetup.o)
 .debug_loc     0x00011f3a      0x183 ../tcpip_test_bsp/\libucosii_bsp.a(memdev.o)
 .debug_loc     0x000120bd      0x183 ../tcpip_test_bsp/\libucosii_bsp.a(parseip.o)
 .debug_loc     0x00012240       0x2b ../tcpip_test_bsp/\libucosii_bsp.a(tcpcksum.o)
 .debug_loc     0x0001226b      0x158 ../tcpip_test_bsp/\libucosii_bsp.a(in_pcb.o)
 .debug_loc     0x000123c3      0x4b4 ../tcpip_test_bsp/\libucosii_bsp.a(vfsfiles.o)
 .debug_loc     0x00012877       0x2b ../tcpip_test_bsp/\libucosii_bsp.a(vfsport.o)
 .debug_loc     0x000128a2       0x2b ../tcpip_test_bsp/\libucosii_bsp.a(alt_busy_sleep.o)
 .debug_loc     0x000128cd       0x2b ../tcpip_test_bsp/\libucosii_bsp.a(alt_dcache_flush.o)
 .debug_loc     0x000128f8       0x56 ../tcpip_test_bsp/\libucosii_bsp.a(alt_fcntl.o)
 .debug_loc     0x0001294e       0x2b ../tcpip_test_bsp/\libucosii_bsp.a(alt_find_file.o)
 .debug_loc     0x00012979       0x2b ../tcpip_test_bsp/\libucosii_bsp.a(alt_get_fd.o)
 .debug_loc     0x000129a4       0x2b ../tcpip_test_bsp/\libucosii_bsp.a(alt_icache_flush.o)
 .debug_loc     0x000129cf       0xad ../tcpip_test_bsp/\libucosii_bsp.a(icmp.o)
 .debug_loc     0x00012a7c       0x1e c:/altera/11.0sp1/nios2eds/bin/gnu/h-i686-mingw32/bin/../lib/gcc/nios2-elf/4.1.2/../../../../nios2-elf/lib\libc.a(lib_a-atexit.o)
 .debug_loc     0x00012a9a       0x39 c:/altera/11.0sp1/nios2eds/bin/gnu/h-i686-mingw32/bin/../lib/gcc/nios2-elf/4.1.2/../../../../nios2-elf/lib\libc.a(lib_a-atoi.o)
 .debug_loc     0x00012ad3       0x3c c:/altera/11.0sp1/nios2eds/bin/gnu/h-i686-mingw32/bin/../lib/gcc/nios2-elf/4.1.2/../../../../nios2-elf/lib\libc.a(lib_a-calloc.o)
 .debug_loc     0x00012b0f       0x3d c:/altera/11.0sp1/nios2eds/bin/gnu/h-i686-mingw32/bin/../lib/gcc/nios2-elf/4.1.2/../../../../nios2-elf/lib\libc.a(lib_a-exit.o)
 .debug_loc     0x00012b4c      0x10b c:/altera/11.0sp1/nios2eds/bin/gnu/h-i686-mingw32/bin/../lib/gcc/nios2-elf/4.1.2/../../../../nios2-elf/lib\libc.a(lib_a-getc.o)
 .debug_loc     0x00012c57       0x3c c:/altera/11.0sp1/nios2eds/bin/gnu/h-i686-mingw32/bin/../lib/gcc/nios2-elf/4.1.2/../../../../nios2-elf/lib\libc.a(lib_a-malloc.o)
 .debug_loc     0x00012c93      0x114 c:/altera/11.0sp1/nios2eds/bin/gnu/h-i686-mingw32/bin/../lib/gcc/nios2-elf/4.1.2/../../../../nios2-elf/lib\libc.a(lib_a-memcmp.o)
 .debug_loc     0x00012da7       0x6e c:/altera/11.0sp1/nios2eds/bin/gnu/h-i686-mingw32/bin/../lib/gcc/nios2-elf/4.1.2/../../../../nios2-elf/lib\libc.a(lib_a-rget.o)
 .debug_loc     0x00012e15       0x8b c:/altera/11.0sp1/nios2eds/bin/gnu/h-i686-mingw32/bin/../lib/gcc/nios2-elf/4.1.2/../../../../nios2-elf/lib\libc.a(lib_a-strcpy.o)
 .debug_loc     0x00012ea0       0x78 c:/altera/11.0sp1/nios2eds/bin/gnu/h-i686-mingw32/bin/../lib/gcc/nios2-elf/4.1.2/../../../../nios2-elf/lib\libc.a(lib_a-strncmp.o)
 .debug_loc     0x00012f18       0xeb c:/altera/11.0sp1/nios2eds/bin/gnu/h-i686-mingw32/bin/../lib/gcc/nios2-elf/4.1.2/../../../../nios2-elf/lib\libc.a(lib_a-strncpy.o)
 .debug_loc     0x00013003      0x346 c:/altera/11.0sp1/nios2eds/bin/gnu/h-i686-mingw32/bin/../lib/gcc/nios2-elf/4.1.2/../../../../nios2-elf/lib\libc.a(lib_a-strtol.o)
 .debug_loc     0x00013349       0x8b c:/altera/11.0sp1/nios2eds/bin/gnu/h-i686-mingw32/bin/../lib/gcc/nios2-elf/4.1.2/../../../../nios2-elf/lib\libc.a(lib_a-vprintf.o)
 .debug_loc     0x000133d4       0xd1 c:/altera/11.0sp1/nios2eds/bin/gnu/h-i686-mingw32/bin/../lib/gcc/nios2-elf/4.1.2/../../../../nios2-elf/lib\libc.a(lib_a-vsprintf.o)
 .debug_loc     0x000134a5      0x120 c:/altera/11.0sp1/nios2eds/bin/gnu/h-i686-mingw32/bin/../lib/gcc/nios2-elf/4.1.2/../../../../nios2-elf/lib\libc.a(lib_a-__atexit.o)
 .debug_loc     0x000135c5      0x1cb c:/altera/11.0sp1/nios2eds/bin/gnu/h-i686-mingw32/bin/../lib/gcc/nios2-elf/4.1.2/../../../../nios2-elf/lib\libc.a(lib_a-__call_atexit.o)
 .debug_loc     0x00013790       0xd1 c:/altera/11.0sp1/nios2eds/bin/gnu/h-i686-mingw32/bin/../lib/gcc/nios2-elf/4.1.2/../../../../nios2-elf/lib\libc.a(lib_a-refill.o)
 .debug_loc     0x00013861       0x56 ../tcpip_test_bsp/\libucosii_bsp.a(alt_exit.o)

.debug_macinfo
 *(.debug_macinfo)

.debug_weaknames
 *(.debug_weaknames)

.debug_funcnames
 *(.debug_funcnames)

.debug_typenames
 *(.debug_typenames)

.debug_varnames
 *(.debug_varnames)

.debug_alt_sim_info
                0x00000000       0x60
 *(.debug_alt_sim_info)
 .debug_alt_sim_info
                0x00000000       0x30 ../tcpip_test_bsp//obj/HAL/src/crt0.o
 .debug_alt_sim_info
                0x00000030       0x30 ../tcpip_test_bsp/\libucosii_bsp.a(alt_busy_sleep.o)
                0x06000000                __alt_data_end = 0x6000000
                0x06000000                PROVIDE (__alt_stack_pointer, __alt_data_end)
                0x040593a8                PROVIDE (__alt_stack_limit, __alt_stack_base)
                0x040593a8                PROVIDE (__alt_heap_start, end)
                0x06000000                PROVIDE (__alt_heap_limit, 0x6000000)
OUTPUT(tcpip_test.elf elf32-littlenios2)

.debug_ranges   0x00000000      0x9a8
 .debug_ranges  0x00000000       0x20 ../tcpip_test_bsp//obj/HAL/src/crt0.o
 .debug_ranges  0x00000020      0x168 c:/altera/11.0sp1/nios2eds/bin/gnu/h-i686-mingw32/bin/../lib/gcc/nios2-elf/4.1.2/../../../../nios2-elf/lib\libc.a(lib_a-vfprintf.o)
 .debug_ranges  0x00000188       0x20 c:/altera/11.0sp1/nios2eds/bin/gnu/h-i686-mingw32/bin/../lib/gcc/nios2-elf/4.1.2/../../../../nios2-elf/lib\libc.a(lib_a-fflush.o)
 .debug_ranges  0x000001a8       0x28 c:/altera/11.0sp1/nios2eds/bin/gnu/h-i686-mingw32/bin/../lib/gcc/nios2-elf/4.1.2/../../../../nios2-elf/lib\libc.a(lib_a-fvwrite.o)
 .debug_ranges  0x000001d0       0xa0 c:/altera/11.0sp1/nios2eds/bin/gnu/h-i686-mingw32/bin/../lib/gcc/nios2-elf/4.1.2/../../../../nios2-elf/lib\libc.a(lib_a-fwalk.o)
 .debug_ranges  0x00000270       0x70 c:/altera/11.0sp1/nios2eds/bin/gnu/h-i686-mingw32/bin/../lib/gcc/nios2-elf/4.1.2/../../../../nios2-elf/lib\libc.a(lib_a-mallocr.o)
 .debug_ranges  0x000002e0      0x110 c:/altera/11.0sp1/nios2eds/bin/gnu/h-i686-mingw32/bin/../lib/gcc/nios2-elf/4.1.2/../../../../nios2-elf/lib\libc.a(lib_a-reallocr.o)
 .debug_ranges  0x000003f0       0x38 c:/altera/11.0sp1/nios2eds/bin/gnu/h-i686-mingw32/bin/../lib/gcc/nios2-elf/4.1.2/../../../../nios2-elf/lib\libc.a(lib_a-callocr.o)
 .debug_ranges  0x00000428      0x188 c:/altera/11.0sp1/nios2eds/bin/gnu/h-i686-mingw32/bin/../lib/gcc/nios2-elf/4.1.2\libgcc.a(_udivdi3.o)
 .debug_ranges  0x000005b0      0x198 c:/altera/11.0sp1/nios2eds/bin/gnu/h-i686-mingw32/bin/../lib/gcc/nios2-elf/4.1.2\libgcc.a(_umoddi3.o)
 .debug_ranges  0x00000748       0x30 c:/altera/11.0sp1/nios2eds/bin/gnu/h-i686-mingw32/bin/../lib/gcc/nios2-elf/4.1.2\libgcc.a(_addsub_df.o)
 .debug_ranges  0x00000778       0x88 c:/altera/11.0sp1/nios2eds/bin/gnu/h-i686-mingw32/bin/../lib/gcc/nios2-elf/4.1.2\libgcc.a(_mul_df.o)
 .debug_ranges  0x00000800       0x50 c:/altera/11.0sp1/nios2eds/bin/gnu/h-i686-mingw32/bin/../lib/gcc/nios2-elf/4.1.2\libgcc.a(_div_df.o)
 .debug_ranges  0x00000850       0x18 c:/altera/11.0sp1/nios2eds/bin/gnu/h-i686-mingw32/bin/../lib/gcc/nios2-elf/4.1.2\libgcc.a(_usi_to_df.o)
 .debug_ranges  0x00000868       0x68 c:/altera/11.0sp1/nios2eds/bin/gnu/h-i686-mingw32/bin/../lib/gcc/nios2-elf/4.1.2\libgcc.a(_muldi3.o)
 .debug_ranges  0x000008d0       0x28 c:/altera/11.0sp1/nios2eds/bin/gnu/h-i686-mingw32/bin/../lib/gcc/nios2-elf/4.1.2\libgcc.a(_clzsi2.o)
 .debug_ranges  0x000008f8       0x28 c:/altera/11.0sp1/nios2eds/bin/gnu/h-i686-mingw32/bin/../lib/gcc/nios2-elf/4.1.2\libgcc.a(_pack_df.o)
 .debug_ranges  0x00000920       0x18 ../tcpip_test_bsp/\libucosii_bsp.a(altera_avalon_jtag_uart_init.o)
 .debug_ranges  0x00000938       0x28 ../tcpip_test_bsp/\libucosii_bsp.a(alt_irq_entry.o)
 .debug_ranges  0x00000960       0x30 ../tcpip_test_bsp/\libucosii_bsp.a(alt_exception_entry.o)
 .debug_ranges  0x00000990       0x18 c:/altera/11.0sp1/nios2eds/bin/gnu/h-i686-mingw32/bin/../lib/gcc/nios2-elf/4.1.2/../../../../nios2-elf/lib\libc.a(lib_a-__call_atexit.o)
