
ntp_test.elf:     file format elf32-littlenios2
ntp_test.elf
architecture: nios2, flags 0x00000112:
EXEC_P, HAS_SYMS, D_PAGED
start address 0x04000188

Program Header:
    LOAD off    0x00001000 vaddr 0x04000000 paddr 0x04000000 align 2**12
         filesz 0x00000020 memsz 0x00000020 flags r-x
    LOAD off    0x00001020 vaddr 0x04000020 paddr 0x04000020 align 2**12
         filesz 0x000366d4 memsz 0x000366d4 flags r-x
    LOAD off    0x000376f4 vaddr 0x040366f4 paddr 0x04038534 align 2**12
         filesz 0x00001e40 memsz 0x00001e40 flags rw-
    LOAD off    0x0003a374 vaddr 0x0403a374 paddr 0x0403a374 align 2**12
         filesz 0x00000000 memsz 0x00009700 flags rw-

Sections:
Idx Name          Size      VMA       LMA       File off  Algn
  0 .entry        00000020  04000000  04000000  00001000  2**5
                  CONTENTS, ALLOC, LOAD, READONLY, CODE
  1 .exceptions   00000168  04000020  04000020  00001020  2**2
                  CONTENTS, ALLOC, LOAD, READONLY, CODE
  2 .text         000311b0  04000188  04000188  00001188  2**2
                  CONTENTS, ALLOC, LOAD, READONLY, CODE
  3 .rodata       000053bc  04031338  04031338  00032338  2**2
                  CONTENTS, ALLOC, LOAD, READONLY, DATA
  4 .rwdata       00001e40  040366f4  04038534  000376f4  2**2
                  CONTENTS, ALLOC, LOAD, DATA, SMALL_DATA
  5 .bss          00009700  0403a374  0403a374  0003a374  2**2
                  ALLOC, SMALL_DATA
  6 .comment      00000026  00000000  00000000  00039534  2**0
                  CONTENTS, READONLY
  7 .debug_aranges 00001c58  00000000  00000000  00039560  2**3
                  CONTENTS, READONLY, DEBUGGING
  8 .debug_pubnames 000057bc  00000000  00000000  0003b1b8  2**0
                  CONTENTS, READONLY, DEBUGGING
  9 .debug_info   00068367  00000000  00000000  00040974  2**0
                  CONTENTS, READONLY, DEBUGGING
 10 .debug_abbrev 000144fb  00000000  00000000  000a8cdb  2**0
                  CONTENTS, READONLY, DEBUGGING
 11 .debug_line   000495db  00000000  00000000  000bd1d6  2**0
                  CONTENTS, READONLY, DEBUGGING
 12 .debug_frame  00005d4c  00000000  00000000  001067b4  2**2
                  CONTENTS, READONLY, DEBUGGING
 13 .debug_str    0000a6b3  00000000  00000000  0010c500  2**0
                  CONTENTS, READONLY, DEBUGGING
 14 .debug_loc    0002847a  00000000  00000000  00116bb3  2**0
                  CONTENTS, READONLY, DEBUGGING
 15 .debug_alt_sim_info 00000060  00000000  00000000  0013f030  2**2
                  CONTENTS, READONLY, DEBUGGING
 16 .debug_ranges 00001ba0  00000000  00000000  0013f090  2**3
                  CONTENTS, READONLY, DEBUGGING
 17 .thread_model 00000006  00000000  00000000  0014b247  2**0
                  CONTENTS, READONLY
 18 .cpu          00000003  00000000  00000000  0014b24d  2**0
                  CONTENTS, READONLY
 19 .simulation_enabled 00000001  00000000  00000000  0014b250  2**0
                  CONTENTS, READONLY
 20 .sysid_hash   00000004  00000000  00000000  0014b251  2**0
                  CONTENTS, READONLY
 21 .sysid_base   00000004  00000000  00000000  0014b255  2**0
                  CONTENTS, READONLY
 22 .sysid_time   00000004  00000000  00000000  0014b259  2**0
                  CONTENTS, READONLY
 23 .stderr_dev   00000009  00000000  00000000  0014b25d  2**0
                  CONTENTS, READONLY
 24 .stdin_dev    00000009  00000000  00000000  0014b266  2**0
                  CONTENTS, READONLY
 25 .stdout_dev   00000009  00000000  00000000  0014b26f  2**0
                  CONTENTS, READONLY
 26 .sopc_system_name 0000000b  00000000  00000000  0014b278  2**0
                  CONTENTS, READONLY
 27 .quartus_project_dir 00000026  00000000  00000000  0014b283  2**0
                  CONTENTS, READONLY
 28 .jdi          00003e55  00000000  00000000  0014b2a9  2**0
                  CONTENTS, READONLY
SYMBOL TABLE:
04000000 l    d  .entry	00000000 .entry
04000020 l    d  .exceptions	00000000 .exceptions
04000188 l    d  .text	00000000 .text
04031338 l    d  .rodata	00000000 .rodata
040366f4 l    d  .rwdata	00000000 .rwdata
0403a374 l    d  .bss	00000000 .bss
00000000 l    d  .comment	00000000 .comment
00000000 l    d  .debug_aranges	00000000 .debug_aranges
00000000 l    d  .debug_pubnames	00000000 .debug_pubnames
00000000 l    d  .debug_info	00000000 .debug_info
00000000 l    d  .debug_abbrev	00000000 .debug_abbrev
00000000 l    d  .debug_line	00000000 .debug_line
00000000 l    d  .debug_frame	00000000 .debug_frame
00000000 l    d  .debug_str	00000000 .debug_str
00000000 l    d  .debug_loc	00000000 .debug_loc
00000000 l    d  .debug_alt_sim_info	00000000 .debug_alt_sim_info
00000000 l    d  .debug_ranges	00000000 .debug_ranges
040001d0 l       .text	00000000 alt_after_alt_main
00000000 l    df *ABS*	00000000 alt_irq_handler.c
00000000 l    df *ABS*	00000000 alt_error_handler.c
00000000 l    df *ABS*	00000000 init_ntp.c
00000000 l    df *ABS*	00000000 network_utilities.c
00000000 l    df *ABS*	00000000 ntp_client.c
00000000 l    df *ABS*	00000000 ntp_data_gram.c
00000000 l    df *ABS*	00000000 target_clock.c
00000000 l    df *ABS*	00000000 tse_my_system.c
00000000 l    df *ABS*	00000000 ctime.c
00000000 l    df *ABS*	00000000 errno.c
00000000 l    df *ABS*	00000000 exit.c
00000000 l    df *ABS*	00000000 fprintf.c
00000000 l    df *ABS*	00000000 fwrite.c
00000000 l    df *ABS*	00000000 gmtime.c
00000000 l    df *ABS*	00000000 gmtime_r.c
00000000 l    df *ABS*	00000000 impure.c
0403670c l     O .rwdata	00000400 impure_data
00000000 l    df *ABS*	00000000 lcltime.c
00000000 l    df *ABS*	00000000 lcltime_r.c
00000000 l    df *ABS*	00000000 malloc.c
00000000 l    df *ABS*	00000000 mallocr.c
00000000 l    df *ABS*	00000000 memset.c
00000000 l    df *ABS*	00000000 mktm_r.c
04032108 l     O .rodata	00000060 mon_lengths
040383ec l     O .rwdata	00000008 year_lengths
00000000 l    df *ABS*	00000000 perror.c
00000000 l    df *ABS*	00000000 printf.c
00000000 l    df *ABS*	00000000 puts.c
00000000 l    df *ABS*	00000000 sbrkr.c
00000000 l    df *ABS*	00000000 strerror.c
00000000 l    df *ABS*	00000000 strftime.c
040036e4 l     F .text	0000018c iso_year_adjust
04032a6c l     O .rodata	0000001c dname_len
04032a50 l     O .rodata	0000001c dname
04032ab8 l     O .rodata	00000030 mname_len
04032a88 l     O .rodata	00000030 mname
00000000 l    df *ABS*	00000000 strlen.c
00000000 l    df *ABS*	00000000 tzlock.c
00000000 l    df *ABS*	00000000 tzvars.c
00000000 l    df *ABS*	00000000 u_strerr.c
00000000 l    df *ABS*	00000000 vfprintf.c
040047b0 l     F .text	00000058 __sprint_r
04032b56 l     O .rodata	00000010 blanks.3452
04032b46 l     O .rodata	00000010 zeroes.3453
00000000 l    df *ABS*	00000000 wsetup.c
00000000 l    df *ABS*	00000000 __call_atexit.c
04006814 l     F .text	00000004 register_fini
00000000 l    df *ABS*	00000000 abs.c
00000000 l    df *ABS*	00000000 asctime.c
00000000 l    df *ABS*	00000000 asctime_r.c
04032bac l     O .rodata	00000015 day_name.1821
04032b88 l     O .rodata	00000024 mon_name.1822
00000000 l    df *ABS*	00000000 dtoa.c
04006a84 l     F .text	00000218 quorem
00000000 l    df *ABS*	00000000 fflush.c
00000000 l    df *ABS*	00000000 findfp.c
04008480 l     F .text	00000058 std
0400858c l     F .text	00000008 __fp_lock
04008594 l     F .text	00000008 __fp_unlock
00000000 l    df *ABS*	00000000 fputc.c
00000000 l    df *ABS*	00000000 fputs.c
00000000 l    df *ABS*	00000000 mallocr.c
00000000 l    df *ABS*	00000000 fvwrite.c
00000000 l    df *ABS*	00000000 fwalk.c
00000000 l    df *ABS*	00000000 gettzinfo.c
04036f14 l     O .rwdata	00000040 tzinfo
00000000 l    df *ABS*	00000000 int_errno.c
00000000 l    df *ABS*	00000000 labs.c
00000000 l    df *ABS*	00000000 locale.c
04038400 l     O .rwdata	00000004 charset
04032be0 l     O .rodata	00000030 lconv
00000000 l    df *ABS*	00000000 makebuf.c
00000000 l    df *ABS*	00000000 memchr.c
00000000 l    df *ABS*	00000000 memcpy.c
00000000 l    df *ABS*	00000000 memmove.c
00000000 l    df *ABS*	00000000 mprec.c
04032d28 l     O .rodata	0000000c p05.2458
00000000 l    df *ABS*	00000000 putc.c
00000000 l    df *ABS*	00000000 mallocr.c
00000000 l    df *ABS*	00000000 s_isinfd.c
00000000 l    df *ABS*	00000000 s_isnand.c
00000000 l    df *ABS*	00000000 snprintf.c
00000000 l    df *ABS*	00000000 sprintf.c
00000000 l    df *ABS*	00000000 stdio.c
00000000 l    df *ABS*	00000000 strcmp.c
00000000 l    df *ABS*	00000000 wbuf.c
00000000 l    df *ABS*	00000000 writer.c
00000000 l    df *ABS*	00000000 mallocr.c
00000000 l    df *ABS*	00000000 closer.c
00000000 l    df *ABS*	00000000 fclose.c
00000000 l    df *ABS*	00000000 fstatr.c
00000000 l    df *ABS*	00000000 isattyr.c
00000000 l    df *ABS*	00000000 lseekr.c
00000000 l    df *ABS*	00000000 readr.c
00000000 l    df *ABS*	00000000 libgcc2.c
00000000 l    df *ABS*	00000000 libgcc2.c
00000000 l    df *ABS*	00000000 dp-bit.c
0400c5c4 l     F .text	00000410 _fpadd_parts
00000000 l    df *ABS*	00000000 dp-bit.c
00000000 l    df *ABS*	00000000 dp-bit.c
00000000 l    df *ABS*	00000000 dp-bit.c
00000000 l    df *ABS*	00000000 dp-bit.c
00000000 l    df *ABS*	00000000 dp-bit.c
00000000 l    df *ABS*	00000000 dp-bit.c
00000000 l    df *ABS*	00000000 dp-bit.c
00000000 l    df *ABS*	00000000 dp-bit.c
00000000 l    df *ABS*	00000000 dp-bit.c
00000000 l    df *ABS*	00000000 dp-bit.c
00000000 l    df *ABS*	00000000 dp-bit.c
00000000 l    df *ABS*	00000000 lib2-divmod.c
0400d6f0 l     F .text	0000007c udivmodsi4
00000000 l    df *ABS*	00000000 libgcc2.c
00000000 l    df *ABS*	00000000 libgcc2.c
00000000 l    df *ABS*	00000000 libgcc2.c
00000000 l    df *ABS*	00000000 dp-bit.c
00000000 l    df *ABS*	00000000 dp-bit.c
00000000 l    df *ABS*	00000000 dp-bit.c
00000000 l    df *ABS*	00000000 alt_exit.c
00000000 l    df *ABS*	00000000 alt_fstat.c
00000000 l    df *ABS*	00000000 alt_gettod.c
00000000 l    df *ABS*	00000000 alt_isatty.c
00000000 l    df *ABS*	00000000 alt_load.c
0400e224 l     F .text	0000006c alt_load_section
00000000 l    df *ABS*	00000000 alt_lseek.c
00000000 l    df *ABS*	00000000 alt_main.c
00000000 l    df *ABS*	00000000 alt_sbrk.c
04038404 l     O .rwdata	00000004 heap_end
00000000 l    df *ABS*	00000000 alt_settod.c
0400e54c l     F .text	00000060 alt_get_errno
00000000 l    df *ABS*	00000000 alt_tick.c
00000000 l    df *ABS*	00000000 alt_env_lock.c
0403a3c8 l     O .bss	00000004 locks
04038410 l     O .rwdata	00000004 lockid
00000000 l    df *ABS*	00000000 alt_malloc_lock.c
0403a3d0 l     O .bss	00000004 locks
04038414 l     O .rwdata	00000004 lockid
00000000 l    df *ABS*	00000000 os_core.c
0400ebc0 l     F .text	00000038 OS_SchedNew
00000000 l    df *ABS*	00000000 os_dbg.c
00000000 l    df *ABS*	00000000 os_flag.c
0400fb2c l     F .text	000000b4 OS_FlagBlock
0400fc20 l     F .text	00000090 OS_FlagTaskRdy
00000000 l    df *ABS*	00000000 os_mem.c
00000000 l    df *ABS*	00000000 os_q.c
00000000 l    df *ABS*	00000000 os_sem.c
00000000 l    df *ABS*	00000000 os_task.c
00000000 l    df *ABS*	00000000 os_time.c
00000000 l    df *ABS*	00000000 alt_sys_init.c
04036f60 l     O .rwdata	0000106c jtag_uart
04037fcc l     O .rwdata	00000030 sgdma_rx
04037ffc l     O .rwdata	00000030 sgdma_tx
00000000 l    df *ABS*	00000000 altera_avalon_jtag_uart_fd.c
00000000 l    df *ABS*	00000000 altera_avalon_jtag_uart_init.c
04013448 l     F .text	000000b4 altera_avalon_jtag_uart_timeout
040135c4 l     F .text	000001a0 altera_avalon_jtag_uart_irq
00000000 l    df *ABS*	00000000 altera_avalon_jtag_uart_ioctl.c
00000000 l    df *ABS*	00000000 altera_avalon_jtag_uart_read.c
00000000 l    df *ABS*	00000000 altera_avalon_jtag_uart_write.c
00000000 l    df *ABS*	00000000 altera_avalon_sgdma.c
04013dc4 l     F .text	0000005c alt_avalon_sgdma_irq
00000000 l    df *ABS*	00000000 altera_avalon_timer_sc.c
04014248 l     F .text	0000003c alt_avalon_timer_sc_irq
00000000 l    df *ABS*	00000000 altera_avalon_tse.c
0403a42b l     O .bss	00000001 tse_system_count.4413
0403a42a l     O .bss	00000001 is_init.4593
00000000 l    df *ABS*	00000000 altera_avalon_tse_system_info.c
00000000 l    df *ABS*	00000000 ins_tse_mac.c
00000000 l    df *ABS*	00000000 alt_iniche_close.c
00000000 l    df *ABS*	00000000 alt_iniche_dev.c
00000000 l    df *ABS*	00000000 alt_iniche_read.c
00000000 l    df *ABS*	00000000 alt_iniche_write.c
00000000 l    df *ABS*	00000000 ipnet.c
00000000 l    df *ABS*	00000000 ipstart.c
0403a440 l     O .bss	00000004 nclosers
0403a6e0 l     O .bss	0000003c closers
00000000 l    df *ABS*	00000000 igmp_cmn.c
00000000 l    df *ABS*	00000000 bsdsock.c
00000000 l    df *ABS*	00000000 cksum.c
00000000 l    df *ABS*	00000000 in_utils.c
0403a71c l     O .bss	00000018 tistring
00000000 l    df *ABS*	00000000 netmain.c
00000000 l    df *ABS*	00000000 tk_crnos.c
00000000 l    df *ABS*	00000000 dhcpclnt.c
0401a678 l     F .text	00000044 dh_getlong
00000000 l    df *ABS*	00000000 dhcputil.c
00000000 l    df *ABS*	00000000 pktalloc.c
00000000 l    df *ABS*	00000000 q.c
00000000 l    df *ABS*	00000000 udp_open.c
0401c73c l       .text	00000000 done
0401c5cc l       .text	00000000 asm1
0401c6f8 l       .text	00000000 loop0
0401c5f4 l       .text	00000000 loop
0401c714 l       .text	00000000 fold
00000000 l    df *ABS*	00000000 brdutils.c
0403a4ac l     O .bss	00000004 cpu_statusreg
0403a4a8 l     O .bss	00000004 kbd_init.3735
00000000 l    df *ABS*	00000000 osportco.c
00000000 l    df *ABS*	00000000 targnios.c
00000000 l    df *ABS*	00000000 nptcp.c
0403a4e0 l     O .bss	00000004 in_tcptick
00000000 l    df *ABS*	00000000 rawsock.c
00000000 l    df *ABS*	00000000 sockcall.c
0401e69c l     F .text	00000074 sockargs
0401ea20 l     F .text	00000184 t_getname
00000000 l    df *ABS*	00000000 socket.c
00000000 l    df *ABS*	00000000 socket2.c
00000000 l    df *ABS*	00000000 soselect.c
00000000 l    df *ABS*	00000000 tcp_in.c
00000000 l    df *ABS*	00000000 tcp_out.c
00000000 l    df *ABS*	00000000 tcp_subr.c
00000000 l    df *ABS*	00000000 tcp_timr.c
00000000 l    df *ABS*	00000000 tcp_usr.c
00000000 l    df *ABS*	00000000 tcpport.c
00000000 l    df *ABS*	00000000 udpsock.c
00000000 l    df *ABS*	00000000 alt_alarm_start.c
00000000 l    df *ABS*	00000000 alt_close.c
00000000 l    df *ABS*	00000000 alt_dcache_flush_all.c
00000000 l    df *ABS*	00000000 alt_dev.c
04025f44 l     F .text	00000008 alt_dev_null_write
00000000 l    df *ABS*	00000000 alt_dev_llist_insert.c
04026000 l     F .text	00000060 alt_get_errno
00000000 l    df *ABS*	00000000 alt_do_ctors.c
00000000 l    df *ABS*	00000000 alt_do_dtors.c
00000000 l    df *ABS*	00000000 alt_errno.c
00000000 l    df *ABS*	00000000 alt_find_dev.c
00000000 l    df *ABS*	00000000 alt_icache_flush_all.c
00000000 l    df *ABS*	00000000 alt_iic.c
00000000 l    df *ABS*	00000000 alt_iic_isr_register.c
00000000 l    df *ABS*	00000000 alt_io_redirect.c
040262ec l     F .text	00000070 alt_open_fd
00000000 l    df *ABS*	00000000 alt_irq_vars.c
00000000 l    df *ABS*	00000000 alt_open.c
00000000 l    df *ABS*	00000000 alt_read.c
00000000 l    df *ABS*	00000000 alt_release_fd.c
00000000 l    df *ABS*	00000000 alt_remap_cached.c
00000000 l    df *ABS*	00000000 alt_remap_uncached.c
00000000 l    df *ABS*	00000000 alt_uncached_malloc.c
00000000 l    df *ABS*	00000000 alt_usleep.c
00000000 l    df *ABS*	00000000 alt_write.c
00000000 l    df *ABS*	00000000 altera_nios2_irq.c
00000040 l       *ABS*	00000000 OSCtxSw_SWITCH_PC
00000000 l    df *ABS*	00000000 os_cpu_c.c
00000014 l       *ABS*	00000000 OSTCBNext_OFFSET
00000032 l       *ABS*	00000000 OSTCBPrio_OFFSET
00000000 l       *ABS*	00000000 OSTCBStkPtr_OFFSET
00000000 l    df *ABS*	00000000 allports.c
0403a510 l     O .bss	00000004 inside_pktdemux
00000000 l    df *ABS*	00000000 timeouts.c
0403a51c l     O .bss	00000004 numtimers
00000000 l    df *ABS*	00000000 tk_misc.c
00000000 l    df *ABS*	00000000 alt_iniche_fcntl.c
00000000 l    df *ABS*	00000000 et_arp.c
0403a534 l     O .bss	00000004 arp_timer
0403a538 l     O .bss	00000004 cachetime
00000000 l    df *ABS*	00000000 iface.c
00000000 l    df *ABS*	00000000 ip.c
0403851c l     O .rwdata	00000004 uid
00000000 l    df *ABS*	00000000 ip_reasm.c
00000000 l    df *ABS*	00000000 ipdemux.c
00000000 l    df *ABS*	00000000 ipmc.c
00000000 l    df *ABS*	00000000 ipport.c
00000000 l    df *ABS*	00000000 ipraw.c
00000000 l    df *ABS*	00000000 iproute.c
00000000 l    df *ABS*	00000000 udp.c
0403a568 l     O .bss	00000002 usocket
00000000 l    df *ABS*	00000000 igmp.c
00000000 l    df *ABS*	00000000 igmp2.c
00000000 l    df *ABS*	00000000 ipopt.c
00000000 l    df *ABS*	00000000 u_mctest.c
04038520 l     O .rwdata	00000004 iCounter.4493
00000000 l    df *ABS*	00000000 dhcsetup.c
00000000 l    df *ABS*	00000000 memdev.c
00000000 l    df *ABS*	00000000 parseip.c
0403a734 l     O .bss	0000001e nearBuf.4136
00000000 l    df *ABS*	00000000 tcpcksum.c
00000000 l    df *ABS*	00000000 in_pcb.c
00000000 l    df *ABS*	00000000 vfsfiles.c
00000000 l    df *ABS*	00000000 vfsport.c
00000000 l    df *ABS*	00000000 alt_busy_sleep.c
00000000 l    df *ABS*	00000000 alt_dcache_flush.c
00000000 l    df *ABS*	00000000 alt_fcntl.c
00000000 l    df *ABS*	00000000 alt_find_file.c
00000000 l    df *ABS*	00000000 alt_get_fd.c
00000000 l    df *ABS*	00000000 alt_icache_flush.c
00000000 l    df *ABS*	00000000 icmp.c
04036458 l     O .rodata	00000018 dsts
00000000 l    df *ABS*	00000000 atexit.c
00000000 l    df *ABS*	00000000 atoi.c
00000000 l    df *ABS*	00000000 calloc.c
00000000 l    df *ABS*	00000000 getc.c
00000000 l    df *ABS*	00000000 memcmp.c
00000000 l    df *ABS*	00000000 rget.c
00000000 l    df *ABS*	00000000 strchr.c
00000000 l    df *ABS*	00000000 strcpy.c
00000000 l    df *ABS*	00000000 strncmp.c
00000000 l    df *ABS*	00000000 strncpy.c
00000000 l    df *ABS*	00000000 strtol.c
00000000 l    df *ABS*	00000000 vprintf.c
00000000 l    df *ABS*	00000000 vsprintf.c
00000000 l    df *ABS*	00000000 __atexit.c
00000000 l    df *ABS*	00000000 ctype_.c
04036571 l     O .rodata	00000180 _ctype_b
00000000 l    df *ABS*	00000000 refill.c
040312ac l     F .text	0000001c lflush
040433e0 g     O .bss	00000014 soq
04009bd4 g     F .text	00000094 _mprec_log10
04014388 g     F .text	0000006c alt_tse_get_mac_info
04038462 g     O .rwdata	00000002 OSTaskNameSize
04009cc0 g     F .text	00000088 __any_on
0400b8d8 g     F .text	00000070 _isatty_r
04032d00 g     O .rodata	00000028 __mprec_tinytens
04028dc8 g     F .text	000004cc ip_write_internal
0400e32c g     F .text	000000a8 alt_main
04030a6c g     F .text	0000008c strcpy
040069e0 g     F .text	00000014 asctime
0401bf0c g     F .text	00000078 pk_free
04002f4c g     F .text	000000a0 _puts_r
0404358c g     O .bss	00000100 alt_irq
0403827c g     O .rwdata	00000009 rtp_priority
0400b948 g     F .text	00000078 _lseek_r
0402faac g     F .text	00000218 icmp_timex
0401d74c g     F .text	00000024 m_freem
0402ea20 g     F .text	0000004c vgetc
0401c764 g     F .text	00000004 clock_c
0403a4f8 g     O .bss	00000004 tcp_optionbuf
040281cc g     F .text	00000048 if_getbynum
04010944 g     F .text	00000068 OS_MemInit
0403a488 g     O .bss	00000004 dsc_releases
0403a498 g     O .bss	00000004 dsc_rlyerrs
0401a3e4 g     F .text	00000054 TK_OSTaskQuery
0401c5ac g       .text	00000000 asm_cksum
0401458c g     F .text	000000a4 marvell_cfg_rgmii
04038534 g       *ABS*	00000000 __flash_rwdata_start
04012fac g     F .text	00000024 OSTimeSet
0402e988 g     F .text	00000098 vgetc_locked
0401ccdc g     F .text	00000008 post_task_setup
04029a10 g     F .text	0000021c ipr_stats
04024fd0 g     F .text	0000010c tcp_attach
040384b4 g     O .rwdata	00000004 reqlist_len
0401d154 g     F .text	00000080 tcp_tick
0401a048 g     F .text	00000058 print_ipad
0401a438 g     F .text	00000088 tcp_wakeup
0400d0e4 g     F .text	00000088 __eqdf2
0403a444 g     O .bss	00000004 igmp_timers_are_running
04021d94 g     F .text	000000bc tcp_pulloutofband
040143f4 g     F .text	00000008 alt_tse_phy_print_profile
0400f214 g     F .text	0000038c OSEventPendMulti
04043a74 g       *ABS*	00000000 __alt_heap_start
04026a40 g     F .text	00000004 OSTaskCreateHook
0401a6f0 g     F .text	00000028 dhc_ifacedone
04014760 g     F .text	0000006c marvell_phy_cfg
0402af2c g     F .text	000001d4 ip_rcv
0402e7a0 g     F .text	000000fc vfseek
04020a54 g     F .text	00000084 soqremque
0402bf9c g     F .text	000004a4 udpdemux
04016e70 g     F .text	0000009c tse_mac_close
04002ed4 g     F .text	00000044 printf
0403a53c g     O .bss	00000004 rt_mib
0403843a g     O .rwdata	00000002 OSMboxEn
0401a740 g     F .text	00000018 dhc_state_init
04030f90 g     F .text	00000024 vsprintf
04013cb4 g     F .text	00000080 alt_avalon_sgdma_do_sync_transfer
0400f5a0 g     F .text	00000040 OSIntEnter
0400b258 g     F .text	00000068 __sseek
040084e8 g     F .text	000000a4 __sinit
0402b124 g     F .text	000000cc in_delmulti
0400b458 g     F .text	00000130 __swbuf_r
0403a38c g     O .bss	00000004 _daylight
0403a554 g     O .bss	00000004 so_evtmap_create
0403844a g     O .rwdata	00000002 OSQEn
0402e528 g     F .text	0000006c in_pcballoc
040384d0 g     O .rwdata	00000002 socket_defaults
04009330 g     F .text	00000084 _setlocale_r
04027a98 g     F .text	000002ec send_arp
040085e8 g     F .text	00000068 __sfmoreglue
0402f440 g     F .text	00000254 vfopen_locked
0400e758 g     F .text	00000060 __malloc_unlock
04026a4c g     F .text	00000004 OSTaskStatHook
04026c54 g     F .text	00000038 prep_modules
040192a0 g     F .text	000000b4 bsd_i_sockoptlen
0403a3d8 g     O .bss	00000001 OSLockNesting
040384ac g     O .rwdata	00000004 xids
04003070 g     F .text	00000674 strerror
040168fc g     F .text	00000478 getPHYSpeed
0402f3a0 g     F .text	00000040 vfclose
04043480 g     O .bss	0000002c tcb
04038488 g     O .rwdata	00000002 OSDataSize
040266a8 g     F .text	00000010 alt_remap_cached
0403a3d9 g     O .bss	00000001 OSRunning
040271e0 g     F .text	00000204 grat_arp
04000e88 g     F .text	00000024 get_ip_addr
0402ddd0 g     F .text	00000090 inet_pton
04028108 g     F .text	00000060 reg_type
04042f84 g     O .bss	000000f0 dhc_states
04019094 g     F .text	00000144 igmp_fasttimo
0402e5a4 g     F .text	0000002c vunlink_flag_open_files
0401a8fc g     F .text	00000058 dhc_halt
04013e20 g     F .text	00000170 alt_avalon_sgdma_construct_descriptor_burst
0403a47c g     O .bss	00000004 dsc_acks
040434ac g     O .bss	000000e0 tcpstat
0402a134 g     F .text	00000200 ip_reasm_copy_queued_fragments_into_reassy_buffer
0401d424 g     F .text	00000058 dtom
0402384c g     F .text	000000b4 tcp_setpersist
0401ed70 g     F .text	00000110 t_getsockopt
040096e8 g     F .text	000000e0 memmove
0403a48c g     O .bss	00000004 dsc_naks
0401d770 g     F .text	00000364 ip_output
04026a50 g     F .text	00000004 OSInitHookBegin
0402fa6c g     F .text	00000040 icmp_du
040384a8 g     O .rwdata	00000004 num_net_tasks
0403a578 g     O .bss	00000004 vfiles
04038480 g     O .rwdata	00000002 OSTmrSize
0402d548 g     F .text	000000b8 dhc_main_ipset
040085d8 g     F .text	00000010 _cleanup
0402a334 g     F .text	000001d8 ip_reasm_process_first_fragment
0400b00c g     F .text	000000bc snprintf
04009d48 g     F .text	000000bc _Balloc
04000f38 g     F .text	00000250 NTPTask
0403a3dc g     O .bss	00000004 OSIdleCtr
04014adc g     F .text	0000010c alt_tse_phy_set_adv_1000
04038498 g     O .rwdata	00000001 max_mac_system
0402cc40 g     F .text	000002f0 ip_setmoptions
0400d1f4 g     F .text	00000088 __gtdf2
040160f8 g     F .text	00000344 alt_tse_system_add_sys
0402d86c g     F .text	00000008 md_fseek
04026a1c g       .text	00000000 OSStartTsk
04001d7c g     F .text	00000010 __errno
0400f98c g     F .text	0000019c OS_TCBInit
0402a8d4 g     F .text	00000048 ip_reassm
0401b100 g     F .text	000000cc dhc_reclaim
0404386c g     O .bss	00000010 udp_mib
04000000 g     F .entry	0000001c __reset
0401e60c g     F .text	00000090 t_shutdown
0401ebb4 g     F .text	000000e4 t_recvfrom
04038486 g     O .rwdata	00000002 OSTmrWheelTblSize
0402cf30 g     F .text	0000060c u_mctest_run
04014068 g     F .text	00000048 alt_avalon_sgdma_construct_stream_to_mem_desc_burst
04001a74 g     F .text	00000108 lcddisplaytime_task
0402b334 g     F .text	0000008c prep_ifaces
04000020 g       *ABS*	00000000 __flash_exceptions_start
0403a460 g     O .bss	00000001 to_netmain
0401bf84 g     F .text	00000088 pk_alloc
04038426 g     O .rwdata	00000002 OSEventSize
0403a3e0 g     O .bss	00000001 OSPrioHighRdy
0400b864 g     F .text	00000074 _fstat_r
0403a5c0 g     O .bss	00000120 tse_mac_device
0401a0a0 g     F .text	00000058 tk_nettick
04026a44 g     F .text	00000004 OSTaskDelHook
0403a394 g     O .bss	00000004 errno
04030978 g     F .text	00000014 __srget
04021598 g     F .text	000000a8 in_pcbnotify
040269fc g       .text	00000000 OSStartHighRdy
04043074 g     O .bss	00000014 lilfreeq
040006cc g     F .text	000004c8 alt_uCOSIIErrorHandler
0402b300 g     F .text	00000010 evtmap_setup
040124d4 g     F .text	0000017c OSTaskCreateExt
0403a464 g     O .bss	00000004 tcp_sleep_timeout
04020bec g     F .text	00000114 sbdrop
040092f4 g     F .text	00000018 labs
0403a550 g     O .bss	00000004 net_system_exit
0404387c g     O .bss	00000068 icmp_mib
040243b8 g     F .text	00000038 tcp_getseq
0402b428 g     F .text	00000088 ip_raw_alloc
04014ea0 g     F .text	00000418 alt_tse_phy_set_common_speed
040106f8 g     F .text	0000002c OSFlagPendGetFlagsRdy
04038466 g     O .rwdata	00000002 OSTaskStatStkSize
04042a58 g     O .bss	00000010 pmac_groups
0401ac30 g     F .text	000004d0 dhc_request
04020148 g     F .text	00000490 soreceive
0400fd88 g     F .text	000001a4 OSFlagAccept
04011228 g     F .text	00000058 OSQFlush
04010e84 g     F .text	000000b0 OSQAccept
0403a3b8 g     O .bss	00000004 alt_argv
040403dc g       *ABS*	00000000 _gp
040299e4 g     F .text	0000002c ip_reasm_send_icmp_timex
04026728 g     F .text	00000128 usleep
0402ef0c g     F .text	00000040 vfflush
04043388 g     O .bss	00000040 resid_semaphore
04019e64 g     F .text	00000104 hexdump
040297f0 g     F .text	00000060 ip_reasm_incr_mem_useage
0401cdbc g     F .text	0000000c calloc2
04018ef4 g     F .text	00000034 igmp_leavegroup
040123ac g     F .text	00000128 OSTaskCreate
040120d4 g     F .text	000002d8 OSTaskChangePrio
0403a3d4 g     O .bss	00000004 alt_heapsem
040243f0 g     F .text	000000b4 tcp_close
0400fb28 g     F .text	00000004 OSDebugInit
04012650 g     F .text	00000280 OSTaskDel
0402e648 g     F .text	00000050 vferror
04001c18 g     F .text	00000148 setup_phy
040266e0 g     F .text	00000048 alt_uncached_malloc
0401429c g     F .text	0000001c tse_mac_initTransInfo2
0402bd40 g     F .text	00000080 udp_alloc
040380e4 g     O .rwdata	00000180 alt_fd_list
0403f754 g     O .bss	00000370 OSFlagTbl
0403a4e4 g     O .bss	00000008 mbstat
04030828 g     F .text	00000090 _getc_r
04030790 g     F .text	00000098 getc
0400e9b8 g     F .text	00000050 OS_EventTaskRemove
0402c610 g     F .text	000000bc igmpv2_chk_set_timer
0401a3dc g     F .text	00000008 TK_OSTimeDly
04026128 g     F .text	00000094 alt_find_dev
04009648 g     F .text	000000a0 memcpy
04014c9c g     F .text	0000001c tse_mac_setMIImode
0403a494 g     O .bss	00000004 dsc_rebind
0402711c g     F .text	00000070 task_stats
0401e57c g     F .text	0000001c DOMAIN_CHECK
0401d14c g     F .text	00000008 in_broadcast
04038450 g     O .rwdata	00000002 OSRdyTblSize
04014490 g     F .text	0000001c alt_tse_phy_rd_mdio_addr
0403a574 g     O .bss	00000004 vfsystems
0402bc64 g     F .text	00000088 udp_socket
0403a434 g     O .bss	00000004 MaxMtu
040218a8 g     F .text	000000f0 sock_selscan
04017734 g     F .text	000000c8 triple_speed_ethernet_init
040085cc g     F .text	0000000c _cleanup_r
0400d38c g     F .text	000000f8 __floatsidf
040296f4 g     F .text	00000054 ip_reasm_match_frag_with_ire
04021240 g     F .text	00000014 socantrcvmore
04016dd8 g     F .text	00000098 tse_mac_sTxWrite
04002ec0 g     F .text	00000014 perror
0402635c g     F .text	0000008c alt_io_redirect
0400d304 g     F .text	00000088 __ltdf2
0403a4c0 g     O .bss	00000004 netq_intmask
0402d9a8 g     F .text	0000001c hextoa
04031338 g       *ABS*	00000000 __DTOR_END__
0401e8b8 g     F .text	00000168 t_send
04025e3c g     F .text	000000f0 alt_close
0403a4ec g     O .bss	00000002 select_wait
04002fec g     F .text	00000014 puts
04019bf8 g     F .text	00000030 std_out
04000dcc g     F .text	000000bc NTPInitialTask
04042a78 g     O .bss	00000030 tse_iniche_dev_driver_data
0402eb3c g     F .text	000000c8 vfslookup_locked
040200dc g     F .text	0000006c soaccept
0400efb0 g     F .text	00000128 OSEventNameGet
04038434 g     O .rwdata	00000002 OSFlagMax
04026968 g     F .text	00000008 altera_nios2_irq_init
040433f4 g     O .bss	0000003c tcpmib
0401e508 g     F .text	00000074 t_errno
0402b6bc g     F .text	000000c4 ip_raw_open
0401aab8 g     F .text	000000dc dhc_decline
04009b24 g     F .text	000000b0 __ratio
0400f5e0 g     F .text	000000d0 OSIntExit
04038518 g     O .rwdata	00000004 ipRoutes
0402ea6c g     F .text	0000001c vfeof
040249bc g     F .text	00000014 tcp_canceltimers
0401a954 g     F .text	00000130 dhc_buildheader
0403846e g     O .rwdata	00000002 OSTCBSize
04013fd8 g     F .text	00000050 alt_avalon_sgdma_construct_mem_to_stream_desc_burst
0403a3e1 g     O .bss	00000001 OSPrioCur
0403e754 g     O .bss	00001000 NTPCommandQTbl
040137ec g     F .text	000001c8 altera_avalon_jtag_uart_read
04001f4c g     F .text	00000014 malloc
0403a570 g     O .bss	00000004 inpcb_cachemiss
04002f18 g     F .text	00000034 _printf_r
0402deb8 g     F .text	00000070 inet46_addr
0403a56c g     O .bss	00000004 inpcb_cachehits
0400d82c g     F .text	00000008 __udivsi3
040380a4 g     O .rwdata	0000000b tcp_outflags
04042aa8 g     O .bss	00000130 tse
0400e120 g     F .text	00000084 isatty
040144ac g     F .text	000000e0 alt_tse_sys_enable_mdio_sharing
04038454 g     O .rwdata	00000002 OSStkWidth
04032c10 g     O .rodata	000000c8 __mprec_tens
0402f3e0 g     F .text	00000060 vf_alloc_and_link_vop
04038448 g     O .rwdata	00000002 OSPtrSize
0403a540 g     O .bss	00000004 ipr_curr_mem
04018518 g     F .text	0000005c exit_hook
0403a448 g     O .bss	00000004 igmp_cticks
04014344 g     F .text	00000044 alt_tse_get_mac_info_index
0403a4d4 g     O .bss	00000004 mheap_sem_ptr
04021b78 g     F .text	0000001c ip4_tcpmss
0400930c g     F .text	00000008 __locale_charset
04038428 g     O .rwdata	00000002 OSEventTblSize
040437f0 g     O .bss	00000014 netlist
0403a3a4 g     O .bss	00000008 alt_timezone
0401fd34 g     F .text	00000084 soshutdown
04026970 g       .text	00000000 OSCtxSw
04026c8c g     F .text	00000034 packet_check
0401ab94 g     F .text	0000009c dhc_setip
0402fa34 g     F .text	00000038 alt_icache_flush
04043430 g     O .bss	00000014 mbufq
0401f5e0 g     F .text	0000001c soabort
0403a380 g     O .bss	00000004 __malloc_top_pad
0403a3e4 g     O .bss	00000004 OSTCBList
0401c1d0 g     F .text	000000c4 qdel
04026cc0 g     F .text	00000120 station_state
0402b780 g     F .text	000000f4 rt_lookup
0403a504 g     O .bss	00000004 alt_fd_list_lock
040383fc g     O .rwdata	00000004 __mb_cur_max
04018ac0 g     F .text	00000244 igmp_validate
04009314 g     F .text	0000000c _localeconv_r
040185e0 g     F .text	000001bc ip_startup
0401f134 g     F .text	000001e4 t_accept
040212cc g     F .text	00000050 soisdisconnecting
0400a440 g     F .text	0000003c __i2b
04008ccc g     F .text	0000049c __sfvwrite_r
04013c80 g     F .text	0000001c alt_avalon_sgdma_stop
04017f38 g     F .text	00000284 pktdemux
0403fac4 g     O .bss	00000c30 OSMemTbl
0403a3e8 g     O .bss	00000001 OSTickStepState
0400e428 g     F .text	00000124 settimeofday
04001b7c g     F .text	00000094 setclock
040147cc g     F .text	0000008c alt_tse_phy_wr_mdio_reg
0401c828 g     F .text	000000a4 kbhit
0401ee80 g     F .text	0000011c t_setsockopt
04003000 g     F .text	00000070 _sbrk_r
04038264 g     O .rwdata	00000018 icmpdu_types
04015edc g     F .text	0000021c alt_tse_mac_group_init
0402edac g     F .text	00000160 vunlink
040171a0 g     F .text	0000046c tse_mac_init
0403844c g     O .rwdata	00000002 OSQMax
04019968 g     F .text	00000048 ccksum
0402ef4c g     F .text	00000064 vf_alloc_buffer
0403a564 g     O .bss	00000004 cachedRoute
040384b8 g     O .rwdata	00000004 lilbufs
040406f4 g     O .bss	00000800 OSTaskStatStk
0402d874 g     F .text	00000008 md_ftell
040199b0 g     F .text	0000001c cksum
04010b60 g     F .text	000000d4 OSMemNameGet
040205d8 g     F .text	000000e8 sofree
0403a43c g     O .bss	00000004 ifNumber
0403842c g     O .rwdata	00000002 OSFlagEn
0400b9c0 g     F .text	00000078 _read_r
04038472 g     O .rwdata	00000002 OSTimeTickHookEn
0402f760 g     F .text	00000028 alt_dcache_flush
0401156c g     F .text	000000dc OSQPost
0400fbe0 g     F .text	00000040 OS_FlagUnlink
04036f54 g     O .rwdata	0000000c __lc_ctype
040384f8 g     O .rwdata	00000004 alt_max_fd
0400eb98 g     F .text	00000028 OS_MemCopy
040384c0 g     O .rwdata	00000004 bigbufs
04024f28 g     F .text	000000a8 tcp_disconnect
0400ece4 g     F .text	0000009c OS_Sched
0400dc68 g     F .text	00000138 __unpack_d
0400b740 g     F .text	00000110 _fclose_r
04010af4 g     F .text	0000006c OSMemGet
04012ad4 g     F .text	00000150 OSTaskNameSet
0400844c g     F .text	00000034 fflush
0403a384 g     O .bss	00000004 __malloc_max_sbrked_mem
0403a3ec g     O .bss	00000004 OSCtxSwCtr
04042efc g     O .bss	00000064 igmpstats
04026a60 g     F .text	00000004 OSTimeTickHook
0401b1cc g     F .text	000000d0 dhc_rx_offer
04019608 g     F .text	000000e4 bsd_getsockopt
04038436 g     O .rwdata	00000002 OSFlagNameSize
04043854 g     O .bss	00000018 ire_stats
04025c98 g     F .text	00000110 udp_soinput
0401c294 g     F .text	00000060 putq
0400ea08 g     F .text	00000060 OS_EventTaskRemoveMulti
0403a45c g     O .bss	00000004 iniche_net_ready
0400ca54 g     F .text	00000074 __adddf3
0400e910 g     F .text	000000a8 OS_EventTaskWaitMulti
0402e698 g     F .text	0000004c isvfile
0401f9b8 g     F .text	000002a4 sosetopt
0401a17c g     F .text	000000cc netmain
04021b94 g     F .text	000000ac tcp_mss
04009a04 g     F .text	00000120 __b2d
0402db38 g     F .text	00000298 parse_ipad
0402e59c g     F .text	00000008 get_vfopen_error
0403844e g     O .rwdata	00000002 OSQSize
0400c014 g     F .text	000005b0 __umoddi3
0400e290 g     F .text	0000009c lseek
04026fd8 g     F .text	0000013c inet_timer
04011ba4 g     F .text	000001a8 OSSemPend
04016584 g     F .text	00000280 alt_tse_phy_add_profile_default
040152e4 g     F .text	000002a8 alt_tse_phy_get_cap
040383e0 g     O .rwdata	00000004 _global_impure_ptr
04019a00 g     F .text	00000094 print_eth
0402f694 g     F .text	0000005c vfopen
04026568 g     F .text	0000011c alt_read
0400a9a8 g     F .text	000005f4 _realloc_r
04000bd0 g     F .text	00000180 alt_NetworkErrorHandler
04038438 g     O .rwdata	00000002 OSLowestPrio
04043a74 g       *ABS*	00000000 __bss_end
04026264 g     F .text	00000088 alt_iic_isr_register
04013d34 g     F .text	00000090 alt_avalon_sgdma_do_async_transfer
0401d650 g     F .text	000000fc m_free
04026a5c g     F .text	00000004 OSTCBInitHook
04016f0c g     F .text	00000024 tse_mac_stats
0401bd98 g     F .text	00000174 pk_validate
0403847e g     O .rwdata	00000002 OSTmrCfgTicksPerSec
0400e5e0 g     F .text	000000c0 alt_tick
0402e034 g     F .text	0000016c in_pcblookup
0401bc90 g     F .text	00000050 find_opt
0403a754 g     O .bss	00002000 NTPInitialTaskStk
0400ba38 g     F .text	000005dc __udivdi3
0401dad4 g     F .text	0000012c m_getnbuf
0401bce8 g     F .text	000000b0 dump_buf_estats
04015828 g     F .text	00000154 alt_tse_phy_check_link
0403a530 g     O .bss	00000004 arpRepsOut
04038420 g     O .rwdata	00000002 OSEventEn
04032cd8 g     O .rodata	00000028 __mprec_bigtens
0400a69c g     F .text	00000120 __s2b
0403847a g     O .rwdata	00000002 OSTmrCfgNameSize
0400d55c g     F .text	00000194 __floatunsidf
04026e38 g     F .text	000000b0 netmain_init
04014630 g     F .text	00000098 marvell_cfg_sgmii
04014cf4 g     F .text	000001ac alt_tse_phy_restart_an
04009924 g     F .text	00000060 __mcmp
0403a478 g     O .bss	00000004 dsc_requests
0402466c g     F .text	00000350 tcp_respond
040258e8 g     F .text	000001d8 udp4_sockbind
04038530 g     O .rwdata	00000004 __ctype_ptr
04001f14 g     F .text	00000008 gmtime_r
0403a4c4 g     O .bss	00000004 old_mode
04018f28 g     F .text	0000016c igmp_joingroup
0401d1d4 g     F .text	000001c8 so_icmpdu
040085b4 g     F .text	00000018 __fp_lock_all
0403a584 g     O .bss	00000004 vfs_dir_stale
040261c8 g     F .text	00000018 alt_ic_irq_enabled
04042a68 g     O .bss	00000010 pphy_profiles
0402a064 g     F .text	000000d0 ip_reasm_process_timer_tick
0402e5f4 g     F .text	00000054 vclearerr
04019354 g     F .text	000000d8 bsd_setsockopt
0401d0e0 g     F .text	0000002c mbuf_len
0400fcb0 g     F .text	00000070 OS_FlagInit
0400e5ac g     F .text	00000034 alt_alarm_stop
0402e89c g     F .text	000000ec strippath
040384b0 g     O .rwdata	00000004 reqlist
0401a4c0 g     F .text	00000118 tcp_sleep
04030ee8 g     F .text	00000024 strtol
0401b7d8 g     F .text	0000044c dhc_upcall
04024e6c g     F .text	000000bc tcp_usrclosed
0403848c g     O .rwdata	00000004 ethernet_1_name
0403a4b0 g     O .bss	00000004 cticks_factor
0403845c g     O .rwdata	00000002 OSTaskIdleStkSize
0402e210 g     F .text	00000178 in_pcbbind
0403a508 g     O .bss	00000004 alt_irq_active
04011914 g     F .text	0000004c OSSemAccept
04010d2c g     F .text	00000058 OSMemPut
04010a10 g     F .text	000000e4 OSMemCreate
0403a3f0 g     O .bss	00000004 OSIdleCtrMax
040000ec g     F .exceptions	0000009c alt_irq_handler
040380bc g     O .rwdata	00000028 alt_dev_null
040384d2 g     O .rwdata	00000001 tcprexmtthresh
04038470 g     O .rwdata	00000002 OSTicksPerSec
04028168 g     F .text	00000064 if_killsocks
04029524 g     F .text	00000110 ip_write
0402aba8 g     F .text	00000384 ip_rcv_phase2
0401eba4 g     F .text	00000008 t_getsockname
0401ef9c g     F .text	00000198 t_connect
040384cc g     O .rwdata	00000004 TCPTV_MSL
04043088 g     O .bss	00000010 memestats
04016804 g     F .text	000000f8 alt_tse_phy_init
0401c7f4 g     F .text	00000028 getch
0403835c g     O .rwdata	00000080 vfs_root_path
0401ebac g     F .text	00000008 t_getpeername
040141c4 g     F .text	00000034 alt_avalon_sgdma_check_descriptor_status
04029850 g     F .text	00000060 ip_reasm_decr_mem_useage
04020d90 g     F .text	00000088 soreserve
04026970 g       .text	00000000 OSIntCtxSw
040047a4 g     F .text	00000004 __tz_unlock
0401cdc8 g     F .text	000000d0 npalloc
04025f2c g     F .text	00000018 alt_dcache_flush_all
040097f0 g     F .text	00000070 __hi0bits
0403a560 g     O .bss	00000004 ipraw_eps
0401c00c g     F .text	000001c4 pk_init
0402d8d0 g     F .text	000000d8 md_fread
04030774 g     F .text	0000001c calloc
040177fc g     F .text	000001e0 tse_mac_raw_send
0400d484 g     F .text	000000d8 __fixdfsi
0404368c g     O .bss	00000064 intimers
04020d64 g     F .text	0000002c sbrelease
040216e0 g     F .text	0000008c ifd_clr
04020b08 g     F .text	00000050 sbdroprecord
04019a94 g     F .text	00000034 uslash
04026850 g     F .text	00000118 alt_write
0403a52c g     O .bss	00000004 arpRepsIn
0401aa84 g     F .text	00000034 dhc_get_srv_ipaddr
04026ee8 g     F .text	00000084 in_timerset
0403a3f4 g     O .bss	00000004 OSTCBFreeList
04038534 g       *ABS*	00000000 __ram_rwdata_end
04011d4c g     F .text	0000012c OSSemPendAbort
04023900 g     F .text	00000a5c tcp_output
0403a50c g     O .bss	00000004 activehost
040384f0 g     O .rwdata	00000008 alt_dev_list
04019ac8 g     F .text	00000130 parse_args
0403a4c8 g     O .bss	00000004 global_TCPwakeup_setIndx
040087a4 g     F .text	00000058 _fputc_r
04017d04 g     F .text	00000014 write
04013c50 g     F .text	00000030 alt_avalon_sgdma_enable_desc_poll
0401cce4 g     F .text	000000a8 npfree
0400a8c0 g     F .text	000000e8 _putc_r
04027688 g     F .text	00000200 arpReply
040199cc g     F .text	00000034 nextarg
04038474 g     O .rwdata	00000002 OSVersionNbr
0402a50c g     F .text	000003c8 ip_reasm_process_subsequent_fragments
04038528 g     O .rwdata	00000004 pton_error
0403a46c g     O .bss	00000004 dsc_errors
040383f4 g     O .rwdata	00000008 _tzname
040001d4 g     F .text	000004f8 alt_NTPErrorHandler
04042bd8 g     O .bss	00000014 rcvdq
0402176c g     F .text	00000040 tcp_notify
040366f4 g       *ABS*	00000000 __ram_rodata_end
0400de88 g     F .text	00000090 fstat
04001dc4 g     F .text	0000002c fprintf
0401f63c g     F .text	00000098 soconnect
0402b3c0 g     F .text	00000028 ip_raw_maxalloc
04001d60 g     F .text	0000001c ctime
040143fc g     F .text	00000028 DP83848C_link_status_read
0401b29c g     F .text	0000026c dhc_discover
0402e1a0 g     F .text	00000038 in_setpeeraddr
0403841c g     O .rwdata	00000004 OSEndiannessTest
0401c740 g     F .text	00000024 clock_init
0402ea88 g     F .text	000000b4 vfgets
0402795c g     F .text	0000013c et_send
0400a57c g     F .text	00000120 __pow5mult
0403a398 g     O .bss	00000004 __nlocale_changed
0400d834 g     F .text	00000008 __umodsi3
0402de60 g     F .text	00000058 inet_addr
04029794 g     F .text	0000005c ip_reasm_check_mem_useage
0401fc5c g     F .text	000000d8 sorflush
04030f20 g     F .text	00000020 vprintf
0404319c g     O .bss	000000fc global_tcb_ext
04028708 g     F .text	000002d0 ip_fragment_lc
04042bec g     O .bss	00000300 netstatic
0401f3a8 g     F .text	00000104 t_bind
04014028 g     F .text	00000040 alt_avalon_sgdma_construct_mem_to_stream_desc
0403842e g     O .rwdata	00000002 OSFlagGrpSize
0401c36c g     F .text	0000009c udp_close
04013b8c g     F .text	00000010 alt_avalon_sgdma_register_callback
0401cedc g     F .text	00000120 alt_iniche_init
04043a74 g       *ABS*	00000000 end
0401c92c g     F .text	00000060 UNLOCK_NET_RESOURCE
0401ec98 g     F .text	000000d8 t_recv
0401760c g     F .text	00000128 prep_tse_mac
0402ec50 g     F .text	00000128 vfread
040181bc g     F .text	000000c4 netclose
0403075c g     F .text	0000000c _atoi_r
0401643c g     F .text	00000148 alt_tse_phy_add_profile
040384dc g     O .rwdata	00000004 tcp_keepintvl
040134fc g     F .text	000000c8 altera_avalon_jtag_uart_init
0400f8fc g     F .text	00000090 OS_TaskStat
0403a470 g     O .bss	00000004 dsc_discovers
0403805c g     O .rwdata	00000018 tcp_protosw
04031334 g       *ABS*	00000000 __CTOR_LIST__
0403a580 g     O .bss	00000004 vfopen_error
06000000 g       *ABS*	00000000 __alt_stack_pointer
0403a4fc g     O .bss	00000004 tcp_maxidle
0403a49c g     O .bss	00000004 firstudp
04013c30 g     F .text	00000020 alt_avalon_sgdma_disable_desc_poll
040141f8 g     F .text	00000050 alt_avalon_timer_sc_init
0400d8d4 g     F .text	00000080 __clzsi2
0400b0c8 g     F .text	000000b4 _snprintf_r
040139b4 g     F .text	000001d8 altera_avalon_jtag_uart_write
04014120 g     F .text	00000038 alt_avalon_sgdma_construct_mem_to_mem_desc
040084d8 g     F .text	00000004 __sfp_lock_acquire
04009564 g     F .text	000000e4 memchr
0400eb78 g     F .text	00000020 OS_MemClr
04004808 g     F .text	00001eac ___vfprintf_internal_r
04026a64 g     F .text	000001cc OSTaskStkInit
0400b1f0 g     F .text	00000060 _sprintf_r
040140b0 g     F .text	00000028 alt_avalon_sgdma_construct_stream_to_mem_desc
040089b8 g     F .text	00000314 _free_r
0402c6cc g     F .text	0000009c igmpv2_chk4_rtr_alert_opt
0401e598 g     F .text	00000074 t_socketclose
0400ea68 g     F .text	000000f4 OS_EventTaskRdy
0403092c g     F .text	0000004c __srget_r
04006818 g     F .text	000001b0 __call_exitprocs
040015f0 g     F .text	00000430 encode_ntp_data
040179dc g     F .text	000001cc tse_sgdmaRx_isr
0403a3f8 g     O .bss	00000001 OSCPUUsage
04042eec g     O .bss	00000010 nets
0401ca40 g     F .text	000000cc LOCK_NET_RESOURCE
0401a640 g     F .text	00000038 dhc_resetip
0403a39c g     O .bss	00000004 __mlocale_changed
04016f30 g     F .text	00000160 tse_mac_rcv
0401f4ac g     F .text	00000078 t_socket
040383e8 g     O .rwdata	00000004 __malloc_sbrk_base
04000188 g     F .text	0000004c _start
04028058 g     F .text	00000038 etainit
0403a3c0 g     O .bss	00000004 _alt_tick_rate
04026c4c g     F .text	00000008 mcastlist
04011280 g     F .text	000001c4 OSQPend
04043098 g     O .bss	000000f0 pktlog
0402c8ac g     F .text	000000f0 igmpv2_process_report
04021640 g     F .text	0000003c ifd_isset
0402b874 g     F .text	00000124 del_route
04014158 g     F .text	0000006c alt_avalon_sgdma_open
040047a8 g     F .text	00000008 _user_strerror
04012fd0 g     F .text	000000a4 OSTimeDly
04000f30 g     F .text	00000008 get_mac_addr
0401f540 g     F .text	000000a0 solisten
0400a10c g     F .text	0000014c __lshift
0403a3c4 g     O .bss	00000004 _alt_nticks
04014424 g     F .text	0000006c alt_tse_phy_rd_mdio_reg
04017ccc g     F .text	00000038 read
040132bc g     F .text	000000fc alt_sys_init
04024380 g     F .text	00000014 tcp_quench
04019c70 g     F .text	0000013c ns_printf
04028090 g     F .text	00000078 isbcast
0401cb0c g     F .text	00000178 TK_NEWTASK
04030fb4 g     F .text	00000134 __register_exitproc
0403a3f9 g     O .bss	00000001 OSTaskCtr
04029748 g     F .text	0000004c ip_reasm_determine_type_of_frag
0403a428 g     O .bss	00000001 phy_profile_count
04030af8 g     F .text	000000f0 strncmp
040142f8 g     F .text	0000004c alt_tse_get_mac_group_index
04013074 g     F .text	00000120 OSTimeDlyHMSM
040266b8 g     F .text	00000028 alt_remap_uncached
0402b64c g     F .text	00000070 ip_raw_close
0400a258 g     F .text	000001e8 __multiply
040382ac g     O .rwdata	000000b0 mdlist
04013414 g     F .text	00000034 altera_avalon_jtag_uart_close
040191d8 g     F .text	000000c8 igmp_input
04029294 g     F .text	00000084 ip_raw_write
040366f4 g       *ABS*	00000000 __ram_rwdata_start
0402efb0 g     F .text	0000023c vfwrite_locked
04030be8 g     F .text	000000bc strncpy
04031338 g       *ABS*	00000000 __ram_rodata_start
0403a474 g     O .bss	00000004 dsc_offers
0403a598 g     O .bss	00000028 __malloc_current_mallinfo
04038422 g     O .rwdata	00000002 OSEventMax
0402d9c4 g     F .text	00000028 inet_setport
04009e04 g     F .text	0000017c __d2b
04011e78 g     F .text	000000b4 OSSemPost
04021e50 g     F .text	00000108 tcp_dooptions
0402131c g     F .text	000000a4 soisconnected
04001a20 g     F .text	00000054 init_ntp_data_gram
0400f6f8 g     F .text	00000058 OSSchedUnlock
0402b310 g     F .text	00000024 netexit
0403a458 g     O .bss	00000004 nettick_wakes
04014858 g     F .text	00000024 alt_tse_phy_wr_mdio_addr
0403a4f0 g     O .bss	00000001 tcpprintfs
04026f6c g     F .text	0000006c in_timerkill
0402c99c g     F .text	000000d4 igmpv2_input
0403a484 g     O .bss	00000004 dsc_declines
04013404 g     F .text	00000010 altera_avalon_jtag_uart_read_fd
04019c28 g     F .text	0000001c do_trap
0402f954 g     F .text	000000e0 alt_get_fd
0401956c g     F .text	0000009c bsd_ioctl
0403a3fc g     O .bss	00000004 OSMemFreeList
0400f750 g     F .text	00000064 OSStatInit
0401dc00 g     F .text	00000140 tcp_rcv
04019c44 g     F .text	0000002c panic
0403a588 g     O .bss	00000004 vfs_open_files
0402f6f8 g     F .text	00000068 alt_busy_sleep
04017d64 g     F .text	00000140 ip2mac
0400fd20 g     F .text	00000068 OSFlagQuery
0400dda0 g     F .text	000000c8 __fpcmp_parts_d
040217ac g     F .text	000000fc sock_select
0402d600 g     F .text	000001ec dhc_setup
0402435c g     F .text	00000024 tcp_init
0403a4cc g     O .bss	00000004 cticks
0403a461 g     O .bss	00000001 to_nettick
04038458 g     O .rwdata	00000002 OSTaskCreateExtEn
0400b6d0 g     F .text	00000070 _close_r
04018280 g     F .text	00000238 Netinit
0401ced8 g     F .text	00000004 prep_armintcp
0402b1f0 g     F .text	00000110 in_addmulti
040245d0 g     F .text	0000009c tcp_template
0401558c g     F .text	00000280 alt_tse_phy_get_common_speed
0401d10c g     F .text	00000020 remque
04030f0c g     F .text	00000014 _vprintf_r
04021f58 g     F .text	0000027c tcp_reass
0402df28 g     F .text	0000010c tcp_cksum
040256bc g     F .text	0000022c udp4_socksend
0402f268 g     F .text	00000138 vfclose_locked
040216b4 g     F .text	0000002c ifd_set
040308b8 g     F .text	00000074 memcmp
0400e888 g     F .text	00000004 OS_Dummy
040133e4 g     F .text	00000010 altera_avalon_jtag_uart_close_fd
0401a718 g     F .text	00000028 dhc_set_state
0403a438 g     O .bss	00000004 NDEBUG
04043a74 g       *ABS*	00000000 __alt_stack_base
040133d8 g     F .text	0000000c altera_avalon_jtag_uart_ioctl_fd
04020ae8 g     F .text	00000020 sbreserve
0403a429 g     O .bss	00000001 mac_group_count
0402b4b0 g     F .text	0000019c ip_raw_input
04001e24 g     F .text	0000009c _fwrite_r
040384bc g     O .rwdata	00000004 lilbufsiz
0402167c g     F .text	00000038 ifd_get
040211d8 g     F .text	00000068 sbwakeup
040066d8 g     F .text	0000013c __swsetup_r
04040ef4 g     O .bss	000001e0 OSQTbl
04021c40 g     F .text	00000154 tcp_xmit_timer
04017090 g     F .text	00000110 tse_sgdma_read_init
0400ce8c g     F .text	00000258 __divdf3
04008650 g     F .text	000000f0 __sfp
04000eac g     F .text	00000084 generate_mac_addr
040284b0 g     F .text	000000b8 ip_bldhead
04009c68 g     F .text	00000058 __copybits
04020fe4 g     F .text	00000084 sbappend
04036b0c g     O .rwdata	00000408 __malloc_av_
040084e4 g     F .text	00000004 __sinit_lock_release
0403a400 g     O .bss	00000004 OSTCBHighRdy
0400cac8 g     F .text	000003c4 __muldf3
04029318 g     F .text	0000020c ip_write2
0400b33c g     F .text	00000060 __sread
04038514 g     O .rwdata	00000004 arp_ageout
0403a404 g     O .bss	00000004 OSQFreeList
04015c28 g     F .text	000002b4 alt_tse_mac_get_phy
04029634 g     F .text	000000c0 ip_init
0402f8a4 g     F .text	000000b0 alt_find_file
0402b3e8 g     F .text	00000040 ip_raw_free
04027888 g     F .text	000000d4 make_arp_entry
04025f4c g     F .text	000000b4 alt_dev_llist_insert
0400e7b8 g     F .text	000000c8 __malloc_lock
04001df0 g     F .text	00000034 _fprintf_r
0400e3d4 g     F .text	00000054 sbrk
040255a8 g     F .text	0000002c udp_lookup
04013c9c g     F .text	00000018 alt_avalon_sgdma_start
0400f0d8 g     F .text	0000013c OSEventNameSet
04008250 g     F .text	000001fc _fflush_r
04014be8 g     F .text	0000003c alt_tse_mac_set_duplex
0400b61c g     F .text	000000b4 _calloc_r
0403a408 g     O .bss	00000001 OSRdyGrp
0402d830 g     F .text	00000008 md_fopen
04038074 g     O .rwdata	00000018 udp_protosw
040047a0 g     F .text	00000004 __tz_lock
0402e1d8 g     F .text	00000038 in_setsockaddr
0400df18 g     F .text	00000208 gettimeofday
0403a374 g       *ABS*	00000000 __bss_start
040069f4 g     F .text	00000090 asctime_r
04020f44 g     F .text	000000a0 sbappendrecord
04043804 g     O .bss	00000050 ip_mib
04001f1c g     F .text	00000014 localtime
040026a0 g     F .text	00000098 memset
0401f5fc g     F .text	00000040 sodisconnect
04000d50 g     F .text	0000007c main
0403a3bc g     O .bss	00000004 alt_envp
0403a388 g     O .bss	00000004 __malloc_max_total_mem
0401cffc g     F .text	000000e4 m_adj
040133f4 g     F .text	00000010 altera_avalon_jtag_uart_write_fd
0400b588 g     F .text	0000001c __swbuf
0402d87c g     F .text	0000004c md_fgetc
04032e76 g     O .rodata	00000100 OSUnMapTbl
04028568 g     F .text	000001a0 ip_dump
0401a248 g     F .text	0000018c tk_stats
0403849c g     O .rwdata	00000008 alt_iniche_dev_list
0403a374 g     O .bss	00000001 to_ntp_task
04038490 g     O .rwdata	00000008 alt_sgdma_list
04038452 g     O .rwdata	00000002 OSSemEn
0403a4b4 g     O .bss	00000004 OS_TPS
0401df4c g     F .text	00000490 rawip_usrreq
04010724 g     F .text	00000220 OSFlagPost
0400b250 g     F .text	00000008 __sclose
0402daac g     F .text	00000020 print46_addr
06000000 g       *ABS*	00000000 __alt_heap_limit
0403a37c g     O .bss	00000004 lcd_sem
0400b850 g     F .text	00000014 fclose
0400e88c g     F .text	00000084 OS_EventTaskWait
04030ca4 g     F .text	00000244 _strtol_r
04019f68 g     F .text	000000e0 print_uptime
0400ec50 g     F .text	00000094 OS_TaskStatStkChk
040438e4 g     O .bss	00000190 _atexit0
040128d0 g     F .text	000000b8 OSTaskDelReq
04006c9c g     F .text	000015b4 _dtoa_r
04001f60 g     F .text	00000740 _malloc_r
0402d8c8 g     F .text	00000008 md_unlink
04014cb8 g     F .text	0000003c tse_mac_SwReset
0402e4cc g     F .text	00000038 in_pcbdetach
040384fc g     O .rwdata	00000004 alt_errno
04038524 g     O .rwdata	00000004 mdlist_size
0400ed80 g     F .text	00000054 OSStart
0402d53c g     F .text	0000000c u_mctest_init
0400e6a0 g     F .text	00000028 __env_unlock
04009230 g     F .text	000000b8 _fwalk
04012c24 g     F .text	00000118 OSTaskResume
040109ac g     F .text	00000064 OSMemQuery
0402d9ec g     F .text	000000c0 convert_ip
04027448 g     F .text	0000014c find_oldest_arp
04038464 g     O .rwdata	00000002 OSTaskStatEn
0403a524 g     O .bss	00000004 arpReqsIn
0402ed78 g     F .text	00000034 vf_free_buffer
0402f788 g     F .text	0000011c alt_fcntl
0403843e g     O .rwdata	00000002 OSMemMax
04011648 g     F .text	000000e0 OSQPostFront
0401c81c g     F .text	0000000c dtrap
040384c8 g     O .rwdata	00000004 kb_last
0400a7bc g     F .text	00000104 putc
0400d76c g     F .text	00000060 __divsi3
040152b8 g     F .text	0000002c alt_tse_mac_set_common_speed
0403a409 g     O .bss	00000003 OSRdyTbl
04038418 g     O .rwdata	00000002 OSDebugEn
04032d34 g     O .rodata	00000014 __thenan_df
04018574 g     F .text	0000006c ip_exit
0400888c g     F .text	0000012c _malloc_trim_r
04031338 g       *ABS*	00000000 __CTOR_END__
04038430 g     O .rwdata	00000002 OSFlagNodeSize
0403a468 g     O .bss	00000004 dhc_conn
0401c768 g     F .text	0000003c cticks_hook
04038478 g     O .rwdata	00000002 OSTmrCfgMax
04026c30 g     F .text	0000001c sysuptime
0400b39c g     F .text	000000bc strcmp
04029f30 g     F .text	00000134 ip_reasm_delete_ire
04010f34 g     F .text	00000108 OSQCreate
0401c7c4 g     F .text	00000030 irq_Mask
04012988 g     F .text	0000014c OSTaskNameGet
0403a514 g     O .bss	00000004 nextppp
0403a4a4 g     O .bss	00000004 irq_level
04017ea4 g     F .text	00000094 fixup_subnet_mask
04031338 g       *ABS*	00000000 __flash_rodata_start
04011728 g     F .text	00000180 OSQPostOpt
0400f7b4 g     F .text	00000114 OSTimeTick
04028214 g     F .text	000000cc ip_copypkt
0401a6bc g     F .text	00000034 dhc_alldone
04038460 g     O .rwdata	00000002 OSTaskMax
04031338 g       *ABS*	00000000 __DTOR_LIST__
04011960 g     F .text	000000a0 OSSemCreate
0403a44c g     O .bss	00000004 igmp_all_hosts_group
04038484 g     O .rwdata	00000002 OSTmrWheelSize
04020ad8 g     F .text	00000010 sbselqueue
0403a454 g     O .bss	00000004 netmain_wakes
04027ee0 g     F .text	00000178 arprcv
0401a5d8 g     F .text	00000050 TK_OSTaskResume
04018814 g     F .text	000002ac igmp_print_stats
0400d16c g     F .text	00000088 __nedf2
0401d57c g     F .text	0000006c pffindtype
0403845a g     O .rwdata	00000002 OSTaskDelEn
040384e0 g     O .rwdata	00000004 tcp_sendspace
0402e6e4 g     F .text	000000bc vftell
04042f60 g     O .bss	00000012 eth_prt_buf
04011f2c g     F .text	00000074 OSSemQuery
0401103c g     F .text	000001ec OSQDel
04011444 g     F .text	00000128 OSQPendAbort
040133b8 g     F .text	00000020 alt_irq_init
0401580c g     F .text	0000001c alt_tse_mac_get_common_speed
040433c8 g     O .bss	00000018 app_semaphore
04026684 g     F .text	00000024 alt_release_fd
0401c8cc g     F .text	00000060 post_app_sem
0401879c g     F .text	00000078 igmp_init
0400b17c g     F .text	00000074 sprintf
04032d48 g     O .rodata	00000100 __clz_tab
0403a490 g     O .bss	00000004 dsc_renew
0402d83c g     F .text	00000030 md_fwrite
0403a3a0 g     O .bss	00000004 _PathLocale
0403a4b8 g     O .bss	00000004 tcp_sleep_count
0401d12c g     F .text	00000020 insque
04030748 g     F .text	00000014 atexit
0403a57c g     O .bss	00000004 vfsfiles
0400b5a4 g     F .text	00000078 _write_r
04030f40 g     F .text	00000050 _vsprintf_r
0402bdc0 g     F .text	000001dc udp_send
0400f6b0 g     F .text	00000048 OSSchedLock
04018d04 g     F .text	000001f0 igmp_send
040093b4 g     F .text	0000001c setlocale
0400ff2c g     F .text	00000090 OSFlagCreate
0401c7a4 g     F .text	00000020 irq_Unmask
0401f318 g     F .text	00000090 t_listen
040383dc g     O .rwdata	00000004 _impure_ptr
0403a3b4 g     O .bss	00000004 alt_argc
040250dc g     F .text	000004c8 tcp_usrreq
04025ac0 g     F .text	000001d8 udp_usrreq
0401ce98 g     F .text	00000040 ncpalloc
04042978 g     O .bss	000000e0 ethernet_1_if
040260c4 g     F .text	00000064 _do_dtors
0403842a g     O .rwdata	00000002 OSEventMultiEn
0403850c g     O .rwdata	00000004 pingdelay
04027e98 g     F .text	00000048 arp_send_pending
0402c440 g     F .text	000001d0 igmpv1_input
040310e8 g     F .text	000001c4 __srefill_r
0401cc84 g     F .text	00000058 pre_task_setup
0403a4d8 g     O .bss	00000004 rcvdq_sem_ptr
040196ec g     F .text	000000d8 bsd_getsockname
040298d4 g     F .text	00000110 ip_reasm_mark_compact_rfq
0400ffbc g     F .text	000001b4 OSFlagDel
0403a40c g     O .bss	00000004 OSEventFreeList
0401a628 g     F .text	00000018 dhc_set_callback
04000020 g       .exceptions	00000000 alt_irq_entry
0403a520 g     O .bss	00000004 arpcache
0402fcc4 g     F .text	000002ac icmp_destun
0402b100 g     F .text	00000024 lookup_mcast
04001c10 g     F .text	00000008 SOFT_PHY_link_status_read
0402ec04 g     F .text	0000004c vfslookup
0402a91c g     F .text	0000028c ip_demux
04009984 g     F .text	00000080 __ulp
0400af9c g     F .text	00000040 __isinfd
0403a4bc g     O .bss	00000004 tcp_wakeup_count
040103b8 g     F .text	00000340 OSFlagPend
04038476 g     O .rwdata	00000002 OSTmrEn
0400859c g     F .text	00000018 __fp_unlock_all
0401c98c g     F .text	000000b4 wait_app_sem
04008740 g     F .text	00000064 fputc
040384a4 g     O .rwdata	00000004 ipmcfail_str
0403a4d0 g     O .bss	00000004 memtrapsize
0401dd40 g     F .text	000001e0 m_copy
040384e8 g     O .rwdata	00000008 alt_fs_list
04000b94 g     F .text	0000003c alt_ucosii_check_return_code
04043444 g     O .bss	00000014 mfreeq
0400ebf8 g     F .text	00000034 OS_StrCopy
0401f524 g     F .text	0000001c sobind
0402d7ec g     F .text	00000044 init_memdev
0401d47c g     F .text	00000100 nptcp_init
0403a3ac g     O .bss	00000008 alt_resettime
0403a390 g     O .bss	00000004 _timezone
04001f30 g     F .text	00000008 localtime_r
04038440 g     O .rwdata	00000002 OSMemNameSize
04043298 g     O .bss	000000f0 global_TCPwakeup_set
04026a54 g     F .text	00000004 OSInitHookEnd
04021268 g     F .text	00000064 soisdisconnected
04000020 g       *ABS*	00000000 __ram_exceptions_start
04003870 g     F .text	00000ebc strftime
040273e4 g     F .text	00000064 arp_free_pending
0403846c g     O .rwdata	00000002 OSTCBPrioTblMax
04009320 g     F .text	00000010 localeconv
040206c0 g     F .text	0000022c soclose
04043188 g     O .bss	00000014 bigfreeq
04038468 g     O .rwdata	00000002 OSTaskStatStkChkEn
04038508 g     O .rwdata	00000004 prompt
040384d8 g     O .rwdata	00000004 tcp_keepidle
0401487c g     F .text	0000010c alt_tse_phy_set_adv_10
0401e3dc g     F .text	0000012c rawip_soinput
0403a378 g     O .bss	00000004 NTPCommandQ
04026260 g     F .text	00000004 alt_ic_isr_register
0402f1ec g     F .text	0000007c vfwrite
0403843c g     O .rwdata	00000002 OSMemEn
04020a14 g     F .text	00000040 soqinsque
0403a558 g     O .bss	00000004 so_evtmap_delete
04001ec0 g     F .text	00000040 fwrite
04038446 g     O .rwdata	00000002 OSMutexEn
0403a544 g     O .bss	00000004 h_ireq
04038534 g       *ABS*	00000000 _edata
040289d8 g     F .text	000003f0 ip_fragment
04017bb8 g     F .text	00000114 iniche_devices_init
04043458 g     O .bss	00000028 tcp_saveti
04019dac g     F .text	000000b8 con_page
04043a74 g       *ABS*	00000000 _end
0401f6e4 g     F .text	000002d4 sogetopt
0403a410 g     O .bss	00000001 OSIntNesting
04015a58 g     F .text	000001d0 alt_tse_mac_associate_phy
0403802c g     O .rwdata	00000030 nettasks
0401bce0 g     F .text	00000008 pk_get_max_intrsafe_buf_len
040282e0 g     F .text	00000158 iproute
0401d39c g     F .text	00000088 np_stripoptions
0403a55c g     O .bss	00000001 so_evtmap
04000188 g       *ABS*	00000000 __ram_exceptions_end
04013764 g     F .text	00000088 altera_avalon_jtag_uart_ioctl
040087fc g     F .text	00000074 _fputs_r
04013194 g     F .text	00000104 OSTimeDlyResume
0402b998 g     F .text	00000278 add_route
0401028c g     F .text	0000012c OSFlagNameSet
04017d18 g     F .text	0000004c c_older
04020d00 g     F .text	00000064 sbflush
0402d838 g     F .text	00000004 md_fclose
0401a3d4 g     F .text	00000008 tk_yield
04012d3c g     F .text	0000011c OSTaskStkChk
04026220 g     F .text	00000040 alt_ic_irq_disable
0401fdb8 g     F .text	00000324 sosend
04038442 g     O .rwdata	00000002 OSMemSize
04028438 g     F .text	00000078 ip_mymach
04013f90 g     F .text	00000048 alt_avalon_sgdma_construct_descriptor
0400b2c0 g     F .text	0000007c __swrite
0403a4a0 g     O .bss	00000004 cticks_initialized
04038510 g     O .rwdata	00000004 deflength
040383e4 g     O .rwdata	00000004 __malloc_trim_threshold
0401e710 g     F .text	000001a8 t_sendto
04002e54 g     F .text	0000006c _perror_r
0403a414 g     O .bss	00000004 OSTCBCur
040208ec g     F .text	00000128 socreate
04001d8c g     F .text	00000038 exit
040436f0 g     O .bss	00000100 arp_table
040011cc g     F .text	00000424 decode_ntp_data
0403a594 g     O .bss	00000004 icmpdu_hook
04038444 g     O .rwdata	00000002 OSMemTblSize
04009168 g     F .text	000000c8 _fwalk_reent
04027114 g     F .text	00000008 create_apptasks
040384d4 g     O .rwdata	00000004 tcp_ttl
04009f80 g     F .text	0000018c __mdiff
0401cd8c g     F .text	00000030 ncpfree
0400d7cc g     F .text	00000060 __modsi3
0403a430 g     O .bss	00000004 MaxLnh
04014c80 g     F .text	0000001c tse_mac_setGMIImode
0402dacc g     F .text	0000006c inet_ntop
0402bcec g     F .text	00000014 udp_maxalloc
040146c8 g     F .text	00000098 marvell_cfg_gmii
06000000 g       *ABS*	00000000 __alt_data_end
04000020 g     F .exceptions	00000000 alt_exception
040084dc g     F .text	00000004 __sfp_lock_release
0400edd4 g     F .text	000001dc OSInit
04000000 g       *ABS*	00000000 __alt_mem_sdram
0401597c g     F .text	000000dc alt_tse_phy_cfg_pcs
04011fd0 g     F .text	00000104 OSTaskQuery
040366f4 g     O .rwdata	00000018 ntp_task
04026de0 g     F .text	00000058 icmp_port_du
0403a500 g     O .bss	00000004 tcp_iss
04010d84 g     F .text	00000050 OS_QInit
04030768 g     F .text	0000000c atoi
040384c4 g     O .rwdata	00000004 bigbufsiz
0400ec2c g     F .text	00000024 OS_StrLen
04024394 g     F .text	00000024 tcp_putseq
04010c34 g     F .text	000000f8 OSMemNameSet
04036470 g     O .rodata	00000101 _ctype_
04021068 g     F .text	00000170 sbappendaddr
0403a58c g     O .bss	00000004 vfs_total_rw_space
0402cb3c g     F .text	0000008c ip_getmoptions
0403845e g     O .rwdata	00000002 OSTaskProfileEn
0402bc10 g     F .text	00000054 udpswap
0403a418 g     O .bss	00000004 OSTime
0403a4dc g     O .bss	00000004 nextslow
04024cb0 g     F .text	000001bc tcp_slowtimo
04024544 g     F .text	0000008c tcp_newtcpcb
04027d84 g     F .text	00000114 send_via_arp
0401bc24 g     F .text	0000006c dhc_init
040298b0 g     F .text	00000024 ip_reasm_find_ire
040410d4 g     O .bss	00000800 OSTaskIdleStk
0402e5d0 g     F .text	00000024 isvfile_locked
0400afdc g     F .text	00000030 __isnand
0400de68 g     F .text	00000020 _exit
0401942c g     F .text	00000044 bsd_select
04025da8 g     F .text	00000094 alt_alarm_start
04010170 g     F .text	0000011c OSFlagNameGet
0402bd00 g     F .text	00000040 udp_free
0401c2f4 g     F .text	00000078 getq
0402f6f0 g     F .text	00000008 prep_vfs
04013298 g     F .text	00000024 OSTimeGet
04038504 g     O .rwdata	00000004 name
04001f00 g     F .text	00000014 gmtime
04020b58 g     F .text	00000094 sbdropend
0400d83c g     F .text	00000098 __muldi3
040093d0 g     F .text	00000194 __smakebuf_r
04027594 g     F .text	000000f4 cb_arpent_tmo
0400472c g     F .text	00000074 strlen
0402ca70 g     F .text	000000cc IPADDR_TO_NETP
04019568 g     F .text	00000004 bsd_inet_ntoa
04026a48 g     F .text	00000004 OSTaskSwHook
040263e8 g     F .text	00000180 open
0401c408 g     F .text	000001a4 udp_open
040418d4 g     O .bss	00000b40 OSEventTbl
04021254 g     F .text	00000014 socantsendmore
0403a590 g     O .bss	00000004 vfs_total_dyna_files
0400d27c g     F .text	00000088 __gedf2
04042414 g     O .bss	00000510 OSTCBTbl
0403a528 g     O .bss	00000004 arpReqsOut
040118a8 g     F .text	0000006c OSSemSet
0403852c g     O .rwdata	00000004 http_root_path
0401a758 g     F .text	000001a4 dhc_extract_opts
04029c2c g     F .text	00000304 ip_reasm_compute_overlap
040069c8 g     F .text	00000018 abs
04016d74 g     F .text	00000064 tse_mac_aRxRead
040261bc g     F .text	0000000c alt_icache_flush_all
0403098c g     F .text	000000e0 strchr
04001188 g     F .text	00000044 NTPCreateOSDataStructs
04042f72 g     O .bss	00000012 ipreturn
0403a54c g     O .bss	00000004 port_prep
040380af g     O .rwdata	0000000d tcp_backoff
040213c0 g     F .text	00000020 soisconnecting
04008870 g     F .text	0000001c fputs
04038500 g     O .rwdata	00000004 alt_priority_mask
0402c768 g     F .text	00000144 igmpv2_process_query
04021998 g     F .text	000001e0 t_select
04011a00 g     F .text	000001a4 OSSemDel
040255d4 g     F .text	000000e8 udp4_sockaddr
0403a41c g     O .bss	00000004 OSFlagFreeList
0402e388 g     F .text	00000144 in_pcbconnect
0403a4f4 g     O .bss	00000004 dropline
0403a548 g     O .bss	00000004 ire_cticks
040261e0 g     F .text	00000040 alt_ic_irq_enable
04038424 g     O .rwdata	00000002 OSEventNameSize
040066b4 g     F .text	00000024 __vfprintf_internal
0401a0f8 g     F .text	00000084 tk_netmain
0402e504 g     F .text	00000024 in_pcbdisconnect
0403a420 g     O .bss	00000001 OSStatRdy
04042924 g     O .bss	00000054 OSTCBPrioTbl
0400e6c8 g     F .text	00000090 __env_lock
0403846a g     O .rwdata	00000002 OSTaskSwHookEn
04038288 g     O .rwdata	00000024 mdio
04014c24 g     F .text	0000005c alt_tse_mac_set_speed
0401989c g     F .text	000000cc bsd_accept
040140d8 g     F .text	00000048 alt_avalon_sgdma_construct_mem_to_mem_desc_burst
040384e4 g     O .rwdata	00000004 tcp_recvspace
0403c754 g     O .bss	00002000 lcddisplaytime_task_stack
0400c9d4 g     F .text	00000080 __subdf3
040255a4 g     F .text	00000004 tcpinit
0403a450 g     O .bss	00000004 igmp_all_rtrs_group
0401df20 g     F .text	0000002c rawip_lookup
0402718c g     F .text	00000054 fcntl
04009860 g     F .text	000000c4 __lo0bits
04020e18 g     F .text	0000012c sbcompress
04002738 g     F .text	00000234 __tzcalc_limits
04038408 g     O .rwdata	00000008 alt_alarm_list
040244a4 g     F .text	000000a0 tcp_drop
04038432 g     O .rwdata	00000002 OSFlagWidth
04026060 g     F .text	00000064 _do_ctors
04014988 g     F .text	00000154 alt_tse_phy_set_adv_100
040249d0 g     F .text	000002e0 tcp_timers
040184b8 g     F .text	00000060 if_netnumber
0402cbc8 g     F .text	00000078 ip_freemoptions
0401f6d4 g     F .text	00000010 sohasoutofband
040221d4 g     F .text	00001678 tcp_input
040197c4 g     F .text	000000d8 bsd_getpeername
04019470 g     F .text	000000f8 bsd_recvfrom
04017ba8 g     F .text	00000010 close
0403a480 g     O .bss	00000004 dsc_bpreplys
0403a3cc g     O .bss	00000004 alt_envsem
0403a424 g     O .bss	00000004 OSIdleCtrRun
0400e880 g     F .text	00000008 OSVersion
0403847c g     O .rwdata	00000002 OSTmrCfgWheelSize
0400e1a4 g     F .text	00000080 alt_load
04011fa0 g     F .text	00000030 OS_TaskStkClr
0402e594 g     F .text	00000008 set_vfopen_error
0400d954 g     F .text	00000314 __pack_d
04038456 g     O .rwdata	00000002 OSTaskCreateEn
040142b8 g     F .text	00000040 alt_tse_get_system_index
0403808c g     O .rwdata	00000018 rawip_protosw
040213e0 g     F .text	0000003c sbwait
0400eb5c g     F .text	0000001c OS_EventWaitListInit
0401b508 g     F .text	000002d0 dhc_second
04013b9c g     F .text	00000094 alt_avalon_sgdma_init
0403a518 g     O .bss	00000004 port_1s_callout
040092e8 g     F .text	0000000c __gettzinfo
04026a58 g     F .text	00000004 OSTaskIdleHook
0400296c g     F .text	000004e8 _mktm_r
04001f38 g     F .text	00000014 free
040084e0 g     F .text	00000004 __sinit_lock_acquire
0403a42c g     O .bss	00000001 number_of_tse_mac
0400a47c g     F .text	00000100 __multadd
04012e58 g     F .text	00000154 OSTaskSuspend
040097c8 g     F .text	00000028 _Bfree
04014284 g     F .text	00000018 no_printf
0402141c g     F .text	0000017c sonewconn
0402ff70 g     F .text	000007d8 icmprcv
0401d5e8 g     F .text	00000068 pffindproto
0400f8c8 g     F .text	00000034 OS_TaskIdle
04038482 g     O .rwdata	00000002 OSTmrTblSize
04010dd4 g     F .text	000000b0 OSQQuery



Disassembly of section .entry:

04000000 <__reset>:
#if NIOS2_ICACHE_SIZE > 0 && defined(ALT_ALLOW_CODE_AT_RESET) && !defined(ALT_SIM_OPTIMIZE)
    /* Assume the instruction cache size is always a power of two. */
#if NIOS2_ICACHE_SIZE > 0x8000
    movhi r2, %hi(NIOS2_ICACHE_SIZE)
#else
    movui r2, NIOS2_ICACHE_SIZE
 4000000:	00840014 	movui	r2,4096
#endif

0:
    initi r2
 4000004:	1001483a 	initi	r2
    addi r2, r2, -NIOS2_ICACHE_LINE_SIZE
 4000008:	10bff804 	addi	r2,r2,-32
    bgt r2, zero, 0b
 400000c:	00bffd16 	blt	zero,r2,4000004 <__reset+0x4>
 * Jump to the _start entry point in the .text section if reset code
 * is allowed or if optimizing for RTL simulation.
 */
#if defined(ALT_ALLOW_CODE_AT_RESET) || defined(ALT_SIM_OPTIMIZE)
    /* Jump to the _start entry point in the .text section. */
    movhi r1, %hi(_start)
 4000010:	00410034 	movhi	at,1024
    ori r1, r1, %lo(_start)
 4000014:	08406214 	ori	at,at,392
    jmp r1
 4000018:	0800683a 	jmp	at
 400001c:	00000000 	call	0 <OSTCBStkPtr_OFFSET>

Disassembly of section .exceptions:

04000020 <alt_exception>:
         * Process an exception.  For all exceptions we must preserve all
         * caller saved registers on the stack (See the Nios2 ABI
         * documentation for details).
         */

        addi  sp, sp, -76
 4000020:	deffed04 	addi	sp,sp,-76

#endif

#endif

        stw   ra,  0(sp)
 4000024:	dfc00015 	stw	ra,0(sp)
        /*
         * Leave a gap in the stack frame at 4(sp) for the muldiv handler to
         * store zero into.
         */

        stw   r1,   8(sp)
 4000028:	d8400215 	stw	at,8(sp)
        stw   r2,  12(sp)
 400002c:	d8800315 	stw	r2,12(sp)
        stw   r3,  16(sp)
 4000030:	d8c00415 	stw	r3,16(sp)
        stw   r4,  20(sp)
 4000034:	d9000515 	stw	r4,20(sp)
        stw   r5,  24(sp)
 4000038:	d9400615 	stw	r5,24(sp)
        stw   r6,  28(sp)
 400003c:	d9800715 	stw	r6,28(sp)
        stw   r7,  32(sp)
 4000040:	d9c00815 	stw	r7,32(sp)

        rdctl r5, estatus
 4000044:	000b307a 	rdctl	r5,estatus

        stw   r8,  36(sp)
 4000048:	da000915 	stw	r8,36(sp)
        stw   r9,  40(sp)
 400004c:	da400a15 	stw	r9,40(sp)
        stw   r10, 44(sp)
 4000050:	da800b15 	stw	r10,44(sp)
        stw   r11, 48(sp)
 4000054:	dac00c15 	stw	r11,48(sp)
        stw   r12, 52(sp)
 4000058:	db000d15 	stw	r12,52(sp)
        stw   r13, 56(sp)
 400005c:	db400e15 	stw	r13,56(sp)
        stw   r14, 60(sp)
 4000060:	db800f15 	stw	r14,60(sp)
        stw   r15, 64(sp)
 4000064:	dbc01015 	stw	r15,64(sp)
        /*
         * ea-4 contains the address of the instruction being executed
         * when the exception occured. For interrupt exceptions, we will
         * will be re-issue the isntruction. Store it in 72(sp)
         */
        stw   r5,  68(sp)  /* estatus */
 4000068:	d9401115 	stw	r5,68(sp)
        addi  r15, ea, -4  /* instruction that caused exception */
 400006c:	ebffff04 	addi	r15,ea,-4
        stw   r15,  72(sp)
 4000070:	dbc01215 	stw	r15,72(sp)
#else
        /*
         * Test to see if the exception was a software exception or caused 
         * by an external interrupt, and vector accordingly.
         */
        rdctl r4, ipending
 4000074:	0009313a 	rdctl	r4,ipending
        andi  r2, r5, 1
 4000078:	2880004c 	andi	r2,r5,1
        beq   r2, zero, .Lnot_irq
 400007c:	10000326 	beq	r2,zero,400008c <alt_exception+0x6c>
        beq   r4, zero, .Lnot_irq
 4000080:	20000226 	beq	r4,zero,400008c <alt_exception+0x6c>
        /*
         * Now that all necessary registers have been preserved, call 
         * alt_irq_handler() to process the interrupts.
         */

        call alt_irq_handler
 4000084:	40000ec0 	call	40000ec <alt_irq_handler>

        .section .exceptions.irqreturn, "xa"

        br    .Lexception_exit
 4000088:	00000306 	br	4000098 <alt_exception+0x78>
         * upon completion, so we write ea (address of instruction *after*
         * the one where the exception occured) into 72(sp). The actual
         * instruction that caused the exception is written in r2, which these
         * handlers will utilize.
         */
        stw   ea,  72(sp)  /* Don't re-issue */
 400008c:	df401215 	stw	ea,72(sp)
        ldw   r2, -4(ea)   /* Instruction that caused exception */
 4000090:	e8bfff17 	ldw	r2,-4(ea)
#ifdef NIOS2_HAS_DEBUG_STUB
       /*
        *  Either tell the user now (if there is a debugger attached) or go into
        *  the debug monitor which will loop until a debugger is attached.
        */
        break
 4000094:	003da03a 	break	0
        /* 
         * Restore the saved registers, so that all general purpose registers 
         * have been restored to their state at the time the interrupt occured.
         */

        ldw   r5,  68(sp)
 4000098:	d9401117 	ldw	r5,68(sp)
        ldw   ea,  72(sp)  /* This becomes the PC once eret is executed */
 400009c:	df401217 	ldw	ea,72(sp)
        ldw   ra,   0(sp)
 40000a0:	dfc00017 	ldw	ra,0(sp)

        wrctl estatus, r5
 40000a4:	2801707a 	wrctl	estatus,r5

        ldw   r1,   8(sp)
 40000a8:	d8400217 	ldw	at,8(sp)
        ldw   r2,  12(sp)
 40000ac:	d8800317 	ldw	r2,12(sp)
        ldw   r3,  16(sp)
 40000b0:	d8c00417 	ldw	r3,16(sp)
        ldw   r4,  20(sp)
 40000b4:	d9000517 	ldw	r4,20(sp)
        ldw   r5,  24(sp)
 40000b8:	d9400617 	ldw	r5,24(sp)
        ldw   r6,  28(sp)
 40000bc:	d9800717 	ldw	r6,28(sp)
        ldw   r7,  32(sp)
 40000c0:	d9c00817 	ldw	r7,32(sp)
#ifdef ALT_STACK_CHECK
        ldw   et, %gprel(alt_exception_old_stack_limit)(gp)
#endif
#endif

        ldw   r8,  36(sp)
 40000c4:	da000917 	ldw	r8,36(sp)
        ldw   r9,  40(sp)
 40000c8:	da400a17 	ldw	r9,40(sp)
        ldw   r10, 44(sp)
 40000cc:	da800b17 	ldw	r10,44(sp)
        ldw   r11, 48(sp)
 40000d0:	dac00c17 	ldw	r11,48(sp)
        ldw   r12, 52(sp)
 40000d4:	db000d17 	ldw	r12,52(sp)
        ldw   r13, 56(sp)
 40000d8:	db400e17 	ldw	r13,56(sp)
        ldw   r14, 60(sp)
 40000dc:	db800f17 	ldw	r14,60(sp)
        ldw   r15, 64(sp)
 40000e0:	dbc01017 	ldw	r15,64(sp)
#endif

        ldw   sp,  76(sp)

#else
        addi  sp, sp, 76
 40000e4:	dec01304 	addi	sp,sp,76

        /*
         * Return to the interrupted instruction.
         */

        eret
 40000e8:	ef80083a 	eret

040000ec <alt_irq_handler>:
 * instruction is present if the macro ALT_CI_INTERRUPT_VECTOR defined.
 */

void alt_irq_handler (void) __attribute__ ((section (".exceptions")));
void alt_irq_handler (void)
{
 40000ec:	defffe04 	addi	sp,sp,-8
 40000f0:	dfc00115 	stw	ra,4(sp)
 40000f4:	dc000015 	stw	r16,0(sp)
  
  /*
   * Notify the operating system that we are at interrupt level.
   */ 
  
  ALT_OS_INT_ENTER();
 40000f8:	400f5a00 	call	400f5a0 <OSIntEnter>
#ifndef NIOS2_EIC_PRESENT
static ALT_INLINE alt_u32 ALT_ALWAYS_INLINE alt_irq_pending (void)
{
  alt_u32 active;

  NIOS2_READ_IPENDING (active);
 40000fc:	000b313a 	rdctl	r5,ipending
     * called to clear the interrupt condition.
     */

    do
    {
      if (active & mask)
 4000100:	2880004c 	andi	r2,r5,1
 4000104:	1005003a 	cmpeq	r2,r2,zero
 4000108:	04010134 	movhi	r16,1028
 400010c:	840d6304 	addi	r16,r16,13708
 4000110:	10001126 	beq	r2,zero,4000158 <alt_irq_handler+0x6c>
 4000114:	00c00044 	movi	r3,1
 4000118:	0009883a 	mov	r4,zero
#else
        alt_irq[i].handler(alt_irq[i].context, i); 
#endif
        break;
      }
      mask <<= 1;
 400011c:	18c7883a 	add	r3,r3,r3
     * called to clear the interrupt condition.
     */

    do
    {
      if (active & mask)
 4000120:	28c4703a 	and	r2,r5,r3
        alt_irq[i].handler(alt_irq[i].context, i); 
#endif
        break;
      }
      mask <<= 1;
      i++;
 4000124:	21000044 	addi	r4,r4,1
     * called to clear the interrupt condition.
     */

    do
    {
      if (active & mask)
 4000128:	103ffc26 	beq	r2,zero,400011c <alt_irq_handler+0x30>
      { 
#ifdef ALT_ENHANCED_INTERRUPT_API_PRESENT
        alt_irq[i].handler(alt_irq[i].context); 
 400012c:	200490fa 	slli	r2,r4,3
 4000130:	1405883a 	add	r2,r2,r16
 4000134:	11000117 	ldw	r4,4(r2)
 4000138:	10c00017 	ldw	r3,0(r2)
 400013c:	183ee83a 	callr	r3
 4000140:	0005313a 	rdctl	r2,ipending

    } while (1);

    active = alt_irq_pending ();
    
  } while (active);
 4000144:	10000c26 	beq	r2,zero,4000178 <alt_irq_handler+0x8c>
 4000148:	100b883a 	mov	r5,r2
     * called to clear the interrupt condition.
     */

    do
    {
      if (active & mask)
 400014c:	2880004c 	andi	r2,r5,1
 4000150:	1005003a 	cmpeq	r2,r2,zero
 4000154:	103fef1e 	bne	r2,zero,4000114 <alt_irq_handler+0x28>
 4000158:	0009883a 	mov	r4,zero
      { 
#ifdef ALT_ENHANCED_INTERRUPT_API_PRESENT
        alt_irq[i].handler(alt_irq[i].context); 
 400015c:	200490fa 	slli	r2,r4,3
 4000160:	1405883a 	add	r2,r2,r16
 4000164:	11000117 	ldw	r4,4(r2)
 4000168:	10c00017 	ldw	r3,0(r2)
 400016c:	183ee83a 	callr	r3
 4000170:	0005313a 	rdctl	r2,ipending

    } while (1);

    active = alt_irq_pending ();
    
  } while (active);
 4000174:	103ff41e 	bne	r2,zero,4000148 <alt_irq_handler+0x5c>
  /*
   * Notify the operating system that interrupt processing is complete.
   */ 

  ALT_OS_INT_EXIT();
}
 4000178:	dfc00117 	ldw	ra,4(sp)
 400017c:	dc000017 	ldw	r16,0(sp)
 4000180:	dec00204 	addi	sp,sp,8

  /*
   * Notify the operating system that interrupt processing is complete.
   */ 

  ALT_OS_INT_EXIT();
 4000184:	400f5e01 	jmpi	400f5e0 <OSIntExit>

Disassembly of section .text:

04000188 <_start>:

    /* Assume the data cache size is always a power of two. */
#if NIOS2_DCACHE_SIZE > 0x8000
    movhi r2, %hi(NIOS2_DCACHE_SIZE)
#else
    movui r2, NIOS2_DCACHE_SIZE
 4000188:	00820014 	movui	r2,2048
#endif

0:
    initd 0(r2)
 400018c:	10000033 	initd	0(r2)
    addi r2, r2, -NIOS2_DCACHE_LINE_SIZE
 4000190:	10bff804 	addi	r2,r2,-32
    bgt r2, zero, 0b
 4000194:	00bffd16 	blt	zero,r2,400018c <_start+0x4>
#if (NIOS2_NUM_OF_SHADOW_REG_SETS == 0)    
    /*
     * Now that the caches are initialized, set up the stack pointer.
     * The value provided by the linker is assumed to be correctly aligned.
     */
    movhi sp, %hi(__alt_stack_pointer)
 4000198:	06c18034 	movhi	sp,1536
    ori sp, sp, %lo(__alt_stack_pointer)
 400019c:	dec00014 	ori	sp,sp,0

    /* Set up the global pointer. */
    movhi gp, %hi(_gp)
 40001a0:	06810134 	movhi	gp,1028
    ori gp, gp, %lo(_gp)
 40001a4:	d680f714 	ori	gp,gp,988
 */
#ifndef ALT_SIM_OPTIMIZE
    /* Log that the BSS is about to be cleared. */
    ALT_LOG_PUTS(alt_log_msg_bss)

    movhi r2, %hi(__bss_start)
 40001a8:	008100f4 	movhi	r2,1027
    ori r2, r2, %lo(__bss_start)
 40001ac:	10a8dd14 	ori	r2,r2,41844

    movhi r3, %hi(__bss_end)
 40001b0:	00c10134 	movhi	r3,1028
    ori r3, r3, %lo(__bss_end)
 40001b4:	18ce9d14 	ori	r3,r3,14964

    beq r2, r3, 1f
 40001b8:	10c00326 	beq	r2,r3,40001c8 <_start+0x40>

0:
    stw zero, (r2)
 40001bc:	10000015 	stw	zero,0(r2)
    addi r2, r2, 4
 40001c0:	10800104 	addi	r2,r2,4
    bltu r2, r3, 0b
 40001c4:	10fffd36 	bltu	r2,r3,40001bc <_start+0x34>
     * section aren't defined until alt_load() has been called).
     */
    mov   et, zero
#endif

    call alt_load
 40001c8:	400e1a40 	call	400e1a4 <alt_load>

    /* Log that alt_main is about to be called. */
    ALT_LOG_PUTS(alt_log_msg_alt_main)

    /* Call the C entry point. It should never return. */
    call alt_main
 40001cc:	400e32c0 	call	400e32c <alt_main>

040001d0 <alt_after_alt_main>:

    /* Wait in infinite loop in case alt_main does return. */
alt_after_alt_main:
    br alt_after_alt_main
 40001d0:	003fff06 	br	40001d0 <alt_after_alt_main>

040001d4 <alt_NTPErrorHandler>:
}
   
   
void alt_NTPErrorHandler(INT8U error_code, 
                         void *expanded_diagnosis_ptr)
{
 40001d4:	defffc04 	addi	sp,sp,-16
 40001d8:	dc000015 	stw	r16,0(sp)
   FAULT_LEVEL fault_level;
   
   if   (error_code == OS_NO_ERR)
 40001dc:	24003fcc 	andi	r16,r4,255
}
   
   
void alt_NTPErrorHandler(INT8U error_code, 
                         void *expanded_diagnosis_ptr)
{
 40001e0:	dc400115 	stw	r17,4(sp)
 40001e4:	dfc00315 	stw	ra,12(sp)
 40001e8:	dc800215 	stw	r18,8(sp)
 40001ec:	2823883a 	mov	r17,r5
   FAULT_LEVEL fault_level;
   
   if   (error_code == OS_NO_ERR)
 40001f0:	8000061e 	bne	r16,zero,400020c <alt_NTPErrorHandler+0x38>
      //default:
         //printf("\n[NTP]: See STDERR (FAULT_LEVEL is Unknown).\n");
         //fprintf(stderr, "\n[NTP] FAULT_LEVEL is unknown!?!\n");
   //}
   //while(1); /* Correct Program Flow never gets here. */
}
 40001f4:	dfc00317 	ldw	ra,12(sp)
 40001f8:	dc800217 	ldw	r18,8(sp)
 40001fc:	dc400117 	ldw	r17,4(sp)
 4000200:	dc000017 	ldw	r16,0(sp)
 4000204:	dec00404 	addi	sp,sp,16
 4000208:	f800283a 	ret
      return;
   }

   fault_level = (error_code == OS_NO_ERR) ? NONE : SYSTEM;
   
   OSSchedLock();  /* Disable Task Switching but still service other IRQs */
 400020c:	400f6b00 	call	400f6b0 <OSSchedLock>
   switch (error_code)
 4000210:	00800784 	movi	r2,30
 4000214:	8080a526 	beq	r16,r2,40004ac <alt_NTPErrorHandler+0x2d8>
 4000218:	00803fc4 	movi	r2,255
 400021c:	80807f26 	beq	r16,r2,400041c <alt_NTPErrorHandler+0x248>
         fprintf(stderr,"\n[NTP]: Attempted to post to a full message queue.");
         break;
      
      default:
         fault_level = SYSTEM;
         printf("\n[NTP]: See STDERR.\n");    
 4000220:	010100f4 	movhi	r4,1027
 4000224:	2104f904 	addi	r4,r4,5092
         fprintf(stderr, "\n[NTP]: Error_code %d!", error_code);        
 4000228:	04810134 	movhi	r18,1028
 400022c:	94a0f704 	addi	r18,r18,-31780
         fprintf(stderr,"\n[NTP]: Attempted to post to a full message queue.");
         break;
      
      default:
         fault_level = SYSTEM;
         printf("\n[NTP]: See STDERR.\n");    
 4000230:	4002fec0 	call	4002fec <puts>
         fprintf(stderr, "\n[NTP]: Error_code %d!", error_code);        
 4000234:	90c00017 	ldw	r3,0(r18)
 4000238:	014100f4 	movhi	r5,1027
 400023c:	2944fe04 	addi	r5,r5,5112
 4000240:	800d883a 	mov	r6,r16
 4000244:	19000317 	ldw	r4,12(r3)
 4000248:	4001dc40 	call	4001dc4 <fprintf>
         perror("\n[NTP]:  ERRNO: ");
 400024c:	010100f4 	movhi	r4,1027
 4000250:	21050404 	addi	r4,r4,5136
 4000254:	4002ec00 	call	4002ec0 <perror>
   }
  printf("[Program Error]: See STDERR\n");
 4000258:	010100f4 	movhi	r4,1027
 400025c:	2104e504 	addi	r4,r4,5012
 4000260:	4002fec0 	call	4002fec <puts>
  switch (error_code) {
 4000264:	00c01904 	movi	r3,100
 4000268:	1c008036 	bltu	r3,r16,400046c <alt_NTPErrorHandler+0x298>
 400026c:	8405883a 	add	r2,r16,r16
 4000270:	1085883a 	add	r2,r2,r2
 4000274:	00c10034 	movhi	r3,1024
 4000278:	18c0a204 	addi	r3,r3,648
 400027c:	10c5883a 	add	r2,r2,r3
 4000280:	11000017 	ldw	r4,0(r2)
 4000284:	2000683a 	jmp	r4
 4000288:	0400046c 	andhi	r16,zero,17
 400028c:	0400060c 	andi	r16,zero,24
 4000290:	0400062c 	andhi	r16,zero,24
 4000294:	0400064c 	andi	r16,zero,25
 4000298:	0400066c 	andhi	r16,zero,25
 400029c:	0400046c 	andhi	r16,zero,17
 40002a0:	0400046c 	andhi	r16,zero,17
 40002a4:	0400046c 	andhi	r16,zero,17
 40002a8:	0400046c 	andhi	r16,zero,17
 40002ac:	0400046c 	andhi	r16,zero,17
 40002b0:	0400068c 	andi	r16,zero,26
 40002b4:	0400046c 	andhi	r16,zero,17
 40002b8:	0400046c 	andhi	r16,zero,17
 40002bc:	0400046c 	andhi	r16,zero,17
 40002c0:	0400046c 	andhi	r16,zero,17
 40002c4:	0400046c 	andhi	r16,zero,17
 40002c8:	0400046c 	andhi	r16,zero,17
 40002cc:	0400046c 	andhi	r16,zero,17
 40002d0:	0400046c 	andhi	r16,zero,17
 40002d4:	0400046c 	andhi	r16,zero,17
 40002d8:	040006ac 	andhi	r16,zero,26
 40002dc:	0400046c 	andhi	r16,zero,17
 40002e0:	0400046c 	andhi	r16,zero,17
 40002e4:	0400046c 	andhi	r16,zero,17
 40002e8:	0400046c 	andhi	r16,zero,17
 40002ec:	0400046c 	andhi	r16,zero,17
 40002f0:	0400046c 	andhi	r16,zero,17
 40002f4:	0400046c 	andhi	r16,zero,17
 40002f8:	0400046c 	andhi	r16,zero,17
 40002fc:	0400046c 	andhi	r16,zero,17
 4000300:	040004dc 	xori	r16,zero,19
 4000304:	0400046c 	andhi	r16,zero,17
 4000308:	0400046c 	andhi	r16,zero,17
 400030c:	0400046c 	andhi	r16,zero,17
 4000310:	0400046c 	andhi	r16,zero,17
 4000314:	0400046c 	andhi	r16,zero,17
 4000318:	0400046c 	andhi	r16,zero,17
 400031c:	0400046c 	andhi	r16,zero,17
 4000320:	0400046c 	andhi	r16,zero,17
 4000324:	0400046c 	andhi	r16,zero,17
 4000328:	040004fc 	xorhi	r16,zero,19
 400032c:	0400046c 	andhi	r16,zero,17
 4000330:	0400051c 	xori	r16,zero,20
 4000334:	0400046c 	andhi	r16,zero,17
 4000338:	0400046c 	andhi	r16,zero,17
 400033c:	0400046c 	andhi	r16,zero,17
 4000340:	0400046c 	andhi	r16,zero,17
 4000344:	0400046c 	andhi	r16,zero,17
 4000348:	0400046c 	andhi	r16,zero,17
 400034c:	0400046c 	andhi	r16,zero,17
 4000350:	0400046c 	andhi	r16,zero,17
 4000354:	0400046c 	andhi	r16,zero,17
 4000358:	0400046c 	andhi	r16,zero,17
 400035c:	0400046c 	andhi	r16,zero,17
 4000360:	0400046c 	andhi	r16,zero,17
 4000364:	0400046c 	andhi	r16,zero,17
 4000368:	0400046c 	andhi	r16,zero,17
 400036c:	0400046c 	andhi	r16,zero,17
 4000370:	0400046c 	andhi	r16,zero,17
 4000374:	0400046c 	andhi	r16,zero,17
 4000378:	0400046c 	andhi	r16,zero,17
 400037c:	04000554 	movui	r16,21
 4000380:	04000574 	movhi	r16,21
 4000384:	0400046c 	andhi	r16,zero,17
 4000388:	04000594 	movui	r16,22
 400038c:	0400046c 	andhi	r16,zero,17
 4000390:	040005b4 	movhi	r16,22
 4000394:	0400046c 	andhi	r16,zero,17
 4000398:	0400046c 	andhi	r16,zero,17
 400039c:	0400046c 	andhi	r16,zero,17
 40003a0:	0400046c 	andhi	r16,zero,17
 40003a4:	0400046c 	andhi	r16,zero,17
 40003a8:	0400046c 	andhi	r16,zero,17
 40003ac:	0400046c 	andhi	r16,zero,17
 40003b0:	0400046c 	andhi	r16,zero,17
 40003b4:	0400046c 	andhi	r16,zero,17
 40003b8:	0400046c 	andhi	r16,zero,17
 40003bc:	0400046c 	andhi	r16,zero,17
 40003c0:	0400046c 	andhi	r16,zero,17
 40003c4:	0400046c 	andhi	r16,zero,17
 40003c8:	0400046c 	andhi	r16,zero,17
 40003cc:	0400046c 	andhi	r16,zero,17
 40003d0:	0400046c 	andhi	r16,zero,17
 40003d4:	0400046c 	andhi	r16,zero,17
 40003d8:	0400046c 	andhi	r16,zero,17
 40003dc:	0400046c 	andhi	r16,zero,17
 40003e0:	0400046c 	andhi	r16,zero,17
 40003e4:	0400046c 	andhi	r16,zero,17
 40003e8:	0400046c 	andhi	r16,zero,17
 40003ec:	0400046c 	andhi	r16,zero,17
 40003f0:	0400046c 	andhi	r16,zero,17
 40003f4:	0400046c 	andhi	r16,zero,17
 40003f8:	0400046c 	andhi	r16,zero,17
 40003fc:	0400046c 	andhi	r16,zero,17
 4000400:	0400046c 	andhi	r16,zero,17
 4000404:	0400046c 	andhi	r16,zero,17
 4000408:	0400046c 	andhi	r16,zero,17
 400040c:	0400046c 	andhi	r16,zero,17
 4000410:	0400046c 	andhi	r16,zero,17
 4000414:	0400046c 	andhi	r16,zero,17
 4000418:	040005ec 	andhi	r16,zero,23
   switch (error_code)
   {
      case EXPANDED_DIAGNOSIS_CODE:      
         fault_level = SYSTEM;
         printf("\n[NTP]: See STDERR for expanded diagnosis translation.");    
         fprintf(stderr, "\n[NTP]: %s", (char *)expanded_diagnosis_ptr);
 400041c:	04810134 	movhi	r18,1028
 4000420:	94a0f704 	addi	r18,r18,-31780
   OSSchedLock();  /* Disable Task Switching but still service other IRQs */
   switch (error_code)
   {
      case EXPANDED_DIAGNOSIS_CODE:      
         fault_level = SYSTEM;
         printf("\n[NTP]: See STDERR for expanded diagnosis translation.");    
 4000424:	010100f4 	movhi	r4,1027
 4000428:	2104ce04 	addi	r4,r4,4920
 400042c:	4002ed40 	call	4002ed4 <printf>
         fprintf(stderr, "\n[NTP]: %s", (char *)expanded_diagnosis_ptr);
 4000430:	90c00017 	ldw	r3,0(r18)
 4000434:	880d883a 	mov	r6,r17
 4000438:	014100f4 	movhi	r5,1027
 400043c:	2944dc04 	addi	r5,r5,4976
 4000440:	19000317 	ldw	r4,12(r3)
 4000444:	4001dc40 	call	4001dc4 <fprintf>
		 fprintf(stderr, "\n[NTP]: Error_code %d!\n", error_code);
 4000448:	90c00017 	ldw	r3,0(r18)
 400044c:	800d883a 	mov	r6,r16
 4000450:	014100f4 	movhi	r5,1027
 4000454:	2944df04 	addi	r5,r5,4988
 4000458:	19000317 	ldw	r4,12(r3)
 400045c:	4001dc40 	call	4001dc4 <fprintf>
         fault_level = SYSTEM;
         printf("\n[NTP]: See STDERR.\n");    
         fprintf(stderr, "\n[NTP]: Error_code %d!", error_code);        
         perror("\n[NTP]:  ERRNO: ");
   }
  printf("[Program Error]: See STDERR\n");
 4000460:	010100f4 	movhi	r4,1027
 4000464:	2104e504 	addi	r4,r4,5012
 4000468:	4002fec0 	call	4002fec <puts>
      break;
    case OS_ERR_NOT_MUTEX_OWNER:
      fprintf(stderr, "Attempted to post a mutex that is not owned by the task\n");
      break;
    default:
      fprintf(stderr, "Unknown Error\n");
 400046c:	90800017 	ldw	r2,0(r18)
 4000470:	010100f4 	movhi	r4,1027
 4000474:	2105d504 	addi	r4,r4,5972
 4000478:	01400044 	movi	r5,1
 400047c:	11c00317 	ldw	r7,12(r2)
 4000480:	01800384 	movi	r6,14
 4000484:	4001ec00 	call	4001ec0 <fwrite>
      break;
  }
  fprintf(stderr, "Program is terminating.\n");
 4000488:	90800017 	ldw	r2,0(r18)
 400048c:	010100f4 	movhi	r4,1027
 4000490:	2105d904 	addi	r4,r4,5988
 4000494:	01400044 	movi	r5,1
 4000498:	11c00317 	ldw	r7,12(r2)
 400049c:	01800604 	movi	r6,24
 40004a0:	4001ec00 	call	4001ec0 <fwrite>
  exit(0);
 40004a4:	0009883a 	mov	r4,zero
 40004a8:	4001d8c0 	call	4001d8c <exit>
		 fprintf(stderr, "\n[NTP]: Error_code %d!\n", error_code);
         break;
         
      case OS_Q_FULL:
         fault_level = NONE;
         fprintf(stderr,"\n[NTP]: Attempted to post to a full message queue.");
 40004ac:	04810134 	movhi	r18,1028
 40004b0:	94a0f704 	addi	r18,r18,-31780
 40004b4:	90800017 	ldw	r2,0(r18)
 40004b8:	010100f4 	movhi	r4,1027
 40004bc:	2104ec04 	addi	r4,r4,5040
 40004c0:	01400044 	movi	r5,1
 40004c4:	11c00317 	ldw	r7,12(r2)
 40004c8:	01800c84 	movi	r6,50
 40004cc:	4001ec00 	call	4001ec0 <fwrite>
         fault_level = SYSTEM;
         printf("\n[NTP]: See STDERR.\n");    
         fprintf(stderr, "\n[NTP]: Error_code %d!", error_code);        
         perror("\n[NTP]:  ERRNO: ");
   }
  printf("[Program Error]: See STDERR\n");
 40004d0:	010100f4 	movhi	r4,1027
 40004d4:	2104e504 	addi	r4,r4,5012
 40004d8:	4002fec0 	call	4002fec <puts>
      break;
    case OS_TASK_DEL_ISR:
      fprintf(stderr, "Attempted to delete a task from an ISR\n");
      break;
    case OS_Q_FULL:
      fprintf(stderr, "Attempted to post to a full message queue\n");
 40004dc:	90800017 	ldw	r2,0(r18)
 40004e0:	010100f4 	movhi	r4,1027
 40004e4:	2105bb04 	addi	r4,r4,5868
 40004e8:	01400044 	movi	r5,1
 40004ec:	11c00317 	ldw	r7,12(r2)
 40004f0:	01800a84 	movi	r6,42
 40004f4:	4001ec00 	call	4001ec0 <fwrite>
 40004f8:	003fe306 	br	4000488 <alt_NTPErrorHandler+0x2b4>
         perror("\n[NTP]:  ERRNO: ");
   }
  printf("[Program Error]: See STDERR\n");
  switch (error_code) {
    case OS_PRIO_EXIST:
      fprintf(stderr, "Attempted to assign a task priority that is aready in use.\n");
 40004fc:	90800017 	ldw	r2,0(r18)
 4000500:	010100f4 	movhi	r4,1027
 4000504:	21050904 	addi	r4,r4,5156
 4000508:	01400044 	movi	r5,1
 400050c:	11c00317 	ldw	r7,12(r2)
 4000510:	01800ec4 	movi	r6,59
 4000514:	4001ec00 	call	4001ec0 <fwrite>
 4000518:	003fdb06 	br	4000488 <alt_NTPErrorHandler+0x2b4>
      break;
    case OS_PRIO_INVALID:
      fprintf(stderr, "Specified a task priority higher than the allowed maximum.\n");
 400051c:	90800017 	ldw	r2,0(r18)
 4000520:	010100f4 	movhi	r4,1027
 4000524:	21051804 	addi	r4,r4,5216
 4000528:	01400044 	movi	r5,1
 400052c:	11c00317 	ldw	r7,12(r2)
 4000530:	01800ec4 	movi	r6,59
 4000534:	4001ec00 	call	4001ec0 <fwrite>
      fprintf(stderr, "Task can not be assigned a priority higher than %d\n",OS_LOWEST_PRIO);
 4000538:	90c00017 	ldw	r3,0(r18)
 400053c:	014100f4 	movhi	r5,1027
 4000540:	29452704 	addi	r5,r5,5276
 4000544:	01800504 	movi	r6,20
 4000548:	19000317 	ldw	r4,12(r3)
 400054c:	4001dc40 	call	4001dc4 <fprintf>
 4000550:	003fcd06 	br	4000488 <alt_NTPErrorHandler+0x2b4>
      break;
    case OS_TASK_DEL_IDLE:
      fprintf(stderr, "Attempted to delete the IDLE task\n");
      break;
    case OS_TASK_DEL_ERR:
      fprintf(stderr, "Attempted to delete a task that does not exist\n");
 4000554:	90800017 	ldw	r2,0(r18)
 4000558:	010100f4 	movhi	r4,1027
 400055c:	2105a504 	addi	r4,r4,5780
 4000560:	01400044 	movi	r5,1
 4000564:	11c00317 	ldw	r7,12(r2)
 4000568:	01800bc4 	movi	r6,47
 400056c:	4001ec00 	call	4001ec0 <fwrite>
 4000570:	003fc506 	br	4000488 <alt_NTPErrorHandler+0x2b4>
      break;
    case OS_ERR_PEND_ISR:
      fprintf(stderr, "Attempting to pending for a resource in an ISR\n");
      break;
    case OS_TASK_DEL_IDLE:
      fprintf(stderr, "Attempted to delete the IDLE task\n");
 4000574:	90800017 	ldw	r2,0(r18)
 4000578:	010100f4 	movhi	r4,1027
 400057c:	21059c04 	addi	r4,r4,5744
 4000580:	01400044 	movi	r5,1
 4000584:	11c00317 	ldw	r7,12(r2)
 4000588:	01800884 	movi	r6,34
 400058c:	4001ec00 	call	4001ec0 <fwrite>
 4000590:	003fbd06 	br	4000488 <alt_NTPErrorHandler+0x2b4>
      break;
    case OS_TASK_DEL_ERR:
      fprintf(stderr, "Attempted to delete a task that does not exist\n");
      break;
    case OS_TASK_DEL_ISR:
      fprintf(stderr, "Attempted to delete a task from an ISR\n");
 4000594:	90800017 	ldw	r2,0(r18)
 4000598:	010100f4 	movhi	r4,1027
 400059c:	2105b104 	addi	r4,r4,5828
 40005a0:	01400044 	movi	r5,1
 40005a4:	11c00317 	ldw	r7,12(r2)
 40005a8:	018009c4 	movi	r6,39
 40005ac:	4001ec00 	call	4001ec0 <fwrite>
 40005b0:	003fb506 	br	4000488 <alt_NTPErrorHandler+0x2b4>
    case OS_PRIO_INVALID:
      fprintf(stderr, "Specified a task priority higher than the allowed maximum.\n");
      fprintf(stderr, "Task can not be assigned a priority higher than %d\n",OS_LOWEST_PRIO);
      break;
    case OS_NO_MORE_TCB:
      fprintf(stderr, "Task Control Blocks have been exhausted\n");
 40005b4:	90800017 	ldw	r2,0(r18)
 40005b8:	010100f4 	movhi	r4,1027
 40005bc:	21053404 	addi	r4,r4,5328
 40005c0:	01400044 	movi	r5,1
 40005c4:	11c00317 	ldw	r7,12(r2)
 40005c8:	01800a04 	movi	r6,40
 40005cc:	4001ec00 	call	4001ec0 <fwrite>
      fprintf(stderr, "The current max number of task is %d\n",OS_MAX_TASKS);
 40005d0:	90c00017 	ldw	r3,0(r18)
 40005d4:	014100f4 	movhi	r5,1027
 40005d8:	29453f04 	addi	r5,r5,5372
 40005dc:	01800284 	movi	r6,10
 40005e0:	19000317 	ldw	r4,12(r3)
 40005e4:	4001dc40 	call	4001dc4 <fprintf>
 40005e8:	003fa706 	br	4000488 <alt_NTPErrorHandler+0x2b4>
      break;
    case OS_Q_FULL:
      fprintf(stderr, "Attempted to post to a full message queue\n");
      break;
    case OS_ERR_NOT_MUTEX_OWNER:
      fprintf(stderr, "Attempted to post a mutex that is not owned by the task\n");
 40005ec:	90800017 	ldw	r2,0(r18)
 40005f0:	010100f4 	movhi	r4,1027
 40005f4:	2105c604 	addi	r4,r4,5912
 40005f8:	01400044 	movi	r5,1
 40005fc:	11c00317 	ldw	r7,12(r2)
 4000600:	01800e04 	movi	r6,56
 4000604:	4001ec00 	call	4001ec0 <fwrite>
 4000608:	003f9f06 	br	4000488 <alt_NTPErrorHandler+0x2b4>
      break;
    case OS_MBOX_FULL:
      fprintf(stderr, "Attempted a Post to a Mailbox that already contains a message\n");
      break;
    case OS_ERR_EVENT_TYPE:
      fprintf(stderr, "Attempted to access a resource that doesn't match the required data type\n");
 400060c:	90800017 	ldw	r2,0(r18)
 4000610:	010100f4 	movhi	r4,1027
 4000614:	21055904 	addi	r4,r4,5476
 4000618:	01400044 	movi	r5,1
 400061c:	11c00317 	ldw	r7,12(r2)
 4000620:	01801244 	movi	r6,73
 4000624:	4001ec00 	call	4001ec0 <fwrite>
 4000628:	003f9706 	br	4000488 <alt_NTPErrorHandler+0x2b4>
      break;
    case OS_TIMEOUT:
      fprintf(stderr, "Resource not received in specified time\n");
      break;
    case OS_ERR_PEND_ISR:
      fprintf(stderr, "Attempting to pending for a resource in an ISR\n");
 400062c:	90800017 	ldw	r2,0(r18)
 4000630:	010100f4 	movhi	r4,1027
 4000634:	21059004 	addi	r4,r4,5696
 4000638:	01400044 	movi	r5,1
 400063c:	11c00317 	ldw	r7,12(r2)
 4000640:	01800bc4 	movi	r6,47
 4000644:	4001ec00 	call	4001ec0 <fwrite>
 4000648:	003f8f06 	br	4000488 <alt_NTPErrorHandler+0x2b4>
      break;
    case OS_ERR_PEVENT_NULL:
      fprintf(stderr, "Attempting access a resource that is pointing to NULL\n");
      break;
    case OS_ERR_POST_NULL_PTR:
      fprintf(stderr, "Attempted to Post a NULL to a resource. \n");
 400064c:	90800017 	ldw	r2,0(r18)
 4000650:	010100f4 	movhi	r4,1027
 4000654:	21057a04 	addi	r4,r4,5608
 4000658:	01400044 	movi	r5,1
 400065c:	11c00317 	ldw	r7,12(r2)
 4000660:	01800a44 	movi	r6,41
 4000664:	4001ec00 	call	4001ec0 <fwrite>
 4000668:	003f8706 	br	4000488 <alt_NTPErrorHandler+0x2b4>
      break;
    case OS_ERR_EVENT_TYPE:
      fprintf(stderr, "Attempted to access a resource that doesn't match the required data type\n");
      break;
    case OS_ERR_PEVENT_NULL:
      fprintf(stderr, "Attempting access a resource that is pointing to NULL\n");
 400066c:	90800017 	ldw	r2,0(r18)
 4000670:	010100f4 	movhi	r4,1027
 4000674:	21056c04 	addi	r4,r4,5552
 4000678:	01400044 	movi	r5,1
 400067c:	11c00317 	ldw	r7,12(r2)
 4000680:	01800d84 	movi	r6,54
 4000684:	4001ec00 	call	4001ec0 <fwrite>
 4000688:	003f7f06 	br	4000488 <alt_NTPErrorHandler+0x2b4>
      break;
    case OS_ERR_POST_NULL_PTR:
      fprintf(stderr, "Attempted to Post a NULL to a resource. \n");
      break;
    case OS_TIMEOUT:
      fprintf(stderr, "Resource not received in specified time\n");
 400068c:	90800017 	ldw	r2,0(r18)
 4000690:	010100f4 	movhi	r4,1027
 4000694:	21058504 	addi	r4,r4,5652
 4000698:	01400044 	movi	r5,1
 400069c:	11c00317 	ldw	r7,12(r2)
 40006a0:	01800a04 	movi	r6,40
 40006a4:	4001ec00 	call	4001ec0 <fwrite>
 40006a8:	003f7706 	br	4000488 <alt_NTPErrorHandler+0x2b4>
    case OS_NO_MORE_TCB:
      fprintf(stderr, "Task Control Blocks have been exhausted\n");
      fprintf(stderr, "The current max number of task is %d\n",OS_MAX_TASKS);
      break;
    case OS_MBOX_FULL:
      fprintf(stderr, "Attempted a Post to a Mailbox that already contains a message\n");
 40006ac:	90800017 	ldw	r2,0(r18)
 40006b0:	010100f4 	movhi	r4,1027
 40006b4:	21054904 	addi	r4,r4,5412
 40006b8:	01400044 	movi	r5,1
 40006bc:	11c00317 	ldw	r7,12(r2)
 40006c0:	01800f84 	movi	r6,62
 40006c4:	4001ec00 	call	4001ec0 <fwrite>
 40006c8:	003f6f06 	br	4000488 <alt_NTPErrorHandler+0x2b4>

040006cc <alt_uCOSIIErrorHandler>:
#include "includes.h"
#include "alt_error_handler.h"
#include "stdlib.h"

void alt_uCOSIIErrorHandler(INT8U error_code, void *expanded_diagnosis_ptr)
{
 40006cc:	defffc04 	addi	sp,sp,-16
 40006d0:	dc000015 	stw	r16,0(sp)
   FAULT_LEVEL fault_level;
   
   if(error_code == OS_NO_ERR)
 40006d4:	24003fcc 	andi	r16,r4,255
#include "includes.h"
#include "alt_error_handler.h"
#include "stdlib.h"

void alt_uCOSIIErrorHandler(INT8U error_code, void *expanded_diagnosis_ptr)
{
 40006d8:	dc400115 	stw	r17,4(sp)
 40006dc:	dfc00315 	stw	ra,12(sp)
 40006e0:	dc800215 	stw	r18,8(sp)
 40006e4:	2823883a 	mov	r17,r5
   FAULT_LEVEL fault_level;
   
   if(error_code == OS_NO_ERR)
 40006e8:	8000061e 	bne	r16,zero,4000704 <alt_uCOSIIErrorHandler+0x38>
      default:
         printf("\n[MicroC/OS-II]: See STDERR (FAULT_LEVEL is Unknown).\n");
         fprintf(stderr, "\n[MicroC/OS-II]: FAULT_LEVEL is unknown!?!\n");
   }
   while(1); /* Correct Program Flow never gets here. */
}
 40006ec:	dfc00317 	ldw	ra,12(sp)
 40006f0:	dc800217 	ldw	r18,8(sp)
 40006f4:	dc400117 	ldw	r17,4(sp)
 40006f8:	dc000017 	ldw	r16,0(sp)
 40006fc:	dec00404 	addi	sp,sp,16
 4000700:	f800283a 	ret
   {
      return;
   }
   
   fault_level = SYSTEM;  
   OSSchedLock();  /* Disable Task Switching but still service other IRQs */
 4000704:	400f6b00 	call	400f6b0 <OSSchedLock>
      
   switch (error_code)
 4000708:	00800a04 	movi	r2,40
 400070c:	80802a26 	beq	r16,r2,40007b8 <alt_uCOSIIErrorHandler+0xec>
 4000710:	14004b36 	bltu	r2,r16,4000840 <alt_uCOSIIErrorHandler+0x174>
 4000714:	00800104 	movi	r2,4
 4000718:	8080a626 	beq	r16,r2,40009b4 <alt_uCOSIIErrorHandler+0x2e8>
 400071c:	14007b36 	bltu	r2,r16,400090c <alt_uCOSIIErrorHandler+0x240>
 4000720:	00800084 	movi	r2,2
 4000724:	80806f26 	beq	r16,r2,40008e4 <alt_uCOSIIErrorHandler+0x218>
 4000728:	14006436 	bltu	r2,r16,40008bc <alt_uCOSIIErrorHandler+0x1f0>
 400072c:	00800044 	movi	r2,1
 4000730:	80804c1e 	bne	r16,r2,4000864 <alt_uCOSIIErrorHandler+0x198>
         fault_level = NONE;
         fprintf(stderr, "Attempted Post to Mailbox already holding message\n");
         break;
      case OS_ERR_EVENT_TYPE:
         fault_level = TASK;
         fprintf(stderr, 
 4000734:	04810134 	movhi	r18,1028
 4000738:	94a0f704 	addi	r18,r18,-31780
 400073c:	90800017 	ldw	r2,0(r18)
 4000740:	010100f4 	movhi	r4,1027
 4000744:	21061d04 	addi	r4,r4,6260
 4000748:	800b883a 	mov	r5,r16
 400074c:	11c00317 	ldw	r7,12(r2)
 4000750:	01801244 	movi	r6,73
 4000754:	4001ec00 	call	4001ec0 <fwrite>

/* Process the error based on the fault level, reenable scheduler if appropriate. */  
   switch (fault_level) {
      case TASK:
         /* Error can be isolated by killing the task */
         printf("\n[MicroC/OS-II]: See STDERR (FAULT_LEVEL is TASK).");
 4000758:	010100f4 	movhi	r4,1027
 400075c:	2106ef04 	addi	r4,r4,7100
 4000760:	4002ed40 	call	4002ed4 <printf>
         fprintf(stderr, "\n[MicroC/OS-II]: FAULT_LEVEL is TASK");
 4000764:	90c00017 	ldw	r3,0(r18)
 4000768:	010100f4 	movhi	r4,1027
 400076c:	2106fc04 	addi	r4,r4,7152
 4000770:	01400044 	movi	r5,1
 4000774:	19c00317 	ldw	r7,12(r3)
 4000778:	01800904 	movi	r6,36
 400077c:	4001ec00 	call	4001ec0 <fwrite>
         fprintf(stderr, "\n[MicroC/OS-II]: Task is being deleted.\n");
 4000780:	90c00017 	ldw	r3,0(r18)
 4000784:	01400044 	movi	r5,1
 4000788:	01800a04 	movi	r6,40
 400078c:	19c00317 	ldw	r7,12(r3)
 4000790:	010100f4 	movhi	r4,1027
 4000794:	21070604 	addi	r4,r4,7192
 4000798:	4001ec00 	call	4001ec0 <fwrite>
         OSSchedUnlock(); /* Reenable Task Switching */
 400079c:	400f6f80 	call	400f6f8 <OSSchedUnlock>
         OSTaskDel(OS_PRIO_SELF);
 40007a0:	01003fc4 	movi	r4,255
 40007a4:	40126500 	call	4012650 <OSTaskDel>
         /* Reinvoke uCOSII error handler in case task deletion fails, in 
          * which case fault_level for this secondary error will be SYSTEM. */
         alt_uCOSIIErrorHandler(error_code, 0);         
 40007a8:	000b883a 	mov	r5,zero
 40007ac:	8009883a 	mov	r4,r16
 40007b0:	40006cc0 	call	40006cc <alt_uCOSIIErrorHandler>
 40007b4:	003fff06 	br	40007b4 <alt_uCOSIIErrorHandler+0xe8>
   OSSchedLock();  /* Disable Task Switching but still service other IRQs */
      
   switch (error_code)
   {  
      case OS_PRIO_EXIST:
         fprintf(stderr, "Attempted to assign task priority aready in use.\n");
 40007b8:	04810134 	movhi	r18,1028
 40007bc:	94a0f704 	addi	r18,r18,-31780
 40007c0:	90800017 	ldw	r2,0(r18)
 40007c4:	010100f4 	movhi	r4,1027
 40007c8:	2105e004 	addi	r4,r4,6016
 40007cc:	01400044 	movi	r5,1
 40007d0:	11c00317 	ldw	r7,12(r2)
 40007d4:	01800c44 	movi	r6,49
 40007d8:	4001ec00 	call	4001ec0 <fwrite>
          * which case fault_level for this secondary error will be SYSTEM. */
         alt_uCOSIIErrorHandler(error_code, 0);         
         break;
      case SYSTEM:
         /* Total System Failure, Restart Required */
         printf("\n[MicroC/OS-II]: See STDERR (FAULT_LEVEL is SYSTEM).");    
 40007dc:	010100f4 	movhi	r4,1027
 40007e0:	21069704 	addi	r4,r4,6748
 40007e4:	4002ed40 	call	4002ed4 <printf>
         fprintf(stderr, "\n[MicroC/OS-II]: FAULT_LEVEL is SYSTEM");
 40007e8:	90c00017 	ldw	r3,0(r18)
 40007ec:	010100f4 	movhi	r4,1027
 40007f0:	2106a504 	addi	r4,r4,6804
 40007f4:	01400044 	movi	r5,1
 40007f8:	19c00317 	ldw	r7,12(r3)
 40007fc:	01800984 	movi	r6,38
 4000800:	4001ec00 	call	4001ec0 <fwrite>
         fprintf(stderr, "\n[MicroC/OS-II]: FATAL Error, Restart required.");
 4000804:	90c00017 	ldw	r3,0(r18)
 4000808:	010100f4 	movhi	r4,1027
 400080c:	2106af04 	addi	r4,r4,6844
 4000810:	01400044 	movi	r5,1
 4000814:	19c00317 	ldw	r7,12(r3)
 4000818:	01800bc4 	movi	r6,47
 400081c:	4001ec00 	call	4001ec0 <fwrite>
         fprintf(stderr, "\n[MicroC/OS-II]: Locking scheduler - endless loop.\n");
 4000820:	90c00017 	ldw	r3,0(r18)
 4000824:	010100f4 	movhi	r4,1027
 4000828:	2106bb04 	addi	r4,r4,6892
 400082c:	01400044 	movi	r5,1
 4000830:	19c00317 	ldw	r7,12(r3)
 4000834:	01800cc4 	movi	r6,51
 4000838:	4001ec00 	call	4001ec0 <fwrite>
 400083c:	003fff06 	br	400083c <alt_uCOSIIErrorHandler+0x170>
   }
   
   fault_level = SYSTEM;  
   OSSchedLock();  /* Disable Task Switching but still service other IRQs */
      
   switch (error_code)
 4000840:	00801004 	movi	r2,64
 4000844:	8080b326 	beq	r16,r2,4000b14 <alt_uCOSIIErrorHandler+0x448>
 4000848:	14009c36 	bltu	r2,r16,4000abc <alt_uCOSIIErrorHandler+0x3f0>
 400084c:	00800f44 	movi	r2,61
 4000850:	80809026 	beq	r16,r2,4000a94 <alt_uCOSIIErrorHandler+0x3c8>
 4000854:	00800f84 	movi	r2,62
 4000858:	80808426 	beq	r16,r2,4000a6c <alt_uCOSIIErrorHandler+0x3a0>
 400085c:	00800a84 	movi	r2,42
 4000860:	80805e26 	beq	r16,r2,40009dc <alt_uCOSIIErrorHandler+0x310>
         fprintf(stderr, "\n[MicroC/OS-II]: Expanded Diagnosis: %s.", 
                 (char *)expanded_diagnosis_ptr);
         break;           
      default:
         printf("\n[MicroC/OS-II]: (Not a MicroC/OS-II error) See STDERR.\n");    
         fprintf(stderr, "\n[MicroC/OS-II]:");
 4000864:	04810134 	movhi	r18,1028
 4000868:	94a0f704 	addi	r18,r18,-31780
"\n[MicroC/OS-II]: See STDERR for expanded diagnosis translation.");    
         fprintf(stderr, "\n[MicroC/OS-II]: Expanded Diagnosis: %s.", 
                 (char *)expanded_diagnosis_ptr);
         break;           
      default:
         printf("\n[MicroC/OS-II]: (Not a MicroC/OS-II error) See STDERR.\n");    
 400086c:	010100f4 	movhi	r4,1027
 4000870:	21067104 	addi	r4,r4,6596
 4000874:	4002fec0 	call	4002fec <puts>
         fprintf(stderr, "\n[MicroC/OS-II]:");
 4000878:	90c00017 	ldw	r3,0(r18)
 400087c:	010100f4 	movhi	r4,1027
 4000880:	21067f04 	addi	r4,r4,6652
 4000884:	01400044 	movi	r5,1
 4000888:	19c00317 	ldw	r7,12(r3)
 400088c:	01800404 	movi	r6,16
 4000890:	4001ec00 	call	4001ec0 <fwrite>
         fprintf(stderr, "\nError_code %d.\n", error_code);
 4000894:	90c00017 	ldw	r3,0(r18)
 4000898:	800d883a 	mov	r6,r16
 400089c:	014100f4 	movhi	r5,1027
 40008a0:	29468404 	addi	r5,r5,6672
 40008a4:	19000317 	ldw	r4,12(r3)
 40008a8:	4001dc40 	call	4001dc4 <fprintf>
         perror("\n[MicroC/OS-II]: (Not a MicroC/OS-II error), ERRNO: ");
 40008ac:	010100f4 	movhi	r4,1027
 40008b0:	21068904 	addi	r4,r4,6692
 40008b4:	4002ec00 	call	4002ec0 <perror>
 40008b8:	003fc806 	br	40007dc <alt_uCOSIIErrorHandler+0x110>
      case OS_ERR_PEVENT_NULL:
         fprintf(stderr, "Attempting to access a resource pointing to NULL\n");
         break;
      case OS_ERR_POST_NULL_PTR:
         fault_level = TASK;
         fprintf(stderr, "Attempted to Post a NULL to a resource. \n");
 40008bc:	04810134 	movhi	r18,1028
 40008c0:	94a0f704 	addi	r18,r18,-31780
 40008c4:	90800017 	ldw	r2,0(r18)
 40008c8:	010100f4 	movhi	r4,1027
 40008cc:	21057a04 	addi	r4,r4,5608
 40008d0:	01400044 	movi	r5,1
 40008d4:	11c00317 	ldw	r7,12(r2)
 40008d8:	01800a44 	movi	r6,41
 40008dc:	4001ec00 	call	4001ec0 <fwrite>
 40008e0:	003f9d06 	br	4000758 <alt_uCOSIIErrorHandler+0x8c>
      case OS_TIMEOUT:
         fault_level = NONE;
         fprintf(stderr, "Resource not received in specified time\n");
         break;
      case OS_ERR_PEND_ISR:
         fprintf(stderr, "Attempting to pend for a resource in an ISR\n");
 40008e4:	04810134 	movhi	r18,1028
 40008e8:	94a0f704 	addi	r18,r18,-31780
 40008ec:	90800017 	ldw	r2,0(r18)
 40008f0:	010100f4 	movhi	r4,1027
 40008f4:	21063d04 	addi	r4,r4,6388
 40008f8:	01400044 	movi	r5,1
 40008fc:	11c00317 	ldw	r7,12(r2)
 4000900:	01800b04 	movi	r6,44
 4000904:	4001ec00 	call	4001ec0 <fwrite>
 4000908:	003fb406 	br	40007dc <alt_uCOSIIErrorHandler+0x110>
   }
   
   fault_level = SYSTEM;  
   OSSchedLock();  /* Disable Task Switching but still service other IRQs */
      
   switch (error_code)
 400090c:	00800504 	movi	r2,20
 4000910:	80804c26 	beq	r16,r2,4000a44 <alt_uCOSIIErrorHandler+0x378>
 4000914:	00800784 	movi	r2,30
 4000918:	80804026 	beq	r16,r2,4000a1c <alt_uCOSIIErrorHandler+0x350>
 400091c:	00800284 	movi	r2,10
 4000920:	80bfd01e 	bne	r16,r2,4000864 <alt_uCOSIIErrorHandler+0x198>
         fault_level = TASK;
         fprintf(stderr, "Attempted to Post a NULL to a resource. \n");
         break;
      case OS_TIMEOUT:
         fault_level = NONE;
         fprintf(stderr, "Resource not received in specified time\n");
 4000924:	04810134 	movhi	r18,1028
 4000928:	94a0f704 	addi	r18,r18,-31780
 400092c:	90800017 	ldw	r2,0(r18)
 4000930:	010100f4 	movhi	r4,1027
 4000934:	21058504 	addi	r4,r4,5652
 4000938:	01400044 	movi	r5,1
 400093c:	11c00317 	ldw	r7,12(r2)
 4000940:	01800a04 	movi	r6,40
 4000944:	4001ec00 	call	4001ec0 <fwrite>
         fprintf(stderr, "\n[MicroC/OS-II]: FATAL Error, Restart required.");
         fprintf(stderr, "\n[MicroC/OS-II]: Locking scheduler - endless loop.\n");
         while(1); /* Since scheduler is locked,loop halts all task activity.*/
         break;
      case NONE:
         fprintf(stderr, "\n[MicroC/OS-II]: FAULT_LEVEL is NONE");
 4000948:	90800017 	ldw	r2,0(r18)
 400094c:	010100f4 	movhi	r4,1027
 4000950:	2106c804 	addi	r4,r4,6944
 4000954:	01400044 	movi	r5,1
 4000958:	11c00317 	ldw	r7,12(r2)
 400095c:	01800904 	movi	r6,36
 4000960:	4001ec00 	call	4001ec0 <fwrite>
         fprintf(stderr, "\n[MicroC/OS-II]: Informational error only, control"); 
 4000964:	90c00017 	ldw	r3,0(r18)
 4000968:	010100f4 	movhi	r4,1027
 400096c:	2106d204 	addi	r4,r4,6984
 4000970:	01400044 	movi	r5,1
 4000974:	19c00317 	ldw	r7,12(r3)
 4000978:	01800c84 	movi	r6,50
 400097c:	4001ec00 	call	4001ec0 <fwrite>
         fprintf(stderr, 
 4000980:	90c00017 	ldw	r3,0(r18)
 4000984:	010100f4 	movhi	r4,1027
 4000988:	2106df04 	addi	r4,r4,7036
 400098c:	01400044 	movi	r5,1
 4000990:	19c00317 	ldw	r7,12(r3)
 4000994:	01800f84 	movi	r6,62
 4000998:	4001ec00 	call	4001ec0 <fwrite>
      default:
         printf("\n[MicroC/OS-II]: See STDERR (FAULT_LEVEL is Unknown).\n");
         fprintf(stderr, "\n[MicroC/OS-II]: FAULT_LEVEL is unknown!?!\n");
   }
   while(1); /* Correct Program Flow never gets here. */
}
 400099c:	dfc00317 	ldw	ra,12(sp)
 40009a0:	dc800217 	ldw	r18,8(sp)
 40009a4:	dc400117 	ldw	r17,4(sp)
 40009a8:	dc000017 	ldw	r16,0(sp)
 40009ac:	dec00404 	addi	sp,sp,16
      case NONE:
         fprintf(stderr, "\n[MicroC/OS-II]: FAULT_LEVEL is NONE");
         fprintf(stderr, "\n[MicroC/OS-II]: Informational error only, control"); 
         fprintf(stderr, 
            "returned to task to complete processing at application level.\n");
         OSSchedUnlock(); /* Reenable Task Switching */
 40009b0:	400f6f81 	jmpi	400f6f8 <OSSchedUnlock>
         fault_level = TASK;
         fprintf(stderr, 
"Attempted to access a resource with no match for the required data type.\n");
         break;
      case OS_ERR_PEVENT_NULL:
         fprintf(stderr, "Attempting to access a resource pointing to NULL\n");
 40009b4:	04810134 	movhi	r18,1028
 40009b8:	94a0f704 	addi	r18,r18,-31780
 40009bc:	90800017 	ldw	r2,0(r18)
 40009c0:	010100f4 	movhi	r4,1027
 40009c4:	21063004 	addi	r4,r4,6336
 40009c8:	01400044 	movi	r5,1
 40009cc:	11c00317 	ldw	r7,12(r2)
 40009d0:	01800c44 	movi	r6,49
 40009d4:	4001ec00 	call	4001ec0 <fwrite>
 40009d8:	003f8006 	br	40007dc <alt_uCOSIIErrorHandler+0x110>
   {  
      case OS_PRIO_EXIST:
         fprintf(stderr, "Attempted to assign task priority aready in use.\n");
         break;
      case OS_PRIO_INVALID:
         fprintf(stderr, "Specified task priority higher than allowed max.\n");
 40009dc:	04810134 	movhi	r18,1028
 40009e0:	94a0f704 	addi	r18,r18,-31780
 40009e4:	90800017 	ldw	r2,0(r18)
 40009e8:	010100f4 	movhi	r4,1027
 40009ec:	2105ed04 	addi	r4,r4,6068
 40009f0:	01400044 	movi	r5,1
 40009f4:	11c00317 	ldw	r7,12(r2)
 40009f8:	01800c44 	movi	r6,49
 40009fc:	4001ec00 	call	4001ec0 <fwrite>
         fprintf(stderr, "Task can't be assigned a priority higher than %d\n",
 4000a00:	90c00017 	ldw	r3,0(r18)
 4000a04:	014100f4 	movhi	r5,1027
 4000a08:	2945fa04 	addi	r5,r5,6120
 4000a0c:	01800504 	movi	r6,20
 4000a10:	19000317 	ldw	r4,12(r3)
 4000a14:	4001dc40 	call	4001dc4 <fprintf>
 4000a18:	003f7006 	br	40007dc <alt_uCOSIIErrorHandler+0x110>
      case OS_TASK_DEL_ISR:
         fprintf(stderr, "Attempted to delete a task from an ISR\n");
         break;
      case OS_Q_FULL:
         fault_level = NONE;
         fprintf(stderr, "Attempted to post to a full message queue\n");
 4000a1c:	04810134 	movhi	r18,1028
 4000a20:	94a0f704 	addi	r18,r18,-31780
 4000a24:	90800017 	ldw	r2,0(r18)
 4000a28:	010100f4 	movhi	r4,1027
 4000a2c:	2105bb04 	addi	r4,r4,5868
 4000a30:	01400044 	movi	r5,1
 4000a34:	11c00317 	ldw	r7,12(r2)
 4000a38:	01800a84 	movi	r6,42
 4000a3c:	4001ec00 	call	4001ec0 <fwrite>
 4000a40:	003fc106 	br	4000948 <alt_uCOSIIErrorHandler+0x27c>
         fprintf(stderr, "Task Control Blocks have been exhausted\n");
         fprintf(stderr, "Current max number of tasks is %d\n",OS_MAX_TASKS);
         break;
      case OS_MBOX_FULL:
         fault_level = NONE;
         fprintf(stderr, "Attempted Post to Mailbox already holding message\n");
 4000a44:	04810134 	movhi	r18,1028
 4000a48:	94a0f704 	addi	r18,r18,-31780
 4000a4c:	90800017 	ldw	r2,0(r18)
 4000a50:	010100f4 	movhi	r4,1027
 4000a54:	21061004 	addi	r4,r4,6208
 4000a58:	01400044 	movi	r5,1
 4000a5c:	11c00317 	ldw	r7,12(r2)
 4000a60:	01800c84 	movi	r6,50
 4000a64:	4001ec00 	call	4001ec0 <fwrite>
 4000a68:	003fb706 	br	4000948 <alt_uCOSIIErrorHandler+0x27c>
         break;
      case OS_ERR_PEND_ISR:
         fprintf(stderr, "Attempting to pend for a resource in an ISR\n");
         break;
      case OS_TASK_DEL_IDLE:
         fprintf(stderr, "Attempted to delete the IDLE task\n");
 4000a6c:	04810134 	movhi	r18,1028
 4000a70:	94a0f704 	addi	r18,r18,-31780
 4000a74:	90800017 	ldw	r2,0(r18)
 4000a78:	010100f4 	movhi	r4,1027
 4000a7c:	21059c04 	addi	r4,r4,5744
 4000a80:	01400044 	movi	r5,1
 4000a84:	11c00317 	ldw	r7,12(r2)
 4000a88:	01800884 	movi	r6,34
 4000a8c:	4001ec00 	call	4001ec0 <fwrite>
 4000a90:	003f5206 	br	40007dc <alt_uCOSIIErrorHandler+0x110>
         break;
      case OS_TASK_DEL_ERR:
         fault_level = NONE;
         fprintf(stderr, "Attempted to delete a task that does not exist\n");
 4000a94:	04810134 	movhi	r18,1028
 4000a98:	94a0f704 	addi	r18,r18,-31780
 4000a9c:	90800017 	ldw	r2,0(r18)
 4000aa0:	010100f4 	movhi	r4,1027
 4000aa4:	2105a504 	addi	r4,r4,5780
 4000aa8:	01400044 	movi	r5,1
 4000aac:	11c00317 	ldw	r7,12(r2)
 4000ab0:	01800bc4 	movi	r6,47
 4000ab4:	4001ec00 	call	4001ec0 <fwrite>
 4000ab8:	003fa306 	br	4000948 <alt_uCOSIIErrorHandler+0x27c>
   }
   
   fault_level = SYSTEM;  
   OSSchedLock();  /* Disable Task Switching but still service other IRQs */
      
   switch (error_code)
 4000abc:	00801904 	movi	r2,100
 4000ac0:	80802a26 	beq	r16,r2,4000b6c <alt_uCOSIIErrorHandler+0x4a0>
 4000ac4:	00803fc4 	movi	r2,255
 4000ac8:	80801c26 	beq	r16,r2,4000b3c <alt_uCOSIIErrorHandler+0x470>
 4000acc:	00801084 	movi	r2,66
 4000ad0:	80bf641e 	bne	r16,r2,4000864 <alt_uCOSIIErrorHandler+0x198>
         fprintf(stderr, "Specified task priority higher than allowed max.\n");
         fprintf(stderr, "Task can't be assigned a priority higher than %d\n",
            OS_LOWEST_PRIO);
         break;
      case OS_NO_MORE_TCB:
         fprintf(stderr, "Task Control Blocks have been exhausted\n");
 4000ad4:	04810134 	movhi	r18,1028
 4000ad8:	94a0f704 	addi	r18,r18,-31780
 4000adc:	90800017 	ldw	r2,0(r18)
 4000ae0:	010100f4 	movhi	r4,1027
 4000ae4:	21053404 	addi	r4,r4,5328
 4000ae8:	01400044 	movi	r5,1
 4000aec:	11c00317 	ldw	r7,12(r2)
 4000af0:	01800a04 	movi	r6,40
 4000af4:	4001ec00 	call	4001ec0 <fwrite>
         fprintf(stderr, "Current max number of tasks is %d\n",OS_MAX_TASKS);
 4000af8:	90c00017 	ldw	r3,0(r18)
 4000afc:	014100f4 	movhi	r5,1027
 4000b00:	29460704 	addi	r5,r5,6172
 4000b04:	01800284 	movi	r6,10
 4000b08:	19000317 	ldw	r4,12(r3)
 4000b0c:	4001dc40 	call	4001dc4 <fprintf>
 4000b10:	003f3206 	br	40007dc <alt_uCOSIIErrorHandler+0x110>
      case OS_TASK_DEL_ERR:
         fault_level = NONE;
         fprintf(stderr, "Attempted to delete a task that does not exist\n");
         break;
      case OS_TASK_DEL_ISR:
         fprintf(stderr, "Attempted to delete a task from an ISR\n");
 4000b14:	04810134 	movhi	r18,1028
 4000b18:	94a0f704 	addi	r18,r18,-31780
 4000b1c:	90800017 	ldw	r2,0(r18)
 4000b20:	010100f4 	movhi	r4,1027
 4000b24:	2105b104 	addi	r4,r4,5828
 4000b28:	01400044 	movi	r5,1
 4000b2c:	11c00317 	ldw	r7,12(r2)
 4000b30:	018009c4 	movi	r6,39
 4000b34:	4001ec00 	call	4001ec0 <fwrite>
 4000b38:	003f2806 	br	40007dc <alt_uCOSIIErrorHandler+0x110>
         fault_level = TASK;
         fprintf(stderr, "Attempted to post a mutex not owned by the task\n");
         break;
      case EXPANDED_DIAGNOSIS_CODE:      
         fault_level = SYSTEM;
         printf(
 4000b3c:	010100f4 	movhi	r4,1027
 4000b40:	21065604 	addi	r4,r4,6488
"\n[MicroC/OS-II]: See STDERR for expanded diagnosis translation.");    
         fprintf(stderr, "\n[MicroC/OS-II]: Expanded Diagnosis: %s.", 
 4000b44:	04810134 	movhi	r18,1028
 4000b48:	94a0f704 	addi	r18,r18,-31780
         fault_level = TASK;
         fprintf(stderr, "Attempted to post a mutex not owned by the task\n");
         break;
      case EXPANDED_DIAGNOSIS_CODE:      
         fault_level = SYSTEM;
         printf(
 4000b4c:	4002ed40 	call	4002ed4 <printf>
"\n[MicroC/OS-II]: See STDERR for expanded diagnosis translation.");    
         fprintf(stderr, "\n[MicroC/OS-II]: Expanded Diagnosis: %s.", 
 4000b50:	90c00017 	ldw	r3,0(r18)
 4000b54:	880d883a 	mov	r6,r17
 4000b58:	014100f4 	movhi	r5,1027
 4000b5c:	29466604 	addi	r5,r5,6552
 4000b60:	19000317 	ldw	r4,12(r3)
 4000b64:	4001dc40 	call	4001dc4 <fprintf>
 4000b68:	003f1c06 	br	40007dc <alt_uCOSIIErrorHandler+0x110>
         fault_level = NONE;
         fprintf(stderr, "Attempted to post to a full message queue\n");
         break;
      case OS_ERR_NOT_MUTEX_OWNER:
         fault_level = TASK;
         fprintf(stderr, "Attempted to post a mutex not owned by the task\n");
 4000b6c:	04810134 	movhi	r18,1028
 4000b70:	94a0f704 	addi	r18,r18,-31780
 4000b74:	90800017 	ldw	r2,0(r18)
 4000b78:	010100f4 	movhi	r4,1027
 4000b7c:	21064904 	addi	r4,r4,6436
 4000b80:	01400044 	movi	r5,1
 4000b84:	11c00317 	ldw	r7,12(r2)
 4000b88:	01800c04 	movi	r6,48
 4000b8c:	4001ec00 	call	4001ec0 <fwrite>
 4000b90:	003ef106 	br	4000758 <alt_uCOSIIErrorHandler+0x8c>

04000b94 <alt_ucosii_check_return_code>:
 * integrity issues have occurred during a MicroC/OS-II system call.  If something
 * has occurred, the scheduling is turned off and the error handler is called.
 */

void alt_ucosii_check_return_code(INT8U return_code)
{
 4000b94:	deffff04 	addi	sp,sp,-4
  if(return_code != OS_NO_ERR)
 4000b98:	21003fcc 	andi	r4,r4,255
 * integrity issues have occurred during a MicroC/OS-II system call.  If something
 * has occurred, the scheduling is turned off and the error handler is called.
 */

void alt_ucosii_check_return_code(INT8U return_code)
{
 4000b9c:	dfc00015 	stw	ra,0(sp)
  if(return_code != OS_NO_ERR)
 4000ba0:	2000031e 	bne	r4,zero,4000bb0 <alt_ucosii_check_return_code+0x1c>
  {
    OSSchedLock();  /* Disable Task Switching but still service other IRQs */
	alt_uCOSIIErrorHandler(EXPANDED_DIAGNOSIS_CODE,"[MicroC/OS-II] - Check return code error");
	OSSchedUnlock(); /* Enable Task Switching */
  }
}
 4000ba4:	dfc00017 	ldw	ra,0(sp)
 4000ba8:	dec00104 	addi	sp,sp,4
 4000bac:	f800283a 	ret

void alt_ucosii_check_return_code(INT8U return_code)
{
  if(return_code != OS_NO_ERR)
  {
    OSSchedLock();  /* Disable Task Switching but still service other IRQs */
 4000bb0:	400f6b00 	call	400f6b0 <OSSchedLock>
	alt_uCOSIIErrorHandler(EXPANDED_DIAGNOSIS_CODE,"[MicroC/OS-II] - Check return code error");
 4000bb4:	01003fc4 	movi	r4,255
 4000bb8:	014100f4 	movhi	r5,1027
 4000bbc:	29471104 	addi	r5,r5,7236
 4000bc0:	40006cc0 	call	40006cc <alt_uCOSIIErrorHandler>
	OSSchedUnlock(); /* Enable Task Switching */
  }
}
 4000bc4:	dfc00017 	ldw	ra,0(sp)
 4000bc8:	dec00104 	addi	sp,sp,4
{
  if(return_code != OS_NO_ERR)
  {
    OSSchedLock();  /* Disable Task Switching but still service other IRQs */
	alt_uCOSIIErrorHandler(EXPANDED_DIAGNOSIS_CODE,"[MicroC/OS-II] - Check return code error");
	OSSchedUnlock(); /* Enable Task Switching */
 4000bcc:	400f6f81 	jmpi	400f6f8 <OSSchedUnlock>

04000bd0 <alt_NetworkErrorHandler>:
   }
   while(1); /* Correct Program Flow never gets here. */
}

void alt_NetworkErrorHandler(INT8U error_code, void *expanded_diagnosis_ptr)
{
 4000bd0:	defffb04 	addi	sp,sp,-20
 4000bd4:	dc800215 	stw	r18,8(sp)
   FAULT_LEVEL fault_level;

   if(error_code == OS_NO_ERR)
 4000bd8:	24803fcc 	andi	r18,r4,255
   }
   while(1); /* Correct Program Flow never gets here. */
}

void alt_NetworkErrorHandler(INT8U error_code, void *expanded_diagnosis_ptr)
{
 4000bdc:	dc400115 	stw	r17,4(sp)
 4000be0:	dfc00415 	stw	ra,16(sp)
 4000be4:	dcc00315 	stw	r19,12(sp)
 4000be8:	dc000015 	stw	r16,0(sp)
 4000bec:	2823883a 	mov	r17,r5
   FAULT_LEVEL fault_level;

   if(error_code == OS_NO_ERR)
 4000bf0:	9000071e 	bne	r18,zero,4000c10 <alt_NetworkErrorHandler+0x40>
      default:
         printf("\n[Network]: See STDERR (FAULT_LEVEL is unknown).\n");    
         fprintf(stderr, "\n[Network] FAULT_LEVEL is unknown !?!\n");
   }
   while(1); /* Correct Program Flow never gets here. */
}
 4000bf4:	dfc00417 	ldw	ra,16(sp)
 4000bf8:	dcc00317 	ldw	r19,12(sp)
 4000bfc:	dc800217 	ldw	r18,8(sp)
 4000c00:	dc400117 	ldw	r17,4(sp)
 4000c04:	dc000017 	ldw	r16,0(sp)
 4000c08:	dec00504 	addi	sp,sp,20
 4000c0c:	f800283a 	ret
   }

   fault_level = SYSTEM;   
   OSSchedLock();  /* Disable Task Switching but still service other IRQs */  

   if (error_code == EXPANDED_DIAGNOSIS_CODE) 
 4000c10:	04c03fc4 	movi	r19,255
   {
      return;
   }

   fault_level = SYSTEM;   
   OSSchedLock();  /* Disable Task Switching but still service other IRQs */  
 4000c14:	400f6b00 	call	400f6b0 <OSSchedLock>

   if (error_code == EXPANDED_DIAGNOSIS_CODE) 
 4000c18:	94c02626 	beq	r18,r19,4000cb4 <alt_NetworkErrorHandler+0xe4>
   }
   else 
   {
      fault_level = TASK;
      printf("\n[Network]: See STDERR.\n");    
      fprintf(stderr, "\n[Network]: Error_code %d!\n", error_code);        
 4000c1c:	04010134 	movhi	r16,1028
 4000c20:	8420f704 	addi	r16,r16,-31780
      perror("\n[Network]:  ERRNO: ");
   }
   else 
   {
      fault_level = TASK;
      printf("\n[Network]: See STDERR.\n");    
 4000c24:	010100f4 	movhi	r4,1027
 4000c28:	21076104 	addi	r4,r4,7556
 4000c2c:	4002fec0 	call	4002fec <puts>
      fprintf(stderr, "\n[Network]: Error_code %d!\n", error_code);        
 4000c30:	80c00017 	ldw	r3,0(r16)
 4000c34:	900d883a 	mov	r6,r18
 4000c38:	014100f4 	movhi	r5,1027
 4000c3c:	29476704 	addi	r5,r5,7580
 4000c40:	19000317 	ldw	r4,12(r3)
 4000c44:	4001dc40 	call	4001dc4 <fprintf>
      perror("\n[Network]:  ERRNO: ");
 4000c48:	010100f4 	movhi	r4,1027
 4000c4c:	21072f04 	addi	r4,r4,7356
 4000c50:	4002ec00 	call	4002ec0 <perror>
   /* Process error based on fault level, reenable scheduler if appropriate. */     
   switch (fault_level) 
   {
      case TASK:
         /* Error can be isolated by killing the task */
         printf("\n[Network]: See STDERR (FAULT_LEVEL is TASK).");
 4000c54:	010100f4 	movhi	r4,1027
 4000c58:	21076e04 	addi	r4,r4,7608
 4000c5c:	4002ed40 	call	4002ed4 <printf>
         fprintf(stderr, "\n[Network]: FAULT_LEVEL is TASK");
 4000c60:	80c00017 	ldw	r3,0(r16)
 4000c64:	010100f4 	movhi	r4,1027
 4000c68:	21077a04 	addi	r4,r4,7656
 4000c6c:	01400044 	movi	r5,1
 4000c70:	19c00317 	ldw	r7,12(r3)
 4000c74:	018007c4 	movi	r6,31
 4000c78:	4001ec00 	call	4001ec0 <fwrite>
         fprintf(stderr, "\n[Network]: Task is being deleted.\n");
 4000c7c:	80c00017 	ldw	r3,0(r16)
 4000c80:	01400044 	movi	r5,1
 4000c84:	018008c4 	movi	r6,35
 4000c88:	19c00317 	ldw	r7,12(r3)
 4000c8c:	010100f4 	movhi	r4,1027
 4000c90:	21078204 	addi	r4,r4,7688
 4000c94:	4001ec00 	call	4001ec0 <fwrite>
         OSSchedUnlock(); /* Reenable Task Switching */
 4000c98:	400f6f80 	call	400f6f8 <OSSchedUnlock>
         OSTaskDel(OS_PRIO_SELF);
 4000c9c:	9809883a 	mov	r4,r19
 4000ca0:	40126500 	call	4012650 <OSTaskDel>
         /* Reinvoke uCOSII error handler in case task deletion fails, in 
          * which case fault_level for this secondary error will be SYSTEM. */
         alt_uCOSIIErrorHandler(error_code, 0);         
 4000ca4:	000b883a 	mov	r5,zero
 4000ca8:	9009883a 	mov	r4,r18
 4000cac:	40006cc0 	call	40006cc <alt_uCOSIIErrorHandler>
 4000cb0:	003fff06 	br	4000cb0 <alt_NetworkErrorHandler+0xe0>

   if (error_code == EXPANDED_DIAGNOSIS_CODE) 
   {
      fault_level = SYSTEM;
      printf("\n[Network]: See STDERR for expanded diagnosis translation.");    
      fprintf(stderr, "\n[Network]: %s", (char *)expanded_diagnosis_ptr);
 4000cb4:	04010134 	movhi	r16,1028
 4000cb8:	8420f704 	addi	r16,r16,-31780
   OSSchedLock();  /* Disable Task Switching but still service other IRQs */  

   if (error_code == EXPANDED_DIAGNOSIS_CODE) 
   {
      fault_level = SYSTEM;
      printf("\n[Network]: See STDERR for expanded diagnosis translation.");    
 4000cbc:	010100f4 	movhi	r4,1027
 4000cc0:	21071c04 	addi	r4,r4,7280
 4000cc4:	4002ed40 	call	4002ed4 <printf>
      fprintf(stderr, "\n[Network]: %s", (char *)expanded_diagnosis_ptr);
 4000cc8:	80c00017 	ldw	r3,0(r16)
 4000ccc:	880d883a 	mov	r6,r17
 4000cd0:	014100f4 	movhi	r5,1027
 4000cd4:	29472b04 	addi	r5,r5,7340
 4000cd8:	19000317 	ldw	r4,12(r3)
 4000cdc:	4001dc40 	call	4001dc4 <fprintf>
      /* Check errno also in case it has been set. */
      perror("\n[Network]:  ERRNO: ");
 4000ce0:	010100f4 	movhi	r4,1027
 4000ce4:	21072f04 	addi	r4,r4,7356
 4000ce8:	4002ec00 	call	4002ec0 <perror>
          * which case fault_level for this secondary error will be SYSTEM. */
         alt_uCOSIIErrorHandler(error_code, 0);         
         break;
      case SYSTEM:
         /* Total System Failure, Restart Required */
         printf("\n[Network]: See STDERR (FAULT_LEVEL is SYSTEM).");    
 4000cec:	010100f4 	movhi	r4,1027
 4000cf0:	21073504 	addi	r4,r4,7380
 4000cf4:	4002ed40 	call	4002ed4 <printf>
         fprintf(stderr, "\n[Network]: FAULT_LEVEL is SYSTEM.");
 4000cf8:	80c00017 	ldw	r3,0(r16)
 4000cfc:	010100f4 	movhi	r4,1027
 4000d00:	21074104 	addi	r4,r4,7428
 4000d04:	01400044 	movi	r5,1
 4000d08:	19c00317 	ldw	r7,12(r3)
 4000d0c:	01800884 	movi	r6,34
 4000d10:	4001ec00 	call	4001ec0 <fwrite>
         fprintf(stderr, "\n[Network]: FATAL Error, Restart required.");
 4000d14:	80c00017 	ldw	r3,0(r16)
 4000d18:	010100f4 	movhi	r4,1027
 4000d1c:	21074a04 	addi	r4,r4,7464
 4000d20:	01400044 	movi	r5,1
 4000d24:	19c00317 	ldw	r7,12(r3)
 4000d28:	01800a84 	movi	r6,42
 4000d2c:	4001ec00 	call	4001ec0 <fwrite>
         fprintf(stderr, "\n[Network]: Locking scheduler - endless loop.\n");
 4000d30:	80c00017 	ldw	r3,0(r16)
 4000d34:	010100f4 	movhi	r4,1027
 4000d38:	21075504 	addi	r4,r4,7508
 4000d3c:	01400044 	movi	r5,1
 4000d40:	19c00317 	ldw	r7,12(r3)
 4000d44:	01800b84 	movi	r6,46
 4000d48:	4001ec00 	call	4001ec0 <fwrite>
 4000d4c:	003fff06 	br	4000d4c <alt_NetworkErrorHandler+0x17c>

04000d50 <main>:
  alt_uCOSIIErrorHandler(error_code, 0);
  while (1); /* Correct Program Flow should never get here */
}

int main ()
{
 4000d50:	defffa04 	addi	sp,sp,-24
 4000d54:	dfc00515 	stw	ra,20(sp)
  INT8U error_code;

  setup_phy();
 4000d58:	4001c180 	call	4001c18 <setup_phy>

  /* Clear the RTOS timer */
  OSTimeSet(0);
 4000d5c:	0009883a 	mov	r4,zero
 4000d60:	4012fac0 	call	4012fac <OSTimeSet>

  printf("\n\nNTP Client starting up\n\n");
 4000d64:	010100f4 	movhi	r4,1027
 4000d68:	21078b04 	addi	r4,r4,7724
 4000d6c:	4002fec0 	call	4002fec <puts>
  
  /* NTPInitialTask will initialize the NicheStack
   * TCP/IP Stack and then initialize the rest of the 
   * RTOS structures and tasks. 
   */  
  error_code = OSTaskCreateExt(NTPInitialTask,
 4000d70:	00c00204 	movi	r3,8
 4000d74:	02010134 	movhi	r8,1028
 4000d78:	4229d504 	addi	r8,r8,-22700
 4000d7c:	41880004 	addi	r6,r8,8192
 4000d80:	180f883a 	mov	r7,r3
 4000d84:	01010034 	movhi	r4,1024
 4000d88:	21037304 	addi	r4,r4,3532
 4000d8c:	000b883a 	mov	r5,zero
 4000d90:	00820004 	movi	r2,2048
 4000d94:	d8c00015 	stw	r3,0(sp)
 4000d98:	da000115 	stw	r8,4(sp)
 4000d9c:	d8800215 	stw	r2,8(sp)
 4000da0:	d8000315 	stw	zero,12(sp)
 4000da4:	d8000415 	stw	zero,16(sp)
 4000da8:	40124d40 	call	40124d4 <OSTaskCreateExt>
                             NTP_INITIAL_TASK_PRIORITY,
                             NTPInitialTaskStk,
                             TASK_STACKSIZE,
                             NULL,
                             0);
  alt_uCOSIIErrorHandler(error_code, 0);
 4000dac:	11003fcc 	andi	r4,r2,255
 4000db0:	000b883a 	mov	r5,zero
 4000db4:	40006cc0 	call	40006cc <alt_uCOSIIErrorHandler>

/*
   * As with all MicroC/OS-II designs, once the initial thread(s) and 
   * associated RTOS resources are declared, we start the RTOS. That's it!
   */  
  printf("\n\nRTOS starting up\n\n");
 4000db8:	010100f4 	movhi	r4,1027
 4000dbc:	21079204 	addi	r4,r4,7752
 4000dc0:	4002fec0 	call	4002fec <puts>
  OSStart();
 4000dc4:	400ed800 	call	400ed80 <OSStart>
 4000dc8:	003fff06 	br	4000dc8 <main+0x78>

04000dcc <NTPInitialTask>:
/* NTPInitialTask will initialize the NicheStack
 * TCP/IP Stack and then initialize the rest of the Simple Socket Server example 
 * RTOS structures and tasks. 
 */
void NTPInitialTask(void *task_data)
{
 4000dcc:	defff904 	addi	sp,sp,-28
 4000dd0:	dfc00615 	stw	ra,24(sp)
 4000dd4:	dc000515 	stw	r16,20(sp)
   * NicheStack is initialized from a task, so that RTOS will have started, and 
   * I/O drivers are available.  Two tasks are created:
   *    "Inet main"  task with priority 2
   *    "clock tick" task with priority 3
   */   
  alt_iniche_init();
 4000dd8:	401cedc0 	call	401cedc <alt_iniche_init>
  netmain(); 

  /* Wait for the network stack to be ready before proceeding. 
   * iniche_net_ready indicates that TCP/IP stack is ready, and IP address is obtained.
   */
  while (!iniche_net_ready)
 4000ddc:	04010134 	movhi	r16,1028
 4000de0:	84291704 	addi	r16,r16,-23460
   * I/O drivers are available.  Two tasks are created:
   *    "Inet main"  task with priority 2
   *    "clock tick" task with priority 3
   */   
  alt_iniche_init();
  netmain(); 
 4000de4:	401a17c0 	call	401a17c <netmain>

  /* Wait for the network stack to be ready before proceeding. 
   * iniche_net_ready indicates that TCP/IP stack is ready, and IP address is obtained.
   */
  while (!iniche_net_ready)
 4000de8:	80c00017 	ldw	r3,0(r16)
 4000dec:	1800041e 	bne	r3,zero,4000e00 <NTPInitialTask+0x34>
    TK_SLEEP(1);
 4000df0:	01000084 	movi	r4,2
 4000df4:	4012fd00 	call	4012fd0 <OSTimeDly>
  netmain(); 

  /* Wait for the network stack to be ready before proceeding. 
   * iniche_net_ready indicates that TCP/IP stack is ready, and IP address is obtained.
   */
  while (!iniche_net_ready)
 4000df8:	80800017 	ldw	r2,0(r16)
 4000dfc:	103ffc26 	beq	r2,zero,4000df0 <NTPInitialTask+0x24>

  /* Now that the stack is running, perform the application initialization steps */
  
  /* Application Specific Task Launching Code Block Begin */

  printf("\nNTP starting up\n");
 4000e00:	010100f4 	movhi	r4,1027
 4000e04:	21079704 	addi	r4,r4,7772
 4000e08:	4002fec0 	call	4002fec <puts>

  /* Create the main ntp task. - create main simple socket server task*/
  TK_NEWTASK(&ntp_task);
 4000e0c:	010100f4 	movhi	r4,1027
 4000e10:	2119bd04 	addi	r4,r4,26356
 4000e14:	401cb0c0 	call	401cb0c <TK_NEWTASK>
  
  /*create os data structures */
  NTPCreateOSDataStructs(); 
 4000e18:	40011880 	call	4001188 <NTPCreateOSDataStructs>

  /* create the other tasks */
  error_code = OSTaskCreateExt(lcddisplaytime_task,
 4000e1c:	02010134 	movhi	r8,1028
 4000e20:	4231d504 	addi	r8,r8,-14508
 4000e24:	00800284 	movi	r2,10
 4000e28:	00c20004 	movi	r3,2048
 4000e2c:	4187ff04 	addi	r6,r8,8188
 4000e30:	100f883a 	mov	r7,r2
 4000e34:	01010034 	movhi	r4,1024
 4000e38:	21069d04 	addi	r4,r4,6772
 4000e3c:	000b883a 	mov	r5,zero
 4000e40:	d8c00215 	stw	r3,8(sp)
 4000e44:	da000115 	stw	r8,4(sp)
 4000e48:	d8800015 	stw	r2,0(sp)
 4000e4c:	d8000315 	stw	zero,12(sp)
 4000e50:	d8000415 	stw	zero,16(sp)
 4000e54:	40124d40 	call	40124d4 <OSTaskCreateExt>
								lcddisplaytime_task_stack,
                             TASK_STACKSIZE,
                             NULL,
                             0);
   
   alt_uCOSIIErrorHandler(error_code, 0);
 4000e58:	11003fcc 	andi	r4,r2,255
 4000e5c:	000b883a 	mov	r5,zero
 4000e60:	40006cc0 	call	40006cc <alt_uCOSIIErrorHandler>
   printf("\n\nNTP LCD Time Display Task Created\n\n");
 4000e64:	010100f4 	movhi	r4,1027
 4000e68:	21079c04 	addi	r4,r4,7792
 4000e6c:	4002fec0 	call	4002fec <puts>
  

  /* Application Specific Task Launching Code Block End */
  
  /*This task is deleted because there is no need for it to run again */
  error_code = OSTaskDel(OS_PRIO_SELF);
 4000e70:	01003fc4 	movi	r4,255
 4000e74:	40126500 	call	4012650 <OSTaskDel>
  alt_uCOSIIErrorHandler(error_code, 0);
 4000e78:	11003fcc 	andi	r4,r2,255
 4000e7c:	000b883a 	mov	r5,zero
 4000e80:	40006cc0 	call	40006cc <alt_uCOSIIErrorHandler>
 4000e84:	003fff06 	br	4000e84 <NTPInitialTask+0xb8>

04000e88 <get_ip_addr>:
    IP4_ADDR(*ipaddr, IPADDR0, IPADDR1, IPADDR2, IPADDR3);
    IP4_ADDR(*gw, GWADDR0, GWADDR1, GWADDR2, GWADDR3);
    IP4_ADDR(*netmask, MSKADDR0, MSKADDR1, MSKADDR2, MSKADDR3);

#ifdef DHCP_CLIENT
    *use_dhcp = 1;
 4000e88:	d9000017 	ldw	r4,0(sp)
                ip_addr* netmask,
                ip_addr* gw,
                int* use_dhcp)
{

    IP4_ADDR(*ipaddr, IPADDR0, IPADDR1, IPADDR2, IPADDR3);
 4000e8c:	28000015 	stw	zero,0(r5)
    IP4_ADDR(*gw, GWADDR0, GWADDR1, GWADDR2, GWADDR3);
 4000e90:	38000015 	stw	zero,0(r7)
    IP4_ADDR(*netmask, MSKADDR0, MSKADDR1, MSKADDR2, MSKADDR3);

#ifdef DHCP_CLIENT
    *use_dhcp = 1;
 4000e94:	00800044 	movi	r2,1
                int* use_dhcp)
{

    IP4_ADDR(*ipaddr, IPADDR0, IPADDR1, IPADDR2, IPADDR3);
    IP4_ADDR(*gw, GWADDR0, GWADDR1, GWADDR2, GWADDR3);
    IP4_ADDR(*netmask, MSKADDR0, MSKADDR1, MSKADDR2, MSKADDR3);
 4000e98:	00c04034 	movhi	r3,256
 4000e9c:	18ffffc4 	addi	r3,r3,-1
 4000ea0:	30c00015 	stw	r3,0(r6)

#ifdef DHCP_CLIENT
    *use_dhcp = 1;
 4000ea4:	20800015 	stw	r2,0(r4)
        ip4_addr4(*ipaddr));
#endif /* not DHCP_CLIENT */

    /* Non-standard API: return 1 for success */
    return 1;
}
 4000ea8:	f800283a 	ret

04000eac <generate_mac_addr>:
 * Development Board serial number is 040800017, the corresponding ethernet 
 * number generated will be 00:07:ED:FF:8F:11.
 * 
 */
error_t generate_mac_addr(unsigned char mac_addr[6])
{
 4000eac:	defffc04 	addi	sp,sp,-16
 4000eb0:	dfc00315 	stw	ra,12(sp)
    
    if (1)
    {
        /* This is the Altera Vendor ID */
        mac_addr[0] = 0x0;
        mac_addr[1] = 0x1;
 4000eb4:	00800044 	movi	r2,1
    error_t error = -1;
    
    if (1)
    {
        /* This is the Altera Vendor ID */
        mac_addr[0] = 0x0;
 4000eb8:	20000005 	stb	zero,0(r4)
        mac_addr[1] = 0x1;
 4000ebc:	208f883a 	add	r7,r4,r2
        mac_addr[2] = 0x2;
 4000ec0:	00c00084 	movi	r3,2
    
    if (1)
    {
        /* This is the Altera Vendor ID */
        mac_addr[0] = 0x0;
        mac_addr[1] = 0x1;
 4000ec4:	38800005 	stb	r2,0(r7)
        mac_addr[2] = 0x2;
 4000ec8:	20d5883a 	add	r10,r4,r3
        
        mac_addr[3] = 0x3;
 4000ecc:	008000c4 	movi	r2,3
    if (1)
    {
        /* This is the Altera Vendor ID */
        mac_addr[0] = 0x0;
        mac_addr[1] = 0x1;
        mac_addr[2] = 0x2;
 4000ed0:	50c00005 	stb	r3,0(r10)
        
        mac_addr[3] = 0x3;
 4000ed4:	2093883a 	add	r9,r4,r2
        mac_addr[4] = 0x4;
 4000ed8:	00c00104 	movi	r3,4
        /* This is the Altera Vendor ID */
        mac_addr[0] = 0x0;
        mac_addr[1] = 0x1;
        mac_addr[2] = 0x2;
        
        mac_addr[3] = 0x3;
 4000edc:	48800005 	stb	r2,0(r9)
        mac_addr[4] = 0x4;
 4000ee0:	20d1883a 	add	r8,r4,r3
 4000ee4:	40c00005 	stb	r3,0(r8)
        mac_addr[5] = 0x5;
 4000ee8:	00800144 	movi	r2,5
 4000eec:	20800145 	stb	r2,5(r4)
        
        printf("Your Ethernet MAC address is %02x:%02x:%02x:%02x:%02x:%02x\n", 
 4000ef0:	48800003 	ldbu	r2,0(r9)
 4000ef4:	21400003 	ldbu	r5,0(r4)
 4000ef8:	39800003 	ldbu	r6,0(r7)
 4000efc:	40c00003 	ldbu	r3,0(r8)
 4000f00:	51c00003 	ldbu	r7,0(r10)
 4000f04:	010100f4 	movhi	r4,1027
 4000f08:	2107a704 	addi	r4,r4,7836
 4000f0c:	d8800015 	stw	r2,0(sp)
 4000f10:	00800144 	movi	r2,5
 4000f14:	d8c00115 	stw	r3,4(sp)
 4000f18:	d8800215 	stw	r2,8(sp)
 4000f1c:	4002ed40 	call	4002ed4 <printf>
        
        error = 0;
    }
  
    return error;    
}
 4000f20:	0005883a 	mov	r2,zero
 4000f24:	dfc00317 	ldw	ra,12(sp)
 4000f28:	dec00404 	addi	sp,sp,16
 4000f2c:	f800283a 	ret

04000f30 <get_mac_addr>:
*
*/
int get_mac_addr(NET net, unsigned char mac_addr[6])
{
    error_t error = 0;
    error = generate_mac_addr(mac_addr);
 4000f30:	2809883a 	mov	r4,r5
 4000f34:	4000eac1 	jmpi	4000eac <generate_mac_addr>

04000f38 <NTPTask>:
 * is sent and upon receiving a response, the system clock is set.
 */
//void ntp_func(void* pd)
void NTPTask(void* pd)
//void NTPTask(void)
{
 4000f38:	deff8804 	addi	sp,sp,-480
 4000f3c:	dd807415 	stw	r22,464(sp)

  /* The size of addr struct is used several times, so we just get the size once here.*/
  sock_len = sizeof(addr);

  /*Clear all of our data structures*/
  memset (&ntp_send_data, 0, sizeof(ntp_send_data));
 4000f40:	dd801b04 	addi	r22,sp,108
  fd_set     socket_fds;
  int        req_delay = 1; //delay in minutes
  struct timeval timeout = {5, 0}; //timeout in {seconds, microseconds}

  /* The size of addr struct is used several times, so we just get the size once here.*/
  sock_len = sizeof(addr);
 4000f44:	00c00404 	movi	r3,16
 * is sent and upon receiving a response, the system clock is set.
 */
//void ntp_func(void* pd)
void NTPTask(void* pd)
//void NTPTask(void)
{
 4000f48:	df007615 	stw	fp,472(sp)

  /* The size of addr struct is used several times, so we just get the size once here.*/
  sock_len = sizeof(addr);

  /*Clear all of our data structures*/
  memset (&ntp_send_data, 0, sizeof(ntp_send_data));
 4000f4c:	b009883a 	mov	r4,r22
 4000f50:	000b883a 	mov	r5,zero
 4000f54:	01801204 	movi	r6,72
  alt_u8     *send_buffer;
  alt_u8     *recv_buffer;
  alt_u32    sock_len;
  fd_set     socket_fds;
  int        req_delay = 1; //delay in minutes
  struct timeval timeout = {5, 0}; //timeout in {seconds, microseconds}
 4000f58:	00800144 	movi	r2,5
  /* The size of addr struct is used several times, so we just get the size once here.*/
  sock_len = sizeof(addr);

  /*Clear all of our data structures*/
  memset (&ntp_send_data, 0, sizeof(ntp_send_data));
  memset (&ntp_recv_data, 0, sizeof(ntp_recv_data));
 4000f5c:	df000904 	addi	fp,sp,36
 * is sent and upon receiving a response, the system clock is set.
 */
//void ntp_func(void* pd)
void NTPTask(void* pd)
//void NTPTask(void)
{
 4000f60:	dfc07715 	stw	ra,476(sp)
  fd_set     socket_fds;
  int        req_delay = 1; //delay in minutes
  struct timeval timeout = {5, 0}; //timeout in {seconds, microseconds}

  /* The size of addr struct is used several times, so we just get the size once here.*/
  sock_len = sizeof(addr);
 4000f64:	d8c00215 	stw	r3,8(sp)
 * is sent and upon receiving a response, the system clock is set.
 */
//void ntp_func(void* pd)
void NTPTask(void* pd)
//void NTPTask(void)
{
 4000f68:	dd007215 	stw	r20,456(sp)
 4000f6c:	dc406f15 	stw	r17,444(sp)
 4000f70:	dc006e15 	stw	r16,440(sp)
 4000f74:	ddc07515 	stw	r23,468(sp)
 4000f78:	dd407315 	stw	r21,460(sp)
 4000f7c:	dcc07115 	stw	r19,452(sp)
 4000f80:	dc807015 	stw	r18,448(sp)
  alt_u8     *send_buffer;
  alt_u8     *recv_buffer;
  alt_u32    sock_len;
  fd_set     socket_fds;
  int        req_delay = 1; //delay in minutes
  struct timeval timeout = {5, 0}; //timeout in {seconds, microseconds}
 4000f84:	d8800315 	stw	r2,12(sp)
 4000f88:	d8000415 	stw	zero,16(sp)

  /* The size of addr struct is used several times, so we just get the size once here.*/
  sock_len = sizeof(addr);

  /*Clear all of our data structures*/
  memset (&ntp_send_data, 0, sizeof(ntp_send_data));
 4000f8c:	40026a00 	call	40026a0 <memset>
  memset (&ntp_recv_data, 0, sizeof(ntp_recv_data));
 4000f90:	e009883a 	mov	r4,fp
 4000f94:	000b883a 	mov	r5,zero
 4000f98:	01801204 	movi	r6,72
 4000f9c:	40026a00 	call	40026a0 <memset>
  memset (&addr, 0, sock_len);
 4000fa0:	d9800217 	ldw	r6,8(sp)
 4000fa4:	dd000504 	addi	r20,sp,20
 4000fa8:	a009883a 	mov	r4,r20
 4000fac:	000b883a 	mov	r5,zero
 4000fb0:	40026a00 	call	40026a0 <memset>
  ntp_send_data.mode = NTP_CLIENT;

  /* Here we declare our socket. For this example we declare a UDP socket as
   * NTP uses UDP.
   */
  if((socket_fd = socket(AF_INET, SOCK_DGRAM, 0)) < 0)
 4000fb4:	04400084 	movi	r17,2
 * ntp_send_data struct to the NTP format.  Because the ntp_send_data_struct
 * has been zero initialized, all other fields will be sent as zeros. To be a
 * full implementation, other values may need to be set.  Functionally this gets
 * us what we want which is simply the time.
 */
  ntp_send_data.version_number = 3;
 4000fb8:	00c000c4 	movi	r3,3
  ntp_send_data.mode = NTP_CLIENT;

  /* Here we declare our socket. For this example we declare a UDP socket as
   * NTP uses UDP.
   */
  if((socket_fd = socket(AF_INET, SOCK_DGRAM, 0)) < 0)
 4000fbc:	8809883a 	mov	r4,r17
 4000fc0:	880b883a 	mov	r5,r17
 4000fc4:	000d883a 	mov	r6,zero
 * has been zero initialized, all other fields will be sent as zeros. To be a
 * full implementation, other values may need to be set.  Functionally this gets
 * us what we want which is simply the time.
 */
  ntp_send_data.version_number = 3;
  ntp_send_data.mode = NTP_CLIENT;
 4000fc8:	d8c01b85 	stb	r3,110(sp)
 * ntp_send_data struct to the NTP format.  Because the ntp_send_data_struct
 * has been zero initialized, all other fields will be sent as zeros. To be a
 * full implementation, other values may need to be set.  Functionally this gets
 * us what we want which is simply the time.
 */
  ntp_send_data.version_number = 3;
 4000fcc:	d8c01b45 	stb	r3,109(sp)
  ntp_send_data.mode = NTP_CLIENT;

  /* Here we declare our socket. For this example we declare a UDP socket as
   * NTP uses UDP.
   */
  if((socket_fd = socket(AF_INET, SOCK_DGRAM, 0)) < 0)
 4000fd0:	401f4ac0 	call	401f4ac <t_socket>
 4000fd4:	1021883a 	mov	r16,r2
 4000fd8:	10006616 	blt	r2,zero,4001174 <NTPTask+0x23c>
   * family.  Port number 123 is used for UDP, and finally we are broadcasting
   * this message to any NTP server.  So the IP address is specified as any.
   */
   addr.sin_family = AF_INET;
   addr.sin_port = htons(NTP_PORT_NUM);
   addr.sin_addr.s_addr = htonl(NTP_SERVER_ADDR);
 4000fdc:	00ffa174 	movhi	r3,65157
 4000fe0:	18f557c4 	addi	r3,r3,-10913

   send_buffer = (alt_u8 *)malloc(NTP_BUFFER_SIZE);
 4000fe4:	01000c04 	movi	r4,48
   * going to communicate with.  In this case, we are using the AF_INET protocol
   * family.  Port number 123 is used for UDP, and finally we are broadcasting
   * this message to any NTP server.  So the IP address is specified as any.
   */
   addr.sin_family = AF_INET;
   addr.sin_port = htons(NTP_PORT_NUM);
 4000fe8:	009ec004 	movi	r2,31488
   addr.sin_addr.s_addr = htonl(NTP_SERVER_ADDR);
 4000fec:	d8c00615 	stw	r3,24(sp)
 /* Now we fill information into our sockaddr_in struct about the server we are
   * going to communicate with.  In this case, we are using the AF_INET protocol
   * family.  Port number 123 is used for UDP, and finally we are broadcasting
   * this message to any NTP server.  So the IP address is specified as any.
   */
   addr.sin_family = AF_INET;
 4000ff0:	dc40050d 	sth	r17,20(sp)
   addr.sin_port = htons(NTP_PORT_NUM);
 4000ff4:	d880058d 	sth	r2,22(sp)
   addr.sin_addr.s_addr = htonl(NTP_SERVER_ADDR);

   send_buffer = (alt_u8 *)malloc(NTP_BUFFER_SIZE);
 4000ff8:	4001f4c0 	call	4001f4c <malloc>
   recv_buffer = (alt_u8 *)malloc(NTP_BUFFER_SIZE);
 4000ffc:	01000c04 	movi	r4,48
   */
   addr.sin_family = AF_INET;
   addr.sin_port = htons(NTP_PORT_NUM);
   addr.sin_addr.s_addr = htonl(NTP_SERVER_ADDR);

   send_buffer = (alt_u8 *)malloc(NTP_BUFFER_SIZE);
 4001000:	1027883a 	mov	r19,r2
   recv_buffer = (alt_u8 *)malloc(NTP_BUFFER_SIZE);
 4001004:	4001f4c0 	call	4001f4c <malloc>
 4001008:	1025883a 	mov	r18,r2

   memset(send_buffer, 0x0, NTP_BUFFER_SIZE);
 400100c:	9809883a 	mov	r4,r19
 4001010:	000b883a 	mov	r5,zero
 4001014:	01800c04 	movi	r6,48
 4001018:	40026a00 	call	40026a0 <memset>
   memset(recv_buffer, 0x0, NTP_BUFFER_SIZE);
 400101c:	9009883a 	mov	r4,r18
 4001020:	000b883a 	mov	r5,zero
 4001024:	01800c04 	movi	r6,48
 4001028:	40026a00 	call	40026a0 <memset>
 400102c:	dc402d04 	addi	r17,sp,180
 4001030:	85400044 	addi	r21,r16,1
 4001034:	ddc00304 	addi	r23,sp,12
 4001038:	00001106 	br	4001080 <NTPTask+0x148>
      /* set a timeout on the recieve, so we don't lock up on a missed packet */
      FD_SET(socket_fd, &socket_fds);
      select(socket_fd+1, &socket_fds, NULL, NULL, &timeout);
    }

    if(FD_ISSET(socket_fd, &socket_fds))
 400103c:	8009883a 	mov	r4,r16
 4001040:	880b883a 	mov	r5,r17
 4001044:	40216400 	call	4021640 <ifd_isset>
    {
      if(recvfrom(socket_fd, (void *)recv_buffer, NTP_BUFFER_SIZE, 0, (struct sockaddr *)&addr, (int *) &sock_len) < 0)
 4001048:	01800c04 	movi	r6,48
 400104c:	000f883a 	mov	r7,zero
 4001050:	8009883a 	mov	r4,r16
 4001054:	900b883a 	mov	r5,r18
      /* set a timeout on the recieve, so we don't lock up on a missed packet */
      FD_SET(socket_fd, &socket_fds);
      select(socket_fd+1, &socket_fds, NULL, NULL, &timeout);
    }

    if(FD_ISSET(socket_fd, &socket_fds))
 4001058:	1000311e 	bne	r2,zero,4001120 <NTPTask+0x1e8>
     * simplicity we will not implement those requirements, but set the system clock
     * and request the NTP data "req_delay" minutes from the time we get the first
     * NTP data back.
     */

    printf("Will send next NTP Request in %d minutes...\n",req_delay);
 400105c:	010100f4 	movhi	r4,1027
 4001060:	2107e004 	addi	r4,r4,8064
 4001064:	01400044 	movi	r5,1
 4001068:	4002ed40 	call	4002ed4 <printf>
    OSTimeDlyHMSM(0,req_delay,0,0);
 400106c:	000d883a 	mov	r6,zero
 4001070:	000f883a 	mov	r7,zero
 4001074:	0009883a 	mov	r4,zero
 4001078:	01400044 	movi	r5,1
 400107c:	40130740 	call	4013074 <OSTimeDlyHMSM>
   * The NTP packet received is decoded to the ntp_recv_data structure for easy 
   * access.
   */
  while(1)
  {
    encode_ntp_data(send_buffer, &ntp_send_data);
 4001080:	9809883a 	mov	r4,r19
 4001084:	b00b883a 	mov	r5,r22
 4001088:	40015f00 	call	40015f0 <encode_ntp_data>

    FD_ZERO(&socket_fds);

    if(!FD_ISSET(socket_fd, &socket_fds))
 400108c:	8009883a 	mov	r4,r16
 4001090:	880b883a 	mov	r5,r17
   */
  while(1)
  {
    encode_ntp_data(send_buffer, &ntp_send_data);

    FD_ZERO(&socket_fds);
 4001094:	d8002d15 	stw	zero,180(sp)

    if(!FD_ISSET(socket_fd, &socket_fds))
 4001098:	40216400 	call	4021640 <ifd_isset>
    {
      printf("Sending a NTP packet...\n");
 400109c:	010100f4 	movhi	r4,1027
 40010a0:	2107bf04 	addi	r4,r4,7932
  {
    encode_ntp_data(send_buffer, &ntp_send_data);

    FD_ZERO(&socket_fds);

    if(!FD_ISSET(socket_fd, &socket_fds))
 40010a4:	103fe51e 	bne	r2,zero,400103c <NTPTask+0x104>
    {
      printf("Sending a NTP packet...\n");
 40010a8:	4002fec0 	call	4002fec <puts>
      if(sendto(socket_fd, send_buffer, NTP_BUFFER_SIZE, 0, (struct sockaddr *)&addr, sock_len) < 0)
 40010ac:	d8800217 	ldw	r2,8(sp)
 40010b0:	8009883a 	mov	r4,r16
 40010b4:	980b883a 	mov	r5,r19
 40010b8:	01800c04 	movi	r6,48
 40010bc:	000f883a 	mov	r7,zero
 40010c0:	d8800115 	stw	r2,4(sp)
 40010c4:	dd000015 	stw	r20,0(sp)
 40010c8:	401e7100 	call	401e710 <t_sendto>
      {
          alt_NTPErrorHandler(EXPANDED_DIAGNOSIS_CODE,"[ntp_func] Error sending NTP packet:\n");
 40010cc:	01003fc4 	movi	r4,255
 40010d0:	014100f4 	movhi	r5,1027
 40010d4:	2947c504 	addi	r5,r5,7956
    FD_ZERO(&socket_fds);

    if(!FD_ISSET(socket_fd, &socket_fds))
    {
      printf("Sending a NTP packet...\n");
      if(sendto(socket_fd, send_buffer, NTP_BUFFER_SIZE, 0, (struct sockaddr *)&addr, sock_len) < 0)
 40010d8:	10002216 	blt	r2,zero,4001164 <NTPTask+0x22c>
      {
          alt_NTPErrorHandler(EXPANDED_DIAGNOSIS_CODE,"[ntp_func] Error sending NTP packet:\n");
      }

      /* set a timeout on the recieve, so we don't lock up on a missed packet */
      FD_SET(socket_fd, &socket_fds);
 40010dc:	8009883a 	mov	r4,r16
 40010e0:	880b883a 	mov	r5,r17
 40010e4:	40216b40 	call	40216b4 <ifd_set>
      select(socket_fd+1, &socket_fds, NULL, NULL, &timeout);
 40010e8:	000d883a 	mov	r6,zero
 40010ec:	000f883a 	mov	r7,zero
 40010f0:	a809883a 	mov	r4,r21
 40010f4:	880b883a 	mov	r5,r17
 40010f8:	ddc00015 	stw	r23,0(sp)
 40010fc:	401942c0 	call	401942c <bsd_select>
    }

    if(FD_ISSET(socket_fd, &socket_fds))
 4001100:	8009883a 	mov	r4,r16
 4001104:	880b883a 	mov	r5,r17
 4001108:	40216400 	call	4021640 <ifd_isset>
    {
      if(recvfrom(socket_fd, (void *)recv_buffer, NTP_BUFFER_SIZE, 0, (struct sockaddr *)&addr, (int *) &sock_len) < 0)
 400110c:	01800c04 	movi	r6,48
 4001110:	000f883a 	mov	r7,zero
 4001114:	8009883a 	mov	r4,r16
 4001118:	900b883a 	mov	r5,r18
      /* set a timeout on the recieve, so we don't lock up on a missed packet */
      FD_SET(socket_fd, &socket_fds);
      select(socket_fd+1, &socket_fds, NULL, NULL, &timeout);
    }

    if(FD_ISSET(socket_fd, &socket_fds))
 400111c:	103fcf26 	beq	r2,zero,400105c <NTPTask+0x124>
    {
      if(recvfrom(socket_fd, (void *)recv_buffer, NTP_BUFFER_SIZE, 0, (struct sockaddr *)&addr, (int *) &sock_len) < 0)
 4001120:	d8800204 	addi	r2,sp,8
 4001124:	dd000015 	stw	r20,0(sp)
 4001128:	d8800115 	stw	r2,4(sp)
 400112c:	40194700 	call	4019470 <bsd_recvfrom>
      {
          alt_NTPErrorHandler(EXPANDED_DIAGNOSIS_CODE,"[ntp_func] Error receiving NTP packet:\n");
 4001130:	01003fc4 	movi	r4,255
 4001134:	014100f4 	movhi	r5,1027
 4001138:	2947cf04 	addi	r5,r5,7996
      select(socket_fd+1, &socket_fds, NULL, NULL, &timeout);
    }

    if(FD_ISSET(socket_fd, &socket_fds))
    {
      if(recvfrom(socket_fd, (void *)recv_buffer, NTP_BUFFER_SIZE, 0, (struct sockaddr *)&addr, (int *) &sock_len) < 0)
 400113c:	10000b16 	blt	r2,zero,400116c <NTPTask+0x234>
      {
          alt_NTPErrorHandler(EXPANDED_DIAGNOSIS_CODE,"[ntp_func] Error receiving NTP packet:\n");
      }

      printf("Received a NTP response...\n");
 4001140:	010100f4 	movhi	r4,1027
 4001144:	2107d904 	addi	r4,r4,8036
 4001148:	4002fec0 	call	4002fec <puts>
      decode_ntp_data(recv_buffer, &ntp_recv_data);
 400114c:	e00b883a 	mov	r5,fp
 4001150:	9009883a 	mov	r4,r18
 4001154:	40011cc0 	call	40011cc <decode_ntp_data>
      setclock(ntp_recv_data.recv_timestamp1);
 4001158:	d9001217 	ldw	r4,72(sp)
 400115c:	4001b7c0 	call	4001b7c <setclock>
 4001160:	003fbe06 	br	400105c <NTPTask+0x124>
    if(!FD_ISSET(socket_fd, &socket_fds))
    {
      printf("Sending a NTP packet...\n");
      if(sendto(socket_fd, send_buffer, NTP_BUFFER_SIZE, 0, (struct sockaddr *)&addr, sock_len) < 0)
      {
          alt_NTPErrorHandler(EXPANDED_DIAGNOSIS_CODE,"[ntp_func] Error sending NTP packet:\n");
 4001164:	40001d40 	call	40001d4 <alt_NTPErrorHandler>
 4001168:	003fdc06 	br	40010dc <NTPTask+0x1a4>

    if(FD_ISSET(socket_fd, &socket_fds))
    {
      if(recvfrom(socket_fd, (void *)recv_buffer, NTP_BUFFER_SIZE, 0, (struct sockaddr *)&addr, (int *) &sock_len) < 0)
      {
          alt_NTPErrorHandler(EXPANDED_DIAGNOSIS_CODE,"[ntp_func] Error receiving NTP packet:\n");
 400116c:	40001d40 	call	40001d4 <alt_NTPErrorHandler>
 4001170:	003ff306 	br	4001140 <NTPTask+0x208>
  /* Here we declare our socket. For this example we declare a UDP socket as
   * NTP uses UDP.
   */
  if((socket_fd = socket(AF_INET, SOCK_DGRAM, 0)) < 0)
  {
	  alt_NetworkErrorHandler(EXPANDED_DIAGNOSIS_CODE,"[ntp_task] Socket creation failed");
 4001174:	01003fc4 	movi	r4,255
 4001178:	014100f4 	movhi	r5,1027
 400117c:	2947b604 	addi	r5,r5,7896
 4001180:	4000bd00 	call	4000bd0 <alt_NetworkErrorHandler>
 4001184:	003f9506 	br	4000fdc <NTPTask+0xa4>

04001188 <NTPCreateOSDataStructs>:
/*
 * Create our MicroC/OS-II resources. All of the resources beginning with 
 * "NTP" are declared in this file, and created in this function.
 */
void NTPCreateOSDataStructs(void)
{
 4001188:	deffff04 	addi	sp,sp,-4
/*
  * Create the resource for our MicroC/OS-II Queue for sending commands 
  * received on the TCP/IP socket from the SSSSimpleSocketServerTask()
  * to the LEDManagementTask().
  */
  NTPCommandQ = OSQCreate(&NTPCommandQTbl[0], NTP_COMMAND_Q_SIZE);
 400118c:	01010134 	movhi	r4,1028
 4001190:	2139d504 	addi	r4,r4,-6316
 4001194:	01410004 	movi	r5,1024
/*
 * Create our MicroC/OS-II resources. All of the resources beginning with 
 * "NTP" are declared in this file, and created in this function.
 */
void NTPCreateOSDataStructs(void)
{
 4001198:	dfc00015 	stw	ra,0(sp)
/*
  * Create the resource for our MicroC/OS-II Queue for sending commands 
  * received on the TCP/IP socket from the SSSSimpleSocketServerTask()
  * to the LEDManagementTask().
  */
  NTPCommandQ = OSQCreate(&NTPCommandQTbl[0], NTP_COMMAND_Q_SIZE);
 400119c:	4010f340 	call	4010f34 <OSQCreate>
 40011a0:	d0a7e715 	stw	r2,-24676(gp)
  if (!NTPCommandQ)
  {
     alt_uCOSIIErrorHandler(EXPANDED_DIAGNOSIS_CODE, 
 40011a4:	01003fc4 	movi	r4,255
 40011a8:	014100f4 	movhi	r5,1027
 40011ac:	2947ec04 	addi	r5,r5,8112
  * Create the resource for our MicroC/OS-II Queue for sending commands 
  * received on the TCP/IP socket from the SSSSimpleSocketServerTask()
  * to the LEDManagementTask().
  */
  NTPCommandQ = OSQCreate(&NTPCommandQTbl[0], NTP_COMMAND_Q_SIZE);
  if (!NTPCommandQ)
 40011b0:	10000326 	beq	r2,zero,40011c0 <NTPCreateOSDataStructs+0x38>
  {
     alt_uCOSIIErrorHandler(EXPANDED_DIAGNOSIS_CODE, 
     "Failed to create NTPCommandQ.\n");
  }
}
 40011b4:	dfc00017 	ldw	ra,0(sp)
 40011b8:	dec00104 	addi	sp,sp,4
 40011bc:	f800283a 	ret
 40011c0:	dfc00017 	ldw	ra,0(sp)
 40011c4:	dec00104 	addi	sp,sp,4
  * to the LEDManagementTask().
  */
  NTPCommandQ = OSQCreate(&NTPCommandQTbl[0], NTP_COMMAND_Q_SIZE);
  if (!NTPCommandQ)
  {
     alt_uCOSIIErrorHandler(EXPANDED_DIAGNOSIS_CODE, 
 40011c8:	40006cc1 	jmpi	40006cc <alt_uCOSIIErrorHandler>

040011cc <decode_ntp_data>:
 * The purpose of this function is to convert an NTP buffer area from network
 * byte order to host byte order.
 */
static int convert_ntp_data_to_host(alt_u8 * ntp_buffer)
{
 *NTP_DATA_GRAM_CONTROL_HEADER(ntp_buffer) = 
 40011cc:	20800017 	ldw	r2,0(r4)
 40011d0:	023fc014 	movui	r8,65280
 * ntp_data_gram_struc.  NTP comes a network byte order in a format described
 * in RFC 2030(SNTP) and RFC 1305(NTP).  Once the ntp_data_gram_struc is loaded
 * the user can access the data in the host byte order.
 */
int decode_ntp_data(alt_u8 * ntp_buffer, ntp_struct *ntp_data)
{
 40011d4:	defff704 	addi	sp,sp,-36
 * The purpose of this function is to convert an NTP buffer area from network
 * byte order to host byte order.
 */
static int convert_ntp_data_to_host(alt_u8 * ntp_buffer)
{
 *NTP_DATA_GRAM_CONTROL_HEADER(ntp_buffer) = 
 40011d8:	1206703a 	and	r3,r2,r8
 40011dc:	100cd23a 	srli	r6,r2,8
 40011e0:	100e963a 	slli	r7,r2,24
 40011e4:	1806923a 	slli	r3,r3,8
 40011e8:	1004d63a 	srli	r2,r2,24
 40011ec:	320c703a 	and	r6,r6,r8
 40011f0:	19c6b03a 	or	r3,r3,r7
 40011f4:	1184b03a 	or	r2,r2,r6
 40011f8:	10c4b03a 	or	r2,r2,r3
 40011fc:	20800015 	stw	r2,0(r4)
 * ntp_data_gram_struc.  NTP comes a network byte order in a format described
 * in RFC 2030(SNTP) and RFC 1305(NTP).  Once the ntp_data_gram_struc is loaded
 * the user can access the data in the host byte order.
 */
int decode_ntp_data(alt_u8 * ntp_buffer, ntp_struct *ntp_data)
{
 4001200:	df000815 	stw	fp,32(sp)
static int convert_ntp_data_to_host(alt_u8 * ntp_buffer)
{
 *NTP_DATA_GRAM_CONTROL_HEADER(ntp_buffer) = 
  ntohl(*NTP_DATA_GRAM_CONTROL_HEADER(ntp_buffer));
  
 *NTP_DATA_GRAM_ROOT_DISP(ntp_buffer) = 
 4001204:	27000204 	addi	fp,r4,8
 4001208:	e0c00017 	ldw	r3,0(fp)
 * ntp_data_gram_struc.  NTP comes a network byte order in a format described
 * in RFC 2030(SNTP) and RFC 1305(NTP).  Once the ntp_data_gram_struc is loaded
 * the user can access the data in the host byte order.
 */
int decode_ntp_data(alt_u8 * ntp_buffer, ntp_struct *ntp_data)
{
 400120c:	dd800615 	stw	r22,24(sp)
  ntohl(*NTP_DATA_GRAM_CONTROL_HEADER(ntp_buffer));
  
 *NTP_DATA_GRAM_ROOT_DISP(ntp_buffer) = 
  ntohl(*NTP_DATA_GRAM_ROOT_DISP(ntp_buffer));
 
 *NTP_DATA_GRAM_REF_ID(ntp_buffer) = 
 4001210:	25800304 	addi	r22,r4,12
static int convert_ntp_data_to_host(alt_u8 * ntp_buffer)
{
 *NTP_DATA_GRAM_CONTROL_HEADER(ntp_buffer) = 
  ntohl(*NTP_DATA_GRAM_CONTROL_HEADER(ntp_buffer));
  
 *NTP_DATA_GRAM_ROOT_DISP(ntp_buffer) = 
 4001214:	1a04703a 	and	r2,r3,r8
 4001218:	180cd23a 	srli	r6,r3,8
 400121c:	180e963a 	slli	r7,r3,24
 4001220:	1004923a 	slli	r2,r2,8
 4001224:	1806d63a 	srli	r3,r3,24
 4001228:	320c703a 	and	r6,r6,r8
 400122c:	11c4b03a 	or	r2,r2,r7
 4001230:	1986b03a 	or	r3,r3,r6
 4001234:	1886b03a 	or	r3,r3,r2
 4001238:	e0c00015 	stw	r3,0(fp)
  ntohl(*NTP_DATA_GRAM_ROOT_DISP(ntp_buffer));
 
 *NTP_DATA_GRAM_REF_ID(ntp_buffer) = 
 400123c:	b0800017 	ldw	r2,0(r22)
 * ntp_data_gram_struc.  NTP comes a network byte order in a format described
 * in RFC 2030(SNTP) and RFC 1305(NTP).  Once the ntp_data_gram_struc is loaded
 * the user can access the data in the host byte order.
 */
int decode_ntp_data(alt_u8 * ntp_buffer, ntp_struct *ntp_data)
{
 4001240:	ddc00715 	stw	r23,28(sp)
  ntohl(*NTP_DATA_GRAM_ROOT_DISP(ntp_buffer));
 
 *NTP_DATA_GRAM_REF_ID(ntp_buffer) = 
  ntohl(*NTP_DATA_GRAM_REF_ID(ntp_buffer));
 
 *NTP_DATA_GRAM_REF_TSTMP_INT(ntp_buffer) = 
 4001244:	25c00404 	addi	r23,r4,16
  ntohl(*NTP_DATA_GRAM_CONTROL_HEADER(ntp_buffer));
  
 *NTP_DATA_GRAM_ROOT_DISP(ntp_buffer) = 
  ntohl(*NTP_DATA_GRAM_ROOT_DISP(ntp_buffer));
 
 *NTP_DATA_GRAM_REF_ID(ntp_buffer) = 
 4001248:	1206703a 	and	r3,r2,r8
 400124c:	100cd23a 	srli	r6,r2,8
 4001250:	100e963a 	slli	r7,r2,24
 4001254:	1806923a 	slli	r3,r3,8
 4001258:	1004d63a 	srli	r2,r2,24
 400125c:	320c703a 	and	r6,r6,r8
 4001260:	19c6b03a 	or	r3,r3,r7
 4001264:	1184b03a 	or	r2,r2,r6
 4001268:	10c4b03a 	or	r2,r2,r3
 400126c:	b0800015 	stw	r2,0(r22)
  ntohl(*NTP_DATA_GRAM_REF_ID(ntp_buffer));
 
 *NTP_DATA_GRAM_REF_TSTMP_INT(ntp_buffer) = 
 4001270:	b8c00017 	ldw	r3,0(r23)
 * ntp_data_gram_struc.  NTP comes a network byte order in a format described
 * in RFC 2030(SNTP) and RFC 1305(NTP).  Once the ntp_data_gram_struc is loaded
 * the user can access the data in the host byte order.
 */
int decode_ntp_data(alt_u8 * ntp_buffer, ntp_struct *ntp_data)
{
 4001274:	dd000415 	stw	r20,16(sp)
  ntohl(*NTP_DATA_GRAM_REF_ID(ntp_buffer));
 
 *NTP_DATA_GRAM_REF_TSTMP_INT(ntp_buffer) = 
  ntohl(*NTP_DATA_GRAM_REF_TSTMP_INT(ntp_buffer));
 
 *NTP_DATA_GRAM_REF_TSTMP_FRAC(ntp_buffer) = 
 4001278:	25000504 	addi	r20,r4,20
  ntohl(*NTP_DATA_GRAM_ROOT_DISP(ntp_buffer));
 
 *NTP_DATA_GRAM_REF_ID(ntp_buffer) = 
  ntohl(*NTP_DATA_GRAM_REF_ID(ntp_buffer));
 
 *NTP_DATA_GRAM_REF_TSTMP_INT(ntp_buffer) = 
 400127c:	1a04703a 	and	r2,r3,r8
 4001280:	180cd23a 	srli	r6,r3,8
 4001284:	180e963a 	slli	r7,r3,24
 4001288:	1004923a 	slli	r2,r2,8
 400128c:	1806d63a 	srli	r3,r3,24
 4001290:	320c703a 	and	r6,r6,r8
 4001294:	11c4b03a 	or	r2,r2,r7
 4001298:	1986b03a 	or	r3,r3,r6
 400129c:	1886b03a 	or	r3,r3,r2
 40012a0:	b8c00015 	stw	r3,0(r23)
  ntohl(*NTP_DATA_GRAM_REF_TSTMP_INT(ntp_buffer));
 
 *NTP_DATA_GRAM_REF_TSTMP_FRAC(ntp_buffer) = 
 40012a4:	a0800017 	ldw	r2,0(r20)
 * ntp_data_gram_struc.  NTP comes a network byte order in a format described
 * in RFC 2030(SNTP) and RFC 1305(NTP).  Once the ntp_data_gram_struc is loaded
 * the user can access the data in the host byte order.
 */
int decode_ntp_data(alt_u8 * ntp_buffer, ntp_struct *ntp_data)
{
 40012a8:	dd400515 	stw	r21,20(sp)
  ntohl(*NTP_DATA_GRAM_REF_TSTMP_INT(ntp_buffer));
 
 *NTP_DATA_GRAM_REF_TSTMP_FRAC(ntp_buffer) = 
  ntohl(*NTP_DATA_GRAM_REF_TSTMP_FRAC(ntp_buffer));
 
 *NTP_DATA_GRAM_ORIG_TSTMP_INT(ntp_buffer) = 
 40012ac:	25400604 	addi	r21,r4,24
  ntohl(*NTP_DATA_GRAM_REF_ID(ntp_buffer));
 
 *NTP_DATA_GRAM_REF_TSTMP_INT(ntp_buffer) = 
  ntohl(*NTP_DATA_GRAM_REF_TSTMP_INT(ntp_buffer));
 
 *NTP_DATA_GRAM_REF_TSTMP_FRAC(ntp_buffer) = 
 40012b0:	1206703a 	and	r3,r2,r8
 40012b4:	100cd23a 	srli	r6,r2,8
 40012b8:	100e963a 	slli	r7,r2,24
 40012bc:	1806923a 	slli	r3,r3,8
 40012c0:	1004d63a 	srli	r2,r2,24
 40012c4:	320c703a 	and	r6,r6,r8
 40012c8:	19c6b03a 	or	r3,r3,r7
 40012cc:	1184b03a 	or	r2,r2,r6
 40012d0:	10c4b03a 	or	r2,r2,r3
 40012d4:	a0800015 	stw	r2,0(r20)
  ntohl(*NTP_DATA_GRAM_REF_TSTMP_FRAC(ntp_buffer));
 
 *NTP_DATA_GRAM_ORIG_TSTMP_INT(ntp_buffer) = 
 40012d8:	a8c00017 	ldw	r3,0(r21)
 * ntp_data_gram_struc.  NTP comes a network byte order in a format described
 * in RFC 2030(SNTP) and RFC 1305(NTP).  Once the ntp_data_gram_struc is loaded
 * the user can access the data in the host byte order.
 */
int decode_ntp_data(alt_u8 * ntp_buffer, ntp_struct *ntp_data)
{
 40012dc:	dc800215 	stw	r18,8(sp)
  ntohl(*NTP_DATA_GRAM_REF_TSTMP_FRAC(ntp_buffer));
 
 *NTP_DATA_GRAM_ORIG_TSTMP_INT(ntp_buffer) = 
  ntohl(*NTP_DATA_GRAM_ORIG_TSTMP_INT(ntp_buffer));
 
 *NTP_DATA_GRAM_ORIG_TSTMP_FRAC(ntp_buffer) = 
 40012e0:	24800704 	addi	r18,r4,28
  ntohl(*NTP_DATA_GRAM_REF_TSTMP_INT(ntp_buffer));
 
 *NTP_DATA_GRAM_REF_TSTMP_FRAC(ntp_buffer) = 
  ntohl(*NTP_DATA_GRAM_REF_TSTMP_FRAC(ntp_buffer));
 
 *NTP_DATA_GRAM_ORIG_TSTMP_INT(ntp_buffer) = 
 40012e4:	1a04703a 	and	r2,r3,r8
 40012e8:	180cd23a 	srli	r6,r3,8
 40012ec:	180e963a 	slli	r7,r3,24
 40012f0:	1004923a 	slli	r2,r2,8
 40012f4:	1806d63a 	srli	r3,r3,24
 40012f8:	320c703a 	and	r6,r6,r8
 40012fc:	11c4b03a 	or	r2,r2,r7
 4001300:	1986b03a 	or	r3,r3,r6
 4001304:	1886b03a 	or	r3,r3,r2
 4001308:	a8c00015 	stw	r3,0(r21)
  ntohl(*NTP_DATA_GRAM_ORIG_TSTMP_INT(ntp_buffer));
 
 *NTP_DATA_GRAM_ORIG_TSTMP_FRAC(ntp_buffer) = 
 400130c:	90800017 	ldw	r2,0(r18)
 * ntp_data_gram_struc.  NTP comes a network byte order in a format described
 * in RFC 2030(SNTP) and RFC 1305(NTP).  Once the ntp_data_gram_struc is loaded
 * the user can access the data in the host byte order.
 */
int decode_ntp_data(alt_u8 * ntp_buffer, ntp_struct *ntp_data)
{
 4001310:	dcc00315 	stw	r19,12(sp)
  ntohl(*NTP_DATA_GRAM_ORIG_TSTMP_INT(ntp_buffer));
 
 *NTP_DATA_GRAM_ORIG_TSTMP_FRAC(ntp_buffer) = 
  ntohl(*NTP_DATA_GRAM_ORIG_TSTMP_FRAC(ntp_buffer));

 *NTP_DATA_GRAM_RECV_TSTMP_INT(ntp_buffer) = 
 4001314:	24c00804 	addi	r19,r4,32
  ntohl(*NTP_DATA_GRAM_REF_TSTMP_FRAC(ntp_buffer));
 
 *NTP_DATA_GRAM_ORIG_TSTMP_INT(ntp_buffer) = 
  ntohl(*NTP_DATA_GRAM_ORIG_TSTMP_INT(ntp_buffer));
 
 *NTP_DATA_GRAM_ORIG_TSTMP_FRAC(ntp_buffer) = 
 4001318:	1206703a 	and	r3,r2,r8
 400131c:	100cd23a 	srli	r6,r2,8
 4001320:	100e963a 	slli	r7,r2,24
 4001324:	1806923a 	slli	r3,r3,8
 4001328:	1004d63a 	srli	r2,r2,24
 400132c:	320c703a 	and	r6,r6,r8
 4001330:	19c6b03a 	or	r3,r3,r7
 4001334:	1184b03a 	or	r2,r2,r6
 4001338:	10c4b03a 	or	r2,r2,r3
 400133c:	90800015 	stw	r2,0(r18)
  ntohl(*NTP_DATA_GRAM_ORIG_TSTMP_FRAC(ntp_buffer));

 *NTP_DATA_GRAM_RECV_TSTMP_INT(ntp_buffer) = 
 4001340:	98c00017 	ldw	r3,0(r19)
 * ntp_data_gram_struc.  NTP comes a network byte order in a format described
 * in RFC 2030(SNTP) and RFC 1305(NTP).  Once the ntp_data_gram_struc is loaded
 * the user can access the data in the host byte order.
 */
int decode_ntp_data(alt_u8 * ntp_buffer, ntp_struct *ntp_data)
{
 4001344:	dc000015 	stw	r16,0(sp)
  ntohl(*NTP_DATA_GRAM_ORIG_TSTMP_FRAC(ntp_buffer));

 *NTP_DATA_GRAM_RECV_TSTMP_INT(ntp_buffer) = 
  ntohl(*NTP_DATA_GRAM_RECV_TSTMP_INT(ntp_buffer));
  
 *NTP_DATA_GRAM_RECV_TSTMP_FRAC(ntp_buffer) = 
 4001348:	24000904 	addi	r16,r4,36
  ntohl(*NTP_DATA_GRAM_ORIG_TSTMP_INT(ntp_buffer));
 
 *NTP_DATA_GRAM_ORIG_TSTMP_FRAC(ntp_buffer) = 
  ntohl(*NTP_DATA_GRAM_ORIG_TSTMP_FRAC(ntp_buffer));

 *NTP_DATA_GRAM_RECV_TSTMP_INT(ntp_buffer) = 
 400134c:	1a04703a 	and	r2,r3,r8
 4001350:	180cd23a 	srli	r6,r3,8
 4001354:	180e963a 	slli	r7,r3,24
 4001358:	1004923a 	slli	r2,r2,8
 400135c:	1806d63a 	srli	r3,r3,24
 4001360:	320c703a 	and	r6,r6,r8
 4001364:	11c4b03a 	or	r2,r2,r7
 4001368:	1986b03a 	or	r3,r3,r6
 400136c:	1886b03a 	or	r3,r3,r2
 4001370:	98c00015 	stw	r3,0(r19)
  ntohl(*NTP_DATA_GRAM_RECV_TSTMP_INT(ntp_buffer));
  
 *NTP_DATA_GRAM_RECV_TSTMP_FRAC(ntp_buffer) = 
 4001374:	80800017 	ldw	r2,0(r16)
 * ntp_data_gram_struc.  NTP comes a network byte order in a format described
 * in RFC 2030(SNTP) and RFC 1305(NTP).  Once the ntp_data_gram_struc is loaded
 * the user can access the data in the host byte order.
 */
int decode_ntp_data(alt_u8 * ntp_buffer, ntp_struct *ntp_data)
{
 4001378:	dc400115 	stw	r17,4(sp)
  ntohl(*NTP_DATA_GRAM_RECV_TSTMP_INT(ntp_buffer));
  
 *NTP_DATA_GRAM_RECV_TSTMP_FRAC(ntp_buffer) = 
  ntohl(*NTP_DATA_GRAM_RECV_TSTMP_FRAC(ntp_buffer));
  
 *NTP_DATA_GRAM_TRANS_TSTMP_INT(ntp_buffer) = 
 400137c:	24400a04 	addi	r17,r4,40
  ntohl(*NTP_DATA_GRAM_ORIG_TSTMP_FRAC(ntp_buffer));

 *NTP_DATA_GRAM_RECV_TSTMP_INT(ntp_buffer) = 
  ntohl(*NTP_DATA_GRAM_RECV_TSTMP_INT(ntp_buffer));
  
 *NTP_DATA_GRAM_RECV_TSTMP_FRAC(ntp_buffer) = 
 4001380:	1206703a 	and	r3,r2,r8
 4001384:	100cd23a 	srli	r6,r2,8
 4001388:	100e963a 	slli	r7,r2,24
 400138c:	1806923a 	slli	r3,r3,8
 4001390:	1004d63a 	srli	r2,r2,24
 4001394:	320c703a 	and	r6,r6,r8
 4001398:	19c6b03a 	or	r3,r3,r7
 400139c:	1184b03a 	or	r2,r2,r6
 40013a0:	10c4b03a 	or	r2,r2,r3
 40013a4:	80800015 	stw	r2,0(r16)
  ntohl(*NTP_DATA_GRAM_RECV_TSTMP_FRAC(ntp_buffer));
  
 *NTP_DATA_GRAM_TRANS_TSTMP_INT(ntp_buffer) = 
 40013a8:	89800017 	ldw	r6,0(r17)
  ntohl(*NTP_DATA_GRAM_TRANS_TSTMP_INT(ntp_buffer));
  
 *NTP_DATA_GRAM_TRANS_TSTMP_FRAC(ntp_buffer) = 
 40013ac:	23800b04 	addi	r14,r4,44
  ntohl(*NTP_DATA_GRAM_TRANS_TSTMP_FRAC(ntp_buffer));
  
 *NTP_DATA_GRAM_KEY_ID(ntp_buffer) = 
 40013b0:	23c00c04 	addi	r15,r4,48
  ntohl(*NTP_DATA_GRAM_RECV_TSTMP_INT(ntp_buffer));
  
 *NTP_DATA_GRAM_RECV_TSTMP_FRAC(ntp_buffer) = 
  ntohl(*NTP_DATA_GRAM_RECV_TSTMP_FRAC(ntp_buffer));
  
 *NTP_DATA_GRAM_TRANS_TSTMP_INT(ntp_buffer) = 
 40013b4:	3206703a 	and	r3,r6,r8
 40013b8:	300ed23a 	srli	r7,r6,8
 40013bc:	3012963a 	slli	r9,r6,24
 40013c0:	1806923a 	slli	r3,r3,8
 40013c4:	300cd63a 	srli	r6,r6,24
 40013c8:	3a0e703a 	and	r7,r7,r8
 40013cc:	1a46b03a 	or	r3,r3,r9
 40013d0:	31ccb03a 	or	r6,r6,r7
 40013d4:	30ccb03a 	or	r6,r6,r3
 40013d8:	89800015 	stw	r6,0(r17)
  ntohl(*NTP_DATA_GRAM_TRANS_TSTMP_INT(ntp_buffer));
  
 *NTP_DATA_GRAM_TRANS_TSTMP_FRAC(ntp_buffer) = 
 40013dc:	70c00017 	ldw	r3,0(r14)
  ntohl(*NTP_DATA_GRAM_TRANS_TSTMP_FRAC(ntp_buffer));
  
 *NTP_DATA_GRAM_KEY_ID(ntp_buffer) = 
  ntohl(*NTP_DATA_GRAM_KEY_ID(ntp_buffer));
  
 *NTP_DATA_GRAM_MSG_DIG1(ntp_buffer) = 
 40013e0:	23000d04 	addi	r12,r4,52
  ntohl(*NTP_DATA_GRAM_MSG_DIG1(ntp_buffer));
  
 *NTP_DATA_GRAM_MSG_DIG2(ntp_buffer) = 
 40013e4:	23400e04 	addi	r13,r4,56
  ntohl(*NTP_DATA_GRAM_RECV_TSTMP_FRAC(ntp_buffer));
  
 *NTP_DATA_GRAM_TRANS_TSTMP_INT(ntp_buffer) = 
  ntohl(*NTP_DATA_GRAM_TRANS_TSTMP_INT(ntp_buffer));
  
 *NTP_DATA_GRAM_TRANS_TSTMP_FRAC(ntp_buffer) = 
 40013e8:	1a0c703a 	and	r6,r3,r8
 40013ec:	180ed23a 	srli	r7,r3,8
 40013f0:	1812963a 	slli	r9,r3,24
 40013f4:	300c923a 	slli	r6,r6,8
 40013f8:	1806d63a 	srli	r3,r3,24
 40013fc:	3a0e703a 	and	r7,r7,r8
 4001400:	324cb03a 	or	r6,r6,r9
 4001404:	19c6b03a 	or	r3,r3,r7
 4001408:	1986b03a 	or	r3,r3,r6
 400140c:	70c00015 	stw	r3,0(r14)
  ntohl(*NTP_DATA_GRAM_TRANS_TSTMP_FRAC(ntp_buffer));
  
 *NTP_DATA_GRAM_KEY_ID(ntp_buffer) = 
 4001410:	79800017 	ldw	r6,0(r15)
  ntohl(*NTP_DATA_GRAM_MSG_DIG1(ntp_buffer));
  
 *NTP_DATA_GRAM_MSG_DIG2(ntp_buffer) = 
  ntohl(*NTP_DATA_GRAM_MSG_DIG2(ntp_buffer));
  
 *NTP_DATA_GRAM_MSG_DIG3(ntp_buffer) = 
 4001414:	22800f04 	addi	r10,r4,60
  ntohl(*NTP_DATA_GRAM_MSG_DIG3(ntp_buffer));
  
 *NTP_DATA_GRAM_MSG_DIG4(ntp_buffer) = 
 4001418:	22c01004 	addi	r11,r4,64
  ntohl(*NTP_DATA_GRAM_TRANS_TSTMP_INT(ntp_buffer));
  
 *NTP_DATA_GRAM_TRANS_TSTMP_FRAC(ntp_buffer) = 
  ntohl(*NTP_DATA_GRAM_TRANS_TSTMP_FRAC(ntp_buffer));
  
 *NTP_DATA_GRAM_KEY_ID(ntp_buffer) = 
 400141c:	3206703a 	and	r3,r6,r8
 4001420:	300ed23a 	srli	r7,r6,8
 4001424:	3012963a 	slli	r9,r6,24
 4001428:	1806923a 	slli	r3,r3,8
 400142c:	300cd63a 	srli	r6,r6,24
 4001430:	3a0e703a 	and	r7,r7,r8
 4001434:	1a46b03a 	or	r3,r3,r9
 4001438:	31ccb03a 	or	r6,r6,r7
 400143c:	30ccb03a 	or	r6,r6,r3
 4001440:	79800015 	stw	r6,0(r15)
  ntohl(*NTP_DATA_GRAM_KEY_ID(ntp_buffer));
  
 *NTP_DATA_GRAM_MSG_DIG1(ntp_buffer) = 
 4001444:	60c00017 	ldw	r3,0(r12)
 ntp_data->msg_digest2      = *NTP_DATA_GRAM_MSG_DIG2(ntp_buffer);
 ntp_data->msg_digest3      = *NTP_DATA_GRAM_MSG_DIG3(ntp_buffer);
 ntp_data->msg_digest4      = *NTP_DATA_GRAM_MSG_DIG4(ntp_buffer);
 
 return 0;
}
 4001448:	0005883a 	mov	r2,zero
  ntohl(*NTP_DATA_GRAM_TRANS_TSTMP_FRAC(ntp_buffer));
  
 *NTP_DATA_GRAM_KEY_ID(ntp_buffer) = 
  ntohl(*NTP_DATA_GRAM_KEY_ID(ntp_buffer));
  
 *NTP_DATA_GRAM_MSG_DIG1(ntp_buffer) = 
 400144c:	1a0c703a 	and	r6,r3,r8
 4001450:	180ed23a 	srli	r7,r3,8
 4001454:	1812963a 	slli	r9,r3,24
 4001458:	300c923a 	slli	r6,r6,8
 400145c:	1806d63a 	srli	r3,r3,24
 4001460:	3a0e703a 	and	r7,r7,r8
 4001464:	324cb03a 	or	r6,r6,r9
 4001468:	19c6b03a 	or	r3,r3,r7
 400146c:	1986b03a 	or	r3,r3,r6
 4001470:	60c00015 	stw	r3,0(r12)
  ntohl(*NTP_DATA_GRAM_MSG_DIG1(ntp_buffer));
  
 *NTP_DATA_GRAM_MSG_DIG2(ntp_buffer) = 
 4001474:	69800017 	ldw	r6,0(r13)
 4001478:	3206703a 	and	r3,r6,r8
 400147c:	300ed23a 	srli	r7,r6,8
 4001480:	3012963a 	slli	r9,r6,24
 4001484:	1806923a 	slli	r3,r3,8
 4001488:	300cd63a 	srli	r6,r6,24
 400148c:	3a0e703a 	and	r7,r7,r8
 4001490:	1a46b03a 	or	r3,r3,r9
 4001494:	31ccb03a 	or	r6,r6,r7
 4001498:	30ccb03a 	or	r6,r6,r3
 400149c:	69800015 	stw	r6,0(r13)
  ntohl(*NTP_DATA_GRAM_MSG_DIG2(ntp_buffer));
  
 *NTP_DATA_GRAM_MSG_DIG3(ntp_buffer) = 
 40014a0:	50c00017 	ldw	r3,0(r10)
 40014a4:	1a0c703a 	and	r6,r3,r8
 40014a8:	180ed23a 	srli	r7,r3,8
 40014ac:	1812963a 	slli	r9,r3,24
 40014b0:	300c923a 	slli	r6,r6,8
 40014b4:	1806d63a 	srli	r3,r3,24
 40014b8:	3a0e703a 	and	r7,r7,r8
 40014bc:	324cb03a 	or	r6,r6,r9
 40014c0:	19c6b03a 	or	r3,r3,r7
 40014c4:	1986b03a 	or	r3,r3,r6
 40014c8:	50c00015 	stw	r3,0(r10)
  ntohl(*NTP_DATA_GRAM_MSG_DIG3(ntp_buffer));
  
 *NTP_DATA_GRAM_MSG_DIG4(ntp_buffer) = 
 40014cc:	59800017 	ldw	r6,0(r11)
 40014d0:	3206703a 	and	r3,r6,r8
 40014d4:	300ed23a 	srli	r7,r6,8
 40014d8:	3012963a 	slli	r9,r6,24
 40014dc:	1806923a 	slli	r3,r3,8
 40014e0:	300cd63a 	srli	r6,r6,24
 40014e4:	3a0e703a 	and	r7,r7,r8
 40014e8:	1a46b03a 	or	r3,r3,r9
 40014ec:	31ccb03a 	or	r6,r6,r7
 40014f0:	30ccb03a 	or	r6,r6,r3
 40014f4:	59800015 	stw	r6,0(r11)
{
//Convert the NTP data received to host byte order
 convert_ntp_data_to_host(ntp_buffer);

//NTP Control Header Decode
 ntp_data->leap_indicator = ((*NTP_DATA_GRAM_CONTROL_HEADER(ntp_buffer) >>
 40014f8:	20c00017 	ldw	r3,0(r4)
 40014fc:	1806d7ba 	srli	r3,r3,30
 4001500:	28c00005 	stb	r3,0(r5)
                               NTP_CONT_HEAD_LI_OFST) & 
                               NTP_CONT_HEAD_LI_MSK);
                              
 ntp_data->version_number = ((*NTP_DATA_GRAM_CONTROL_HEADER(ntp_buffer) >>
 4001504:	21800017 	ldw	r6,0(r4)
 4001508:	300cd6fa 	srli	r6,r6,27
 400150c:	318001cc 	andi	r6,r6,7
 4001510:	29800045 	stb	r6,1(r5)
                               NTP_CONT_HEAD_VN_OFST) & 
                               NTP_CONT_HEAD_VN_MSK);

 ntp_data->mode           = ((*NTP_DATA_GRAM_CONTROL_HEADER(ntp_buffer) >>
 4001514:	20c00017 	ldw	r3,0(r4)
 4001518:	1806d63a 	srli	r3,r3,24
 400151c:	18c001cc 	andi	r3,r3,7
 4001520:	28c00085 	stb	r3,2(r5)
                               NTP_CONT_HEAD_MODE_OFST) & 
                               NTP_CONT_HEAD_MODE_MSK); 
                    
 ntp_data->stratum        = ((*NTP_DATA_GRAM_CONTROL_HEADER(ntp_buffer) >>
 4001524:	21800017 	ldw	r6,0(r4)
 4001528:	300cd43a 	srli	r6,r6,16
 400152c:	298000c5 	stb	r6,3(r5)
                               NTP_CONT_HEAD_STRATUM_OFST)& 
                               NTP_CONT_HEAD_STRATUM_MSK);
                       
 ntp_data->poll_interval  = ((*NTP_DATA_GRAM_CONTROL_HEADER(ntp_buffer) >> 
 4001530:	20c00017 	ldw	r3,0(r4)
 4001534:	1806d23a 	srli	r3,r3,8
 4001538:	28c00105 	stb	r3,4(r5)
                               NTP_CONT_HEAD_POLL_OFST) & 
                               NTP_CONT_HEAD_POLL_MSK); 
                             
 ntp_data->precision      = ((*NTP_DATA_GRAM_CONTROL_HEADER(ntp_buffer) >>
 400153c:	21800017 	ldw	r6,0(r4)
 4001540:	29800145 	stb	r6,5(r5)
                               NTP_CONT_HEAD_PRECISION_OFST) & 
                               NTP_CONT_HEAD_PRECISION_MSK); 

//NTP Root Delay Decode
 ntp_data->root_delay       = *NTP_DATA_GRAM_ROOT_DELAY(ntp_buffer);
 4001544:	20c00117 	ldw	r3,4(r4)
 4001548:	28c00215 	stw	r3,8(r5)
//NTP Root Dispersion Decode
 ntp_data->root_dispersion  = *NTP_DATA_GRAM_ROOT_DISP(ntp_buffer);
 400154c:	e1000017 	ldw	r4,0(fp)
 4001550:	29000315 	stw	r4,12(r5)
//NTP Reference ID Decode
 ntp_data->ref_id           = *NTP_DATA_GRAM_REF_ID(ntp_buffer);
 4001554:	b0c00017 	ldw	r3,0(r22)
 4001558:	28c00415 	stw	r3,16(r5)
//NTP Reference Timestamp Decode
 ntp_data->ref_timestamp1   = *NTP_DATA_GRAM_REF_TSTMP_INT(ntp_buffer);
 400155c:	b9000017 	ldw	r4,0(r23)
 4001560:	29000515 	stw	r4,20(r5)
 ntp_data->ref_timestamp2   = *NTP_DATA_GRAM_REF_TSTMP_FRAC(ntp_buffer);
 4001564:	a0c00017 	ldw	r3,0(r20)
 4001568:	28c00615 	stw	r3,24(r5)
//NTP Originate Timestamp Decode 
 ntp_data->orig_timestamp1  = *NTP_DATA_GRAM_ORIG_TSTMP_INT(ntp_buffer);
 400156c:	a9000017 	ldw	r4,0(r21)
 4001570:	29000715 	stw	r4,28(r5)
 ntp_data->orig_timestamp2  = *NTP_DATA_GRAM_ORIG_TSTMP_FRAC(ntp_buffer);
 4001574:	90c00017 	ldw	r3,0(r18)
 4001578:	28c00815 	stw	r3,32(r5)
//NTP Receive Timestamp Decode 
 ntp_data->recv_timestamp1  = *NTP_DATA_GRAM_RECV_TSTMP_INT(ntp_buffer);
 400157c:	99000017 	ldw	r4,0(r19)
 4001580:	29000915 	stw	r4,36(r5)
 ntp_data->recv_timestamp2  = *NTP_DATA_GRAM_RECV_TSTMP_FRAC(ntp_buffer);
 4001584:	80c00017 	ldw	r3,0(r16)
 4001588:	28c00a15 	stw	r3,40(r5)
//NTP Transmit Timestamp Decode 
 ntp_data->trans_timestamp1 = *NTP_DATA_GRAM_TRANS_TSTMP_INT(ntp_buffer);
 400158c:	89000017 	ldw	r4,0(r17)
 4001590:	29000b15 	stw	r4,44(r5)
 ntp_data->trans_timestamp2 = *NTP_DATA_GRAM_TRANS_TSTMP_FRAC(ntp_buffer);
 4001594:	70c00017 	ldw	r3,0(r14)
 4001598:	28c00c15 	stw	r3,48(r5)
//NTP Key ID Decode 
 ntp_data->key_id           = *NTP_DATA_GRAM_KEY_ID(ntp_buffer);
 400159c:	79000017 	ldw	r4,0(r15)
 40015a0:	29000d15 	stw	r4,52(r5)
//NTP Message Digest Decode 
 ntp_data->msg_digest1      = *NTP_DATA_GRAM_MSG_DIG1(ntp_buffer);
 40015a4:	60c00017 	ldw	r3,0(r12)
 40015a8:	28c00e15 	stw	r3,56(r5)
 ntp_data->msg_digest2      = *NTP_DATA_GRAM_MSG_DIG2(ntp_buffer);
 40015ac:	69000017 	ldw	r4,0(r13)
 40015b0:	29000f15 	stw	r4,60(r5)
 ntp_data->msg_digest3      = *NTP_DATA_GRAM_MSG_DIG3(ntp_buffer);
 40015b4:	50c00017 	ldw	r3,0(r10)
 40015b8:	28c01015 	stw	r3,64(r5)
 ntp_data->msg_digest4      = *NTP_DATA_GRAM_MSG_DIG4(ntp_buffer);
 40015bc:	59000017 	ldw	r4,0(r11)
 40015c0:	29001115 	stw	r4,68(r5)
 
 return 0;
}
 40015c4:	df000817 	ldw	fp,32(sp)
 40015c8:	ddc00717 	ldw	r23,28(sp)
 40015cc:	dd800617 	ldw	r22,24(sp)
 40015d0:	dd400517 	ldw	r21,20(sp)
 40015d4:	dd000417 	ldw	r20,16(sp)
 40015d8:	dcc00317 	ldw	r19,12(sp)
 40015dc:	dc800217 	ldw	r18,8(sp)
 40015e0:	dc400117 	ldw	r17,4(sp)
 40015e4:	dc000017 	ldw	r16,0(sp)
 40015e8:	dec00904 	addi	sp,sp,36
 40015ec:	f800283a 	ret

040015f0 <encode_ntp_data>:
 * ntp_data_gram_struc and place it in a NTP buffer in a order ready for 
 * transmission.  
 */
 
 int encode_ntp_data(alt_u8 * ntp_buffer, ntp_struct *ntp_data)
{
 40015f0:	defff804 	addi	sp,sp,-32
 40015f4:	ddc00715 	stw	r23,28(sp)
 40015f8:	dd800615 	stw	r22,24(sp)
 40015fc:	dd400515 	stw	r21,20(sp)
 4001600:	dd000415 	stw	r20,16(sp)
 4001604:	dcc00315 	stw	r19,12(sp)
 4001608:	dc800215 	stw	r18,8(sp)
 400160c:	dc400115 	stw	r17,4(sp)
 4001610:	dc000015 	stw	r16,0(sp)
//NTP Control Header Encode 
 *NTP_DATA_GRAM_CONTROL_HEADER(ntp_buffer) |= (ntp_data->leap_indicator << 
 4001614:	28800003 	ldbu	r2,0(r5)
 4001618:	21800017 	ldw	r6,0(r4)
 *NTP_DATA_GRAM_CONTROL_HEADER(ntp_buffer) |= (ntp_data->precision << 
                                               NTP_CONT_HEAD_PRECISION_OFST);
//NTP Root Delay Encode
 *NTP_DATA_GRAM_ROOT_DELAY(ntp_buffer)       = ntp_data->root_delay;
//NTP Root Dispersion Encode
 *NTP_DATA_GRAM_ROOT_DISP(ntp_buffer)        = ntp_data->root_dispersion;
 400161c:	22400204 	addi	r9,r4,8
 */
 
 int encode_ntp_data(alt_u8 * ntp_buffer, ntp_struct *ntp_data)
{
//NTP Control Header Encode 
 *NTP_DATA_GRAM_CONTROL_HEADER(ntp_buffer) |= (ntp_data->leap_indicator << 
 4001620:	100497ba 	slli	r2,r2,30
//NTP Root Delay Encode
 *NTP_DATA_GRAM_ROOT_DELAY(ntp_buffer)       = ntp_data->root_delay;
//NTP Root Dispersion Encode
 *NTP_DATA_GRAM_ROOT_DISP(ntp_buffer)        = ntp_data->root_dispersion;
//NTP Reference ID Encode
 *NTP_DATA_GRAM_REF_ID(ntp_buffer)           = ntp_data->ref_id;
 4001624:	22800304 	addi	r10,r4,12
//NTP Reference Timestamp Encode 
 *NTP_DATA_GRAM_REF_TSTMP_INT(ntp_buffer)    = ntp_data->ref_timestamp1;
 4001628:	22c00404 	addi	r11,r4,16
 */
 
 int encode_ntp_data(alt_u8 * ntp_buffer, ntp_struct *ntp_data)
{
//NTP Control Header Encode 
 *NTP_DATA_GRAM_CONTROL_HEADER(ntp_buffer) |= (ntp_data->leap_indicator << 
 400162c:	308cb03a 	or	r6,r6,r2
 4001630:	21800015 	stw	r6,0(r4)
                                               NTP_CONT_HEAD_LI_OFST);
 *NTP_DATA_GRAM_CONTROL_HEADER(ntp_buffer) |= (ntp_data->version_number << 
 4001634:	28800043 	ldbu	r2,1(r5)
 *NTP_DATA_GRAM_ROOT_DISP(ntp_buffer)        = ntp_data->root_dispersion;
//NTP Reference ID Encode
 *NTP_DATA_GRAM_REF_ID(ntp_buffer)           = ntp_data->ref_id;
//NTP Reference Timestamp Encode 
 *NTP_DATA_GRAM_REF_TSTMP_INT(ntp_buffer)    = ntp_data->ref_timestamp1;
 *NTP_DATA_GRAM_REF_TSTMP_FRAC(ntp_buffer)   = ntp_data->ref_timestamp2;
 4001638:	23000504 	addi	r12,r4,20
//NTP Originate Timestamp Encode  
 *NTP_DATA_GRAM_ORIG_TSTMP_INT(ntp_buffer)   = ntp_data->orig_timestamp1;
 400163c:	23400604 	addi	r13,r4,24
 int encode_ntp_data(alt_u8 * ntp_buffer, ntp_struct *ntp_data)
{
//NTP Control Header Encode 
 *NTP_DATA_GRAM_CONTROL_HEADER(ntp_buffer) |= (ntp_data->leap_indicator << 
                                               NTP_CONT_HEAD_LI_OFST);
 *NTP_DATA_GRAM_CONTROL_HEADER(ntp_buffer) |= (ntp_data->version_number << 
 4001640:	100496fa 	slli	r2,r2,27
//NTP Reference Timestamp Encode 
 *NTP_DATA_GRAM_REF_TSTMP_INT(ntp_buffer)    = ntp_data->ref_timestamp1;
 *NTP_DATA_GRAM_REF_TSTMP_FRAC(ntp_buffer)   = ntp_data->ref_timestamp2;
//NTP Originate Timestamp Encode  
 *NTP_DATA_GRAM_ORIG_TSTMP_INT(ntp_buffer)   = ntp_data->orig_timestamp1;
 *NTP_DATA_GRAM_ORIG_TSTMP_FRAC(ntp_buffer)  = ntp_data->orig_timestamp2;
 4001644:	23800704 	addi	r14,r4,28
//NTP Receive Timestamp Encode 
 *NTP_DATA_GRAM_RECV_TSTMP_INT(ntp_buffer)   = ntp_data->recv_timestamp1;
 4001648:	23c00804 	addi	r15,r4,32
 int encode_ntp_data(alt_u8 * ntp_buffer, ntp_struct *ntp_data)
{
//NTP Control Header Encode 
 *NTP_DATA_GRAM_CONTROL_HEADER(ntp_buffer) |= (ntp_data->leap_indicator << 
                                               NTP_CONT_HEAD_LI_OFST);
 *NTP_DATA_GRAM_CONTROL_HEADER(ntp_buffer) |= (ntp_data->version_number << 
 400164c:	308cb03a 	or	r6,r6,r2
 4001650:	21800015 	stw	r6,0(r4)
                                               NTP_CONT_HEAD_VN_OFST);
 *NTP_DATA_GRAM_CONTROL_HEADER(ntp_buffer) |= (ntp_data->mode << 
 4001654:	28800083 	ldbu	r2,2(r5)
//NTP Originate Timestamp Encode  
 *NTP_DATA_GRAM_ORIG_TSTMP_INT(ntp_buffer)   = ntp_data->orig_timestamp1;
 *NTP_DATA_GRAM_ORIG_TSTMP_FRAC(ntp_buffer)  = ntp_data->orig_timestamp2;
//NTP Receive Timestamp Encode 
 *NTP_DATA_GRAM_RECV_TSTMP_INT(ntp_buffer)   = ntp_data->recv_timestamp1;
 *NTP_DATA_GRAM_RECV_TSTMP_FRAC(ntp_buffer)  = ntp_data->recv_timestamp2;
 4001658:	24000904 	addi	r16,r4,36
//NTP Transmit Timestamp Encode 
 *NTP_DATA_GRAM_TRANS_TSTMP_INT(ntp_buffer)  = ntp_data->trans_timestamp1;
 400165c:	24400a04 	addi	r17,r4,40
//NTP Control Header Encode 
 *NTP_DATA_GRAM_CONTROL_HEADER(ntp_buffer) |= (ntp_data->leap_indicator << 
                                               NTP_CONT_HEAD_LI_OFST);
 *NTP_DATA_GRAM_CONTROL_HEADER(ntp_buffer) |= (ntp_data->version_number << 
                                               NTP_CONT_HEAD_VN_OFST);
 *NTP_DATA_GRAM_CONTROL_HEADER(ntp_buffer) |= (ntp_data->mode << 
 4001660:	1004963a 	slli	r2,r2,24
//NTP Receive Timestamp Encode 
 *NTP_DATA_GRAM_RECV_TSTMP_INT(ntp_buffer)   = ntp_data->recv_timestamp1;
 *NTP_DATA_GRAM_RECV_TSTMP_FRAC(ntp_buffer)  = ntp_data->recv_timestamp2;
//NTP Transmit Timestamp Encode 
 *NTP_DATA_GRAM_TRANS_TSTMP_INT(ntp_buffer)  = ntp_data->trans_timestamp1;
 *NTP_DATA_GRAM_TRANS_TSTMP_FRAC(ntp_buffer) = ntp_data->trans_timestamp2;
 4001664:	24800b04 	addi	r18,r4,44
//NTP Key ID Encode  
 *NTP_DATA_GRAM_KEY_ID(ntp_buffer)           = ntp_data->key_id;
 4001668:	24c00c04 	addi	r19,r4,48
//NTP Control Header Encode 
 *NTP_DATA_GRAM_CONTROL_HEADER(ntp_buffer) |= (ntp_data->leap_indicator << 
                                               NTP_CONT_HEAD_LI_OFST);
 *NTP_DATA_GRAM_CONTROL_HEADER(ntp_buffer) |= (ntp_data->version_number << 
                                               NTP_CONT_HEAD_VN_OFST);
 *NTP_DATA_GRAM_CONTROL_HEADER(ntp_buffer) |= (ntp_data->mode << 
 400166c:	308cb03a 	or	r6,r6,r2
 4001670:	21800015 	stw	r6,0(r4)
                                               NTP_CONT_HEAD_MODE_OFST);
 *NTP_DATA_GRAM_CONTROL_HEADER(ntp_buffer) |= (ntp_data->stratum << 
 4001674:	288000c3 	ldbu	r2,3(r5)
 *NTP_DATA_GRAM_TRANS_TSTMP_INT(ntp_buffer)  = ntp_data->trans_timestamp1;
 *NTP_DATA_GRAM_TRANS_TSTMP_FRAC(ntp_buffer) = ntp_data->trans_timestamp2;
//NTP Key ID Encode  
 *NTP_DATA_GRAM_KEY_ID(ntp_buffer)           = ntp_data->key_id;
//NTP Message Digest Encode  
 *NTP_DATA_GRAM_MSG_DIG1(ntp_buffer)         = ntp_data->msg_digest1;
 4001678:	25000d04 	addi	r20,r4,52
 *NTP_DATA_GRAM_MSG_DIG2(ntp_buffer)         = ntp_data->msg_digest2;
 400167c:	25400e04 	addi	r21,r4,56
                                               NTP_CONT_HEAD_LI_OFST);
 *NTP_DATA_GRAM_CONTROL_HEADER(ntp_buffer) |= (ntp_data->version_number << 
                                               NTP_CONT_HEAD_VN_OFST);
 *NTP_DATA_GRAM_CONTROL_HEADER(ntp_buffer) |= (ntp_data->mode << 
                                               NTP_CONT_HEAD_MODE_OFST);
 *NTP_DATA_GRAM_CONTROL_HEADER(ntp_buffer) |= (ntp_data->stratum << 
 4001680:	1004943a 	slli	r2,r2,16
//NTP Key ID Encode  
 *NTP_DATA_GRAM_KEY_ID(ntp_buffer)           = ntp_data->key_id;
//NTP Message Digest Encode  
 *NTP_DATA_GRAM_MSG_DIG1(ntp_buffer)         = ntp_data->msg_digest1;
 *NTP_DATA_GRAM_MSG_DIG2(ntp_buffer)         = ntp_data->msg_digest2;
 *NTP_DATA_GRAM_MSG_DIG3(ntp_buffer)         = ntp_data->msg_digest3;
 4001684:	25800f04 	addi	r22,r4,60
 *NTP_DATA_GRAM_MSG_DIG4(ntp_buffer)         = ntp_data->msg_digest4;
 4001688:	25c01004 	addi	r23,r4,64
                                               NTP_CONT_HEAD_LI_OFST);
 *NTP_DATA_GRAM_CONTROL_HEADER(ntp_buffer) |= (ntp_data->version_number << 
                                               NTP_CONT_HEAD_VN_OFST);
 *NTP_DATA_GRAM_CONTROL_HEADER(ntp_buffer) |= (ntp_data->mode << 
                                               NTP_CONT_HEAD_MODE_OFST);
 *NTP_DATA_GRAM_CONTROL_HEADER(ntp_buffer) |= (ntp_data->stratum << 
 400168c:	308cb03a 	or	r6,r6,r2
 4001690:	21800015 	stw	r6,0(r4)
                                               NTP_CONT_HEAD_STRATUM_OFST);
 *NTP_DATA_GRAM_CONTROL_HEADER(ntp_buffer) |= (ntp_data->poll_interval << 
 4001694:	28c00107 	ldb	r3,4(r5)
 * byte order to network byte order.
 */

static int convert_ntp_data_to_net(alt_u8 * ntp_buffer)
{
 *NTP_DATA_GRAM_CONTROL_HEADER(ntp_buffer) = 
 4001698:	01ffc014 	movui	r7,65280
 
//Convert the NTP host data to network byte order 
 convert_ntp_data_to_net(ntp_buffer);
 
 return 0;
}
 400169c:	0005883a 	mov	r2,zero
                                               NTP_CONT_HEAD_VN_OFST);
 *NTP_DATA_GRAM_CONTROL_HEADER(ntp_buffer) |= (ntp_data->mode << 
                                               NTP_CONT_HEAD_MODE_OFST);
 *NTP_DATA_GRAM_CONTROL_HEADER(ntp_buffer) |= (ntp_data->stratum << 
                                               NTP_CONT_HEAD_STRATUM_OFST);
 *NTP_DATA_GRAM_CONTROL_HEADER(ntp_buffer) |= (ntp_data->poll_interval << 
 40016a0:	1806923a 	slli	r3,r3,8
 40016a4:	30ccb03a 	or	r6,r6,r3
 40016a8:	21800015 	stw	r6,0(r4)
                                               NTP_CONT_HEAD_POLL_OFST);
 *NTP_DATA_GRAM_CONTROL_HEADER(ntp_buffer) |= (ntp_data->precision << 
 40016ac:	28c00147 	ldb	r3,5(r5)
 40016b0:	30ccb03a 	or	r6,r6,r3
 40016b4:	21800015 	stw	r6,0(r4)
                                               NTP_CONT_HEAD_PRECISION_OFST);
//NTP Root Delay Encode
 *NTP_DATA_GRAM_ROOT_DELAY(ntp_buffer)       = ntp_data->root_delay;
 40016b8:	28c00217 	ldw	r3,8(r5)
 40016bc:	20c00115 	stw	r3,4(r4)
//NTP Root Dispersion Encode
 *NTP_DATA_GRAM_ROOT_DISP(ntp_buffer)        = ntp_data->root_dispersion;
 40016c0:	29800317 	ldw	r6,12(r5)
 40016c4:	49800015 	stw	r6,0(r9)
//NTP Reference ID Encode
 *NTP_DATA_GRAM_REF_ID(ntp_buffer)           = ntp_data->ref_id;
 40016c8:	28c00417 	ldw	r3,16(r5)
 40016cc:	50c00015 	stw	r3,0(r10)
//NTP Reference Timestamp Encode 
 *NTP_DATA_GRAM_REF_TSTMP_INT(ntp_buffer)    = ntp_data->ref_timestamp1;
 40016d0:	29800517 	ldw	r6,20(r5)
 40016d4:	59800015 	stw	r6,0(r11)
 *NTP_DATA_GRAM_REF_TSTMP_FRAC(ntp_buffer)   = ntp_data->ref_timestamp2;
 40016d8:	28c00617 	ldw	r3,24(r5)
 40016dc:	60c00015 	stw	r3,0(r12)
//NTP Originate Timestamp Encode  
 *NTP_DATA_GRAM_ORIG_TSTMP_INT(ntp_buffer)   = ntp_data->orig_timestamp1;
 40016e0:	29800717 	ldw	r6,28(r5)
 40016e4:	69800015 	stw	r6,0(r13)
 *NTP_DATA_GRAM_ORIG_TSTMP_FRAC(ntp_buffer)  = ntp_data->orig_timestamp2;
 40016e8:	28c00817 	ldw	r3,32(r5)
 40016ec:	70c00015 	stw	r3,0(r14)
//NTP Receive Timestamp Encode 
 *NTP_DATA_GRAM_RECV_TSTMP_INT(ntp_buffer)   = ntp_data->recv_timestamp1;
 40016f0:	29800917 	ldw	r6,36(r5)
 40016f4:	79800015 	stw	r6,0(r15)
 *NTP_DATA_GRAM_RECV_TSTMP_FRAC(ntp_buffer)  = ntp_data->recv_timestamp2;
 40016f8:	28c00a17 	ldw	r3,40(r5)
 40016fc:	80c00015 	stw	r3,0(r16)
//NTP Transmit Timestamp Encode 
 *NTP_DATA_GRAM_TRANS_TSTMP_INT(ntp_buffer)  = ntp_data->trans_timestamp1;
 4001700:	29800b17 	ldw	r6,44(r5)
 4001704:	89800015 	stw	r6,0(r17)
 *NTP_DATA_GRAM_TRANS_TSTMP_FRAC(ntp_buffer) = ntp_data->trans_timestamp2;
 4001708:	28c00c17 	ldw	r3,48(r5)
 400170c:	90c00015 	stw	r3,0(r18)
//NTP Key ID Encode  
 *NTP_DATA_GRAM_KEY_ID(ntp_buffer)           = ntp_data->key_id;
 4001710:	29800d17 	ldw	r6,52(r5)
 4001714:	99800015 	stw	r6,0(r19)
//NTP Message Digest Encode  
 *NTP_DATA_GRAM_MSG_DIG1(ntp_buffer)         = ntp_data->msg_digest1;
 4001718:	28c00e17 	ldw	r3,56(r5)
 400171c:	a0c00015 	stw	r3,0(r20)
 *NTP_DATA_GRAM_MSG_DIG2(ntp_buffer)         = ntp_data->msg_digest2;
 4001720:	29800f17 	ldw	r6,60(r5)
 4001724:	a9800015 	stw	r6,0(r21)
 *NTP_DATA_GRAM_MSG_DIG3(ntp_buffer)         = ntp_data->msg_digest3;
 4001728:	28c01017 	ldw	r3,64(r5)
 400172c:	b0c00015 	stw	r3,0(r22)
 *NTP_DATA_GRAM_MSG_DIG4(ntp_buffer)         = ntp_data->msg_digest4;
 4001730:	29801117 	ldw	r6,68(r5)
 4001734:	b9800015 	stw	r6,0(r23)
 * byte order to network byte order.
 */

static int convert_ntp_data_to_net(alt_u8 * ntp_buffer)
{
 *NTP_DATA_GRAM_CONTROL_HEADER(ntp_buffer) = 
 4001738:	20c00017 	ldw	r3,0(r4)
 400173c:	19ca703a 	and	r5,r3,r7
 4001740:	180cd23a 	srli	r6,r3,8
 4001744:	1810963a 	slli	r8,r3,24
 4001748:	280a923a 	slli	r5,r5,8
 400174c:	1806d63a 	srli	r3,r3,24
 4001750:	31cc703a 	and	r6,r6,r7
 4001754:	2a0ab03a 	or	r5,r5,r8
 4001758:	1986b03a 	or	r3,r3,r6
 400175c:	1946b03a 	or	r3,r3,r5
 4001760:	20c00015 	stw	r3,0(r4)
  htonl(*NTP_DATA_GRAM_CONTROL_HEADER(ntp_buffer));
  
 *NTP_DATA_GRAM_ROOT_DISP(ntp_buffer) = 
 4001764:	49000017 	ldw	r4,0(r9)
 4001768:	21c6703a 	and	r3,r4,r7
 400176c:	200ad23a 	srli	r5,r4,8
 4001770:	200c963a 	slli	r6,r4,24
 4001774:	1806923a 	slli	r3,r3,8
 4001778:	2008d63a 	srli	r4,r4,24
 400177c:	29ca703a 	and	r5,r5,r7
 4001780:	1986b03a 	or	r3,r3,r6
 4001784:	2148b03a 	or	r4,r4,r5
 4001788:	20c8b03a 	or	r4,r4,r3
 400178c:	49000015 	stw	r4,0(r9)
  htonl(*NTP_DATA_GRAM_ROOT_DISP(ntp_buffer));
  
 *NTP_DATA_GRAM_REF_ID(ntp_buffer) = 
 4001790:	50c00017 	ldw	r3,0(r10)
 4001794:	19c8703a 	and	r4,r3,r7
 4001798:	180ad23a 	srli	r5,r3,8
 400179c:	180c963a 	slli	r6,r3,24
 40017a0:	2008923a 	slli	r4,r4,8
 40017a4:	1806d63a 	srli	r3,r3,24
 40017a8:	29ca703a 	and	r5,r5,r7
 40017ac:	2188b03a 	or	r4,r4,r6
 40017b0:	1946b03a 	or	r3,r3,r5
 40017b4:	1906b03a 	or	r3,r3,r4
 40017b8:	50c00015 	stw	r3,0(r10)
  htonl(*NTP_DATA_GRAM_REF_ID(ntp_buffer));
  
 *NTP_DATA_GRAM_REF_TSTMP_INT(ntp_buffer) = 
 40017bc:	59000017 	ldw	r4,0(r11)
 40017c0:	21c6703a 	and	r3,r4,r7
 40017c4:	200ad23a 	srli	r5,r4,8
 40017c8:	200c963a 	slli	r6,r4,24
 40017cc:	1806923a 	slli	r3,r3,8
 40017d0:	2008d63a 	srli	r4,r4,24
 40017d4:	29ca703a 	and	r5,r5,r7
 40017d8:	1986b03a 	or	r3,r3,r6
 40017dc:	2148b03a 	or	r4,r4,r5
 40017e0:	20c8b03a 	or	r4,r4,r3
 40017e4:	59000015 	stw	r4,0(r11)
  htonl(*NTP_DATA_GRAM_REF_TSTMP_INT(ntp_buffer));
  
 *NTP_DATA_GRAM_REF_TSTMP_FRAC(ntp_buffer) = 
 40017e8:	60c00017 	ldw	r3,0(r12)
 40017ec:	19c8703a 	and	r4,r3,r7
 40017f0:	180ad23a 	srli	r5,r3,8
 40017f4:	180c963a 	slli	r6,r3,24
 40017f8:	2008923a 	slli	r4,r4,8
 40017fc:	1806d63a 	srli	r3,r3,24
 4001800:	29ca703a 	and	r5,r5,r7
 4001804:	2188b03a 	or	r4,r4,r6
 4001808:	1946b03a 	or	r3,r3,r5
 400180c:	1906b03a 	or	r3,r3,r4
 4001810:	60c00015 	stw	r3,0(r12)
  htonl(*NTP_DATA_GRAM_REF_TSTMP_FRAC(ntp_buffer));
  
 *NTP_DATA_GRAM_ORIG_TSTMP_INT(ntp_buffer) = 
 4001814:	69000017 	ldw	r4,0(r13)
 4001818:	21c6703a 	and	r3,r4,r7
 400181c:	200ad23a 	srli	r5,r4,8
 4001820:	200c963a 	slli	r6,r4,24
 4001824:	1806923a 	slli	r3,r3,8
 4001828:	2008d63a 	srli	r4,r4,24
 400182c:	29ca703a 	and	r5,r5,r7
 4001830:	1986b03a 	or	r3,r3,r6
 4001834:	2148b03a 	or	r4,r4,r5
 4001838:	20c8b03a 	or	r4,r4,r3
 400183c:	69000015 	stw	r4,0(r13)
  htonl(*NTP_DATA_GRAM_ORIG_TSTMP_INT(ntp_buffer));
  
 *NTP_DATA_GRAM_ORIG_TSTMP_FRAC(ntp_buffer) = 
 4001840:	70c00017 	ldw	r3,0(r14)
 4001844:	19c8703a 	and	r4,r3,r7
 4001848:	180ad23a 	srli	r5,r3,8
 400184c:	180c963a 	slli	r6,r3,24
 4001850:	2008923a 	slli	r4,r4,8
 4001854:	1806d63a 	srli	r3,r3,24
 4001858:	29ca703a 	and	r5,r5,r7
 400185c:	2188b03a 	or	r4,r4,r6
 4001860:	1946b03a 	or	r3,r3,r5
 4001864:	1906b03a 	or	r3,r3,r4
 4001868:	70c00015 	stw	r3,0(r14)
  htonl(*NTP_DATA_GRAM_ORIG_TSTMP_FRAC(ntp_buffer));
  
 *NTP_DATA_GRAM_RECV_TSTMP_INT(ntp_buffer) = 
 400186c:	79000017 	ldw	r4,0(r15)
 4001870:	21c6703a 	and	r3,r4,r7
 4001874:	200ad23a 	srli	r5,r4,8
 4001878:	200c963a 	slli	r6,r4,24
 400187c:	1806923a 	slli	r3,r3,8
 4001880:	2008d63a 	srli	r4,r4,24
 4001884:	29ca703a 	and	r5,r5,r7
 4001888:	1986b03a 	or	r3,r3,r6
 400188c:	2148b03a 	or	r4,r4,r5
 4001890:	20c8b03a 	or	r4,r4,r3
 4001894:	79000015 	stw	r4,0(r15)
  htonl(*NTP_DATA_GRAM_RECV_TSTMP_INT(ntp_buffer));
  
 *NTP_DATA_GRAM_RECV_TSTMP_FRAC(ntp_buffer) = 
 4001898:	80c00017 	ldw	r3,0(r16)
 400189c:	19c8703a 	and	r4,r3,r7
 40018a0:	180ad23a 	srli	r5,r3,8
 40018a4:	180c963a 	slli	r6,r3,24
 40018a8:	2008923a 	slli	r4,r4,8
 40018ac:	1806d63a 	srli	r3,r3,24
 40018b0:	29ca703a 	and	r5,r5,r7
 40018b4:	2188b03a 	or	r4,r4,r6
 40018b8:	1946b03a 	or	r3,r3,r5
 40018bc:	1906b03a 	or	r3,r3,r4
 40018c0:	80c00015 	stw	r3,0(r16)
  htonl(*NTP_DATA_GRAM_RECV_TSTMP_FRAC(ntp_buffer));
  
 *NTP_DATA_GRAM_TRANS_TSTMP_INT(ntp_buffer) = 
 40018c4:	89000017 	ldw	r4,0(r17)
 40018c8:	21c6703a 	and	r3,r4,r7
 40018cc:	200ad23a 	srli	r5,r4,8
 40018d0:	200c963a 	slli	r6,r4,24
 40018d4:	1806923a 	slli	r3,r3,8
 40018d8:	2008d63a 	srli	r4,r4,24
 40018dc:	29ca703a 	and	r5,r5,r7
 40018e0:	1986b03a 	or	r3,r3,r6
 40018e4:	2148b03a 	or	r4,r4,r5
 40018e8:	20c8b03a 	or	r4,r4,r3
 40018ec:	89000015 	stw	r4,0(r17)
  htonl(*NTP_DATA_GRAM_TRANS_TSTMP_INT(ntp_buffer));
  
 *NTP_DATA_GRAM_TRANS_TSTMP_FRAC(ntp_buffer) = 
 40018f0:	90c00017 	ldw	r3,0(r18)
 40018f4:	19c8703a 	and	r4,r3,r7
 40018f8:	180ad23a 	srli	r5,r3,8
 40018fc:	180c963a 	slli	r6,r3,24
 4001900:	2008923a 	slli	r4,r4,8
 4001904:	1806d63a 	srli	r3,r3,24
 4001908:	29ca703a 	and	r5,r5,r7
 400190c:	2188b03a 	or	r4,r4,r6
 4001910:	1946b03a 	or	r3,r3,r5
 4001914:	1906b03a 	or	r3,r3,r4
 4001918:	90c00015 	stw	r3,0(r18)
  htonl(*NTP_DATA_GRAM_TRANS_TSTMP_FRAC(ntp_buffer));
  
 *NTP_DATA_GRAM_KEY_ID(ntp_buffer) = 
 400191c:	99000017 	ldw	r4,0(r19)
 4001920:	21c6703a 	and	r3,r4,r7
 4001924:	200ad23a 	srli	r5,r4,8
 4001928:	200c963a 	slli	r6,r4,24
 400192c:	1806923a 	slli	r3,r3,8
 4001930:	2008d63a 	srli	r4,r4,24
 4001934:	29ca703a 	and	r5,r5,r7
 4001938:	1986b03a 	or	r3,r3,r6
 400193c:	2148b03a 	or	r4,r4,r5
 4001940:	20c8b03a 	or	r4,r4,r3
 4001944:	99000015 	stw	r4,0(r19)
  htonl(*NTP_DATA_GRAM_KEY_ID(ntp_buffer));
  
 *NTP_DATA_GRAM_MSG_DIG1(ntp_buffer) = 
 4001948:	a0c00017 	ldw	r3,0(r20)
 400194c:	19c8703a 	and	r4,r3,r7
 4001950:	180ad23a 	srli	r5,r3,8
 4001954:	180c963a 	slli	r6,r3,24
 4001958:	2008923a 	slli	r4,r4,8
 400195c:	1806d63a 	srli	r3,r3,24
 4001960:	29ca703a 	and	r5,r5,r7
 4001964:	2188b03a 	or	r4,r4,r6
 4001968:	1946b03a 	or	r3,r3,r5
 400196c:	1906b03a 	or	r3,r3,r4
 4001970:	a0c00015 	stw	r3,0(r20)
  htonl(*NTP_DATA_GRAM_MSG_DIG1(ntp_buffer));
  
 *NTP_DATA_GRAM_MSG_DIG2(ntp_buffer) = 
 4001974:	a9000017 	ldw	r4,0(r21)
 4001978:	21c6703a 	and	r3,r4,r7
 400197c:	200ad23a 	srli	r5,r4,8
 4001980:	200c963a 	slli	r6,r4,24
 4001984:	1806923a 	slli	r3,r3,8
 4001988:	2008d63a 	srli	r4,r4,24
 400198c:	29ca703a 	and	r5,r5,r7
 4001990:	1986b03a 	or	r3,r3,r6
 4001994:	2148b03a 	or	r4,r4,r5
 4001998:	20c8b03a 	or	r4,r4,r3
 400199c:	a9000015 	stw	r4,0(r21)
  htonl(*NTP_DATA_GRAM_MSG_DIG2(ntp_buffer));
  
 *NTP_DATA_GRAM_MSG_DIG3(ntp_buffer) = 
 40019a0:	b0c00017 	ldw	r3,0(r22)
 40019a4:	19c8703a 	and	r4,r3,r7
 40019a8:	180ad23a 	srli	r5,r3,8
 40019ac:	180c963a 	slli	r6,r3,24
 40019b0:	2008923a 	slli	r4,r4,8
 40019b4:	1806d63a 	srli	r3,r3,24
 40019b8:	29ca703a 	and	r5,r5,r7
 40019bc:	2188b03a 	or	r4,r4,r6
 40019c0:	1946b03a 	or	r3,r3,r5
 40019c4:	1906b03a 	or	r3,r3,r4
 40019c8:	b0c00015 	stw	r3,0(r22)
  htonl(*NTP_DATA_GRAM_MSG_DIG3(ntp_buffer));
  
 *NTP_DATA_GRAM_MSG_DIG4(ntp_buffer) = 
 40019cc:	b9000017 	ldw	r4,0(r23)
 40019d0:	21c6703a 	and	r3,r4,r7
 40019d4:	200ad23a 	srli	r5,r4,8
 40019d8:	200c963a 	slli	r6,r4,24
 40019dc:	1806923a 	slli	r3,r3,8
 40019e0:	2008d63a 	srli	r4,r4,24
 40019e4:	29ca703a 	and	r5,r5,r7
 40019e8:	1986b03a 	or	r3,r3,r6
 40019ec:	2148b03a 	or	r4,r4,r5
 40019f0:	20c8b03a 	or	r4,r4,r3
 40019f4:	b9000015 	stw	r4,0(r23)
 
//Convert the NTP host data to network byte order 
 convert_ntp_data_to_net(ntp_buffer);
 
 return 0;
}
 40019f8:	ddc00717 	ldw	r23,28(sp)
 40019fc:	dd800617 	ldw	r22,24(sp)
 4001a00:	dd400517 	ldw	r21,20(sp)
 4001a04:	dd000417 	ldw	r20,16(sp)
 4001a08:	dcc00317 	ldw	r19,12(sp)
 4001a0c:	dc800217 	ldw	r18,8(sp)
 4001a10:	dc400117 	ldw	r17,4(sp)
 4001a14:	dc000017 	ldw	r16,0(sp)
 4001a18:	dec00804 	addi	sp,sp,32
 4001a1c:	f800283a 	ret

04001a20 <init_ntp_data_gram>:
 * The purpose of this function is to initialize a area of memory big enough to
 * hold a NTP data packet and clear the contents.  Care has to be taken when 
 * calling this function as malloc is not tread safe.
 */
alt_u8* init_ntp_data_gram(void)
{
 4001a20:	defffe04 	addi	sp,sp,-8
  alt_u8 *ntp_buffer;

  ntp_buffer = (alt_u8 *)malloc(NTP_BUFFER_SIZE);
 4001a24:	01000c04 	movi	r4,48
 * The purpose of this function is to initialize a area of memory big enough to
 * hold a NTP data packet and clear the contents.  Care has to be taken when 
 * calling this function as malloc is not tread safe.
 */
alt_u8* init_ntp_data_gram(void)
{
 4001a28:	dc000015 	stw	r16,0(sp)
 4001a2c:	dfc00115 	stw	ra,4(sp)
  alt_u8 *ntp_buffer;

  ntp_buffer = (alt_u8 *)malloc(NTP_BUFFER_SIZE);
 4001a30:	4001f4c0 	call	4001f4c <malloc>
 4001a34:	1021883a 	mov	r16,r2

  
  if(ntp_buffer == NULL)
 4001a38:	10000926 	beq	r2,zero,4001a60 <init_ntp_data_gram+0x40>
//    fprintf(lcdDevice, "Memory allocation for NTP buffer failed.\n");
    exit(0);
  }
  else
  {
    memset(ntp_buffer, 0x0, NTP_BUFFER_SIZE);
 4001a3c:	1009883a 	mov	r4,r2
 4001a40:	000b883a 	mov	r5,zero
 4001a44:	01800c04 	movi	r6,48
 4001a48:	40026a00 	call	40026a0 <memset>
  }
 return ntp_buffer;
}
 4001a4c:	8005883a 	mov	r2,r16
 4001a50:	dfc00117 	ldw	ra,4(sp)
 4001a54:	dc000017 	ldw	r16,0(sp)
 4001a58:	dec00204 	addi	sp,sp,8
 4001a5c:	f800283a 	ret
  ntp_buffer = (alt_u8 *)malloc(NTP_BUFFER_SIZE);

  
  if(ntp_buffer == NULL)
  {
    printf("Fatal Error: Program Terminating.  See STDERR\n");
 4001a60:	010100f4 	movhi	r4,1027
 4001a64:	2107f404 	addi	r4,r4,8144
 4001a68:	4002fec0 	call	4002fec <puts>
//    fprintf(lcdDevice, "Memory allocation for NTP buffer failed.\n");
    exit(0);
 4001a6c:	0009883a 	mov	r4,zero
 4001a70:	4001d8c0 	call	4001d8c <exit>

04001a74 <lcddisplaytime_task>:
  struct tm *pt_time_struct = &time_struct;
  alt_u8 char_array1[32];
  alt_u8 char_array2[32];
  INT8U  ucos_retcode = OS_NO_ERR;

  OSSemPend(lcd_sem, 0, &ucos_retcode);
 4001a74:	d127e817 	ldw	r4,-24672(gp)
/*
 * This task is called once a second to update the LCD display with the 
 * current system time.  
 */
void lcddisplaytime_task(void *pdata)
{
 4001a78:	deffe504 	addi	sp,sp,-108
  struct tm *pt_time_struct = &time_struct;
  alt_u8 char_array1[32];
  alt_u8 char_array2[32];
  INT8U  ucos_retcode = OS_NO_ERR;

  OSSemPend(lcd_sem, 0, &ucos_retcode);
 4001a7c:	000b883a 	mov	r5,zero
 4001a80:	d80d883a 	mov	r6,sp
/*
 * This task is called once a second to update the LCD display with the 
 * current system time.  
 */
void lcddisplaytime_task(void *pdata)
{
 4001a84:	dd001915 	stw	r20,100(sp)
 4001a88:	dcc01815 	stw	r19,96(sp)
 4001a8c:	dc801715 	stw	r18,92(sp)
 4001a90:	dc001515 	stw	r16,84(sp)
 4001a94:	dfc01a15 	stw	ra,104(sp)
 4001a98:	dc401615 	stw	r17,88(sp)
  struct timeval time = {0, 0};
 4001a9c:	d8000315 	stw	zero,12(sp)
 4001aa0:	d8000415 	stw	zero,16(sp)
  struct timezone zone = {0, 0};
 4001aa4:	d8000115 	stw	zero,4(sp)
 4001aa8:	d8000215 	stw	zero,8(sp)
  struct tm time_struct;
  struct tm *pt_time_struct = &time_struct;
  alt_u8 char_array1[32];
  alt_u8 char_array2[32];
  INT8U  ucos_retcode = OS_NO_ERR;
 4001aac:	d8000005 	stb	zero,0(sp)
 4001ab0:	dcc00304 	addi	r19,sp,12

  OSSemPend(lcd_sem, 0, &ucos_retcode);
 4001ab4:	4011ba40 	call	4011ba4 <OSSemPend>
 4001ab8:	dd000104 	addi	r20,sp,4
 4001abc:	dc800d04 	addi	r18,sp,52
 4001ac0:	dc000504 	addi	r16,sp,20
 4001ac4:	00001f06 	br	4001b44 <lcddisplaytime_task+0xd0>
    if(gettimeofday(&time, &zone) < 0)
    {
      printf("Error get the time of day %s\n", strerror(errno));
      exit(0);
    }
    OSSchedUnlock();
 4001ac8:	400f6f80 	call	400f6f8 <OSSchedUnlock>
  
    pt_time_struct = gmtime(&time.tv_sec);
 4001acc:	9809883a 	mov	r4,r19
 4001ad0:	4001f000 	call	4001f00 <gmtime>

    strftime(char_array1, 32, "%a %b %d,%Y", pt_time_struct);
 4001ad4:	100f883a 	mov	r7,r2
 4001ad8:	018100f4 	movhi	r6,1027
 4001adc:	31880804 	addi	r6,r6,8224
 4001ae0:	9009883a 	mov	r4,r18
 4001ae4:	01400804 	movi	r5,32
      printf("Error get the time of day %s\n", strerror(errno));
      exit(0);
    }
    OSSchedUnlock();
  
    pt_time_struct = gmtime(&time.tv_sec);
 4001ae8:	1023883a 	mov	r17,r2

    strftime(char_array1, 32, "%a %b %d,%Y", pt_time_struct);
 4001aec:	40038700 	call	4003870 <strftime>
    printf("DATE: %s\n", char_array1);
 4001af0:	900b883a 	mov	r5,r18
 4001af4:	010100f4 	movhi	r4,1027
 4001af8:	21080b04 	addi	r4,r4,8236
 4001afc:	4002ed40 	call	4002ed4 <printf>
    
    strftime(char_array2, 32, "%I:%M:%S %p GMT", pt_time_struct);
 4001b00:	880f883a 	mov	r7,r17
 4001b04:	018100f4 	movhi	r6,1027
 4001b08:	31880e04 	addi	r6,r6,8248
 4001b0c:	8009883a 	mov	r4,r16
 4001b10:	01400804 	movi	r5,32
 4001b14:	40038700 	call	4003870 <strftime>
    printf("TIME: %s\n", char_array2);
 4001b18:	800b883a 	mov	r5,r16
 4001b1c:	010100f4 	movhi	r4,1027
 4001b20:	21081204 	addi	r4,r4,8264
 4001b24:	4002ed40 	call	4002ed4 <printf>

    OSSemPost(lcd_sem);
 4001b28:	d127e817 	ldw	r4,-24672(gp)
 4001b2c:	4011e780 	call	4011e78 <OSSemPost>

    OSTimeDlyHMSM(0,0,10,0);
 4001b30:	000b883a 	mov	r5,zero
 4001b34:	0009883a 	mov	r4,zero
 4001b38:	01800284 	movi	r6,10
 4001b3c:	000f883a 	mov	r7,zero
 4001b40:	40130740 	call	4013074 <OSTimeDlyHMSM>
  OSSemPend(lcd_sem, 0, &ucos_retcode);
    
  while(1)
  {

    OSSchedLock();
 4001b44:	400f6b00 	call	400f6b0 <OSSchedLock>
    if(gettimeofday(&time, &zone) < 0)
 4001b48:	9809883a 	mov	r4,r19
 4001b4c:	a00b883a 	mov	r5,r20
 4001b50:	400df180 	call	400df18 <gettimeofday>
 4001b54:	103fdc0e 	bge	r2,zero,4001ac8 <lcddisplaytime_task+0x54>
    {
      printf("Error get the time of day %s\n", strerror(errno));
 4001b58:	4001d7c0 	call	4001d7c <__errno>
 4001b5c:	11000017 	ldw	r4,0(r2)
 4001b60:	40030700 	call	4003070 <strerror>
 4001b64:	100b883a 	mov	r5,r2
 4001b68:	010100f4 	movhi	r4,1027
 4001b6c:	21080004 	addi	r4,r4,8192
 4001b70:	4002ed40 	call	4002ed4 <printf>
      exit(0);
 4001b74:	0009883a 	mov	r4,zero
 4001b78:	4001d8c0 	call	4001d8c <exit>

04001b7c <setclock>:

/*
 * This function sets the system clock time.  
 */
int setclock(alt_u32 seconds)
{
 4001b7c:	defffa04 	addi	sp,sp,-24
 4001b80:	dc400415 	stw	r17,16(sp)
   * NTP Time is seconds since 1900 
   * Convert to Unix time which is seconds since 1970
   */
  seconds -= NTP_TO_UNIX_TIME;
  
  time.tv_sec = seconds;
 4001b84:	009f15b4 	movhi	r2,31830
 4001b88:	10a06004 	addi	r2,r2,-32384

  printf("Setting System Clock time to: %s\n",ctime(&time.tv_sec));
 4001b8c:	dc400204 	addi	r17,sp,8
   * NTP Time is seconds since 1900 
   * Convert to Unix time which is seconds since 1970
   */
  seconds -= NTP_TO_UNIX_TIME;
  
  time.tv_sec = seconds;
 4001b90:	2087883a 	add	r3,r4,r2

  printf("Setting System Clock time to: %s\n",ctime(&time.tv_sec));
 4001b94:	8809883a 	mov	r4,r17

/*
 * This function sets the system clock time.  
 */
int setclock(alt_u32 seconds)
{
 4001b98:	dfc00515 	stw	ra,20(sp)
   * NTP Time is seconds since 1900 
   * Convert to Unix time which is seconds since 1970
   */
  seconds -= NTP_TO_UNIX_TIME;
  
  time.tv_sec = seconds;
 4001b9c:	d8c00215 	stw	r3,8(sp)
/*
 * This function sets the system clock time.  
 */
int setclock(alt_u32 seconds)
{
  struct timeval time = {0, 0};
 4001ba0:	d8000315 	stw	zero,12(sp)
  struct timezone zone = {0, 0};
 4001ba4:	d8000015 	stw	zero,0(sp)
 4001ba8:	d8000115 	stw	zero,4(sp)
   */
  seconds -= NTP_TO_UNIX_TIME;
  
  time.tv_sec = seconds;

  printf("Setting System Clock time to: %s\n",ctime(&time.tv_sec));
 4001bac:	4001d600 	call	4001d60 <ctime>
 4001bb0:	100b883a 	mov	r5,r2
 4001bb4:	010100f4 	movhi	r4,1027
 4001bb8:	21081504 	addi	r4,r4,8276
 4001bbc:	4002ed40 	call	4002ed4 <printf>
  //settimeofday() can not be called at the same time as gettimeofday()
  OSSchedLock();  
 4001bc0:	400f6b00 	call	400f6b0 <OSSchedLock>
  //settimeofday(&time, &zone);
  if(settimeofday(&time, &zone) < 0)
 4001bc4:	8809883a 	mov	r4,r17
 4001bc8:	d80b883a 	mov	r5,sp
 4001bcc:	400e4280 	call	400e428 <settimeofday>
 4001bd0:	10000616 	blt	r2,zero,4001bec <setclock+0x70>
  {
    printf("Error set the time of day %s\n", strerror(errno));
    exit(0);
  }
  OSSchedUnlock();
 4001bd4:	400f6f80 	call	400f6f8 <OSSchedUnlock>

  return 0;
}
 4001bd8:	0005883a 	mov	r2,zero
 4001bdc:	dfc00517 	ldw	ra,20(sp)
 4001be0:	dc400417 	ldw	r17,16(sp)
 4001be4:	dec00604 	addi	sp,sp,24
 4001be8:	f800283a 	ret
  //settimeofday() can not be called at the same time as gettimeofday()
  OSSchedLock();  
  //settimeofday(&time, &zone);
  if(settimeofday(&time, &zone) < 0)
  {
    printf("Error set the time of day %s\n", strerror(errno));
 4001bec:	4001d7c0 	call	4001d7c <__errno>
 4001bf0:	11000017 	ldw	r4,0(r2)
 4001bf4:	40030700 	call	4003070 <strerror>
 4001bf8:	100b883a 	mov	r5,r2
 4001bfc:	010100f4 	movhi	r4,1027
 4001c00:	21081e04 	addi	r4,r4,8312
 4001c04:	4002ed40 	call	4002ed4 <printf>
    exit(0);
 4001c08:	0009883a 	mov	r4,zero
 4001c0c:	4001d8c0 	call	4001d8c <exit>

04001c10 <SOFT_PHY_link_status_read>:

	/* If duplex == Full */
	// link_status |= 0x1;

	return link_status;
}
 4001c10:	00800204 	movi	r2,8
 4001c14:	f800283a 	ret

04001c18 <setup_phy>:

void setup_phy(void)
{
 4001c18:	deffce04 	addi	sp,sp,-200
	alt_tse_system_mac sys_mac = {TSE_SYSTEM_MAC(ETHERNET_1)};
 4001c1c:	00804034 	movhi	r2,256
 4001c20:	10840004 	addi	r2,r2,4096
 4001c24:	00c10004 	movi	r3,1024
 4001c28:	d8800815 	stw	r2,32(sp)
 4001c2c:	d8c0090d 	sth	r3,36(sp)
 4001c30:	00820004 	movi	r2,2048
	alt_tse_system_sgdma sys_sgdma = {TSE_SYSTEM_SGDMA(SGDMA_TX, SGDMA_RX)};
 4001c34:	00c100f4 	movhi	r3,1027
 4001c38:	18c82604 	addi	r3,r3,8344
	alt_tse_system_desc_mem sys_mem = {TSE_SYSTEM_NO_DESC_MEM()};
	alt_tse_system_shared_fifo sys_sfifo = {TSE_SYSTEM_NO_SHARED_FIFO()};
	alt_tse_system_phy sys_phy = {TSE_SYSTEM_PHY(1, NULL)};//no mdio

	alt_tse_system_add_sys(&sys_mac, &sys_sgdma, &sys_mem, &sys_sfifo, &sys_phy);
 4001c3c:	d9c00d04 	addi	r7,sp,52

	return link_status;
}

void setup_phy(void)
{
 4001c40:	dd003015 	stw	r20,192(sp)
 4001c44:	dcc02f15 	stw	r19,188(sp)
 4001c48:	dc802e15 	stw	r18,184(sp)
 4001c4c:	dc002d15 	stw	r16,180(sp)
	alt_tse_system_mac sys_mac = {TSE_SYSTEM_MAC(ETHERNET_1)};
	alt_tse_system_sgdma sys_sgdma = {TSE_SYSTEM_SGDMA(SGDMA_TX, SGDMA_RX)};
 4001c50:	05000044 	movi	r20,1
	return link_status;
}

void setup_phy(void)
{
	alt_tse_system_mac sys_mac = {TSE_SYSTEM_MAC(ETHERNET_1)};
 4001c54:	04000044 	movi	r16,1
	alt_tse_system_sgdma sys_sgdma = {TSE_SYSTEM_SGDMA(SGDMA_TX, SGDMA_RX)};
	alt_tse_system_desc_mem sys_mem = {TSE_SYSTEM_NO_DESC_MEM()};
	alt_tse_system_shared_fifo sys_sfifo = {TSE_SYSTEM_NO_SHARED_FIFO()};
	alt_tse_system_phy sys_phy = {TSE_SYSTEM_PHY(1, NULL)};//no mdio
 4001c58:	04c00044 	movi	r19,1

	alt_tse_system_add_sys(&sys_mac, &sys_sgdma, &sys_mem, &sys_sfifo, &sys_phy);
 4001c5c:	d9000804 	addi	r4,sp,32
 4001c60:	d9400504 	addi	r5,sp,20
 4001c64:	d9800104 	addi	r6,sp,4
			0, /* Location of Speed Status (ignored) */
			0, /* Location of Duplex Status (ignored) */
			0, /* Location of Link Status (ignored) */
			0, /* No function pointer */
			&SOFT_PHY_link_status_read /* Function pointer to read from PHY specific status register */
	};
 4001c68:	dc801404 	addi	r18,sp,80
	return link_status;
}

void setup_phy(void)
{
	alt_tse_system_mac sys_mac = {TSE_SYSTEM_MAC(ETHERNET_1)};
 4001c6c:	d880098d 	sth	r2,38(sp)
	alt_tse_system_sgdma sys_sgdma = {TSE_SYSTEM_SGDMA(SGDMA_TX, SGDMA_RX)};
 4001c70:	d8c00515 	stw	r3,20(sp)
 4001c74:	008100f4 	movhi	r2,1027
 4001c78:	10882a04 	addi	r2,r2,8360
	alt_tse_system_desc_mem sys_mem = {TSE_SYSTEM_NO_DESC_MEM()};
	alt_tse_system_shared_fifo sys_sfifo = {TSE_SYSTEM_NO_SHARED_FIFO()};
	alt_tse_system_phy sys_phy = {TSE_SYSTEM_PHY(1, NULL)};//no mdio

	alt_tse_system_add_sys(&sys_mac, &sys_sgdma, &sys_mem, &sys_sfifo, &sys_phy);
 4001c7c:	d8c00304 	addi	r3,sp,12

	return link_status;
}

void setup_phy(void)
{
 4001c80:	dfc03115 	stw	ra,196(sp)
	alt_tse_system_sgdma sys_sgdma = {TSE_SYSTEM_SGDMA(SGDMA_TX, SGDMA_RX)};
	alt_tse_system_desc_mem sys_mem = {TSE_SYSTEM_NO_DESC_MEM()};
	alt_tse_system_shared_fifo sys_sfifo = {TSE_SYSTEM_NO_SHARED_FIFO()};
	alt_tse_system_phy sys_phy = {TSE_SYSTEM_PHY(1, NULL)};//no mdio

	alt_tse_system_add_sys(&sys_mac, &sys_sgdma, &sys_mem, &sys_sfifo, &sys_phy);
 4001c84:	d8c00015 	stw	r3,0(sp)
}

void setup_phy(void)
{
	alt_tse_system_mac sys_mac = {TSE_SYSTEM_MAC(ETHERNET_1)};
	alt_tse_system_sgdma sys_sgdma = {TSE_SYSTEM_SGDMA(SGDMA_TX, SGDMA_RX)};
 4001c88:	d8800615 	stw	r2,24(sp)
	return link_status;
}

void setup_phy(void)
{
	alt_tse_system_mac sys_mac = {TSE_SYSTEM_MAC(ETHERNET_1)};
 4001c8c:	d8000a05 	stb	zero,40(sp)
 4001c90:	dc000a45 	stb	r16,41(sp)
 4001c94:	d8000a85 	stb	zero,42(sp)
 4001c98:	d8000ac5 	stb	zero,43(sp)
 4001c9c:	dc000b05 	stb	r16,44(sp)
 4001ca0:	d8000b45 	stb	zero,45(sp)
 4001ca4:	dc000b85 	stb	r16,46(sp)
 4001ca8:	d8000bc5 	stb	zero,47(sp)
 4001cac:	d8000c05 	stb	zero,48(sp)
	alt_tse_system_sgdma sys_sgdma = {TSE_SYSTEM_SGDMA(SGDMA_TX, SGDMA_RX)};
 4001cb0:	dd00070d 	sth	r20,28(sp)
	alt_tse_system_desc_mem sys_mem = {TSE_SYSTEM_NO_DESC_MEM()};
 4001cb4:	d8000105 	stb	zero,4(sp)
 4001cb8:	d8000215 	stw	zero,8(sp)
	alt_tse_system_shared_fifo sys_sfifo = {TSE_SYSTEM_NO_SHARED_FIFO()};
 4001cbc:	d8000d05 	stb	zero,52(sp)
 4001cc0:	d8000e15 	stw	zero,56(sp)
 4001cc4:	d8000f15 	stw	zero,60(sp)
 4001cc8:	d8001015 	stw	zero,64(sp)
 4001ccc:	d8001115 	stw	zero,68(sp)
 4001cd0:	d8001215 	stw	zero,72(sp)
 4001cd4:	d8001315 	stw	zero,76(sp)
	alt_tse_system_phy sys_phy = {TSE_SYSTEM_PHY(1, NULL)};//no mdio
 4001cd8:	dcc00315 	stw	r19,12(sp)
 4001cdc:	d8000415 	stw	zero,16(sp)

	alt_tse_system_add_sys(&sys_mac, &sys_sgdma, &sys_mem, &sys_sfifo, &sys_phy);
 4001ce0:	40160f80 	call	40160f8 <alt_tse_system_add_sys>
			0, /* Location of Speed Status (ignored) */
			0, /* Location of Duplex Status (ignored) */
			0, /* Location of Link Status (ignored) */
			0, /* No function pointer */
			&SOFT_PHY_link_status_read /* Function pointer to read from PHY specific status register */
	};
 4001ce4:	9009883a 	mov	r4,r18
 4001ce8:	000b883a 	mov	r5,zero
 4001cec:	01801904 	movi	r6,100
 4001cf0:	40026a00 	call	40026a0 <memset>
 4001cf4:	00c100f4 	movhi	r3,1027
 4001cf8:	18c82e04 	addi	r3,r3,8376
 4001cfc:	1a000203 	ldbu	r8,8(r3)
 4001d00:	18800017 	ldw	r2,0(r3)
 4001d04:	19c00117 	ldw	r7,4(r3)
 4001d08:	d9001644 	addi	r4,sp,89
 4001d0c:	000b883a 	mov	r5,zero
 4001d10:	018011c4 	movi	r6,71
 4001d14:	d9c01515 	stw	r7,84(sp)
 4001d18:	da001605 	stb	r8,88(sp)
 4001d1c:	d8801415 	stw	r2,80(sp)
 4001d20:	40026a00 	call	40026a0 <memset>
 4001d24:	00810034 	movhi	r2,1024
 4001d28:	10870404 	addi	r2,r2,7184

	alt_tse_phy_add_profile(&SOFT_PHY);
 4001d2c:	9009883a 	mov	r4,r18
			0, /* Location of Speed Status (ignored) */
			0, /* Location of Duplex Status (ignored) */
			0, /* Location of Link Status (ignored) */
			0, /* No function pointer */
			&SOFT_PHY_link_status_read /* Function pointer to read from PHY specific status register */
	};
 4001d30:	dcc02815 	stw	r19,160(sp)
 4001d34:	dd002905 	stb	r20,164(sp)
 4001d38:	dc002945 	stb	r16,165(sp)
 4001d3c:	d8802c15 	stw	r2,176(sp)

	alt_tse_phy_add_profile(&SOFT_PHY);
 4001d40:	401643c0 	call	401643c <alt_tse_phy_add_profile>
}
 4001d44:	dfc03117 	ldw	ra,196(sp)
 4001d48:	dd003017 	ldw	r20,192(sp)
 4001d4c:	dcc02f17 	ldw	r19,188(sp)
 4001d50:	dc802e17 	ldw	r18,184(sp)
 4001d54:	dc002d17 	ldw	r16,180(sp)
 4001d58:	dec03204 	addi	sp,sp,200
 4001d5c:	f800283a 	ret

04001d60 <ctime>:
 4001d60:	deffff04 	addi	sp,sp,-4
 4001d64:	dfc00015 	stw	ra,0(sp)
 4001d68:	4001f1c0 	call	4001f1c <localtime>
 4001d6c:	1009883a 	mov	r4,r2
 4001d70:	dfc00017 	ldw	ra,0(sp)
 4001d74:	dec00104 	addi	sp,sp,4
 4001d78:	40069e01 	jmpi	40069e0 <asctime>

04001d7c <__errno>:
 4001d7c:	00c10134 	movhi	r3,1028
 4001d80:	18e0f704 	addi	r3,r3,-31780
 4001d84:	18800017 	ldw	r2,0(r3)
 4001d88:	f800283a 	ret

04001d8c <exit>:
 4001d8c:	defffe04 	addi	sp,sp,-8
 4001d90:	000b883a 	mov	r5,zero
 4001d94:	dc000015 	stw	r16,0(sp)
 4001d98:	dfc00115 	stw	ra,4(sp)
 4001d9c:	2021883a 	mov	r16,r4
 4001da0:	40068180 	call	4006818 <__call_exitprocs>
 4001da4:	00810134 	movhi	r2,1028
 4001da8:	10a0f804 	addi	r2,r2,-31776
 4001dac:	11000017 	ldw	r4,0(r2)
 4001db0:	20800f17 	ldw	r2,60(r4)
 4001db4:	10000126 	beq	r2,zero,4001dbc <exit+0x30>
 4001db8:	103ee83a 	callr	r2
 4001dbc:	8009883a 	mov	r4,r16
 4001dc0:	400de680 	call	400de68 <_exit>

04001dc4 <fprintf>:
 4001dc4:	defffc04 	addi	sp,sp,-16
 4001dc8:	dfc00115 	stw	ra,4(sp)
 4001dcc:	d9800215 	stw	r6,8(sp)
 4001dd0:	d9c00315 	stw	r7,12(sp)
 4001dd4:	d8800204 	addi	r2,sp,8
 4001dd8:	100d883a 	mov	r6,r2
 4001ddc:	d8800015 	stw	r2,0(sp)
 4001de0:	40066b40 	call	40066b4 <__vfprintf_internal>
 4001de4:	dfc00117 	ldw	ra,4(sp)
 4001de8:	dec00404 	addi	sp,sp,16
 4001dec:	f800283a 	ret

04001df0 <_fprintf_r>:
 4001df0:	defffd04 	addi	sp,sp,-12
 4001df4:	2807883a 	mov	r3,r5
 4001df8:	dfc00115 	stw	ra,4(sp)
 4001dfc:	d9c00215 	stw	r7,8(sp)
 4001e00:	d8800204 	addi	r2,sp,8
 4001e04:	300b883a 	mov	r5,r6
 4001e08:	1809883a 	mov	r4,r3
 4001e0c:	100d883a 	mov	r6,r2
 4001e10:	d8800015 	stw	r2,0(sp)
 4001e14:	40066b40 	call	40066b4 <__vfprintf_internal>
 4001e18:	dfc00117 	ldw	ra,4(sp)
 4001e1c:	dec00304 	addi	sp,sp,12
 4001e20:	f800283a 	ret

04001e24 <_fwrite_r>:
 4001e24:	defff604 	addi	sp,sp,-40
 4001e28:	dc400615 	stw	r17,24(sp)
 4001e2c:	39a3383a 	mul	r17,r7,r6
 4001e30:	00800044 	movi	r2,1
 4001e34:	dcc00815 	stw	r19,32(sp)
 4001e38:	dc800715 	stw	r18,28(sp)
 4001e3c:	dc000515 	stw	r16,20(sp)
 4001e40:	dfc00915 	stw	ra,36(sp)
 4001e44:	3825883a 	mov	r18,r7
 4001e48:	3027883a 	mov	r19,r6
 4001e4c:	2021883a 	mov	r16,r4
 4001e50:	d9400015 	stw	r5,0(sp)
 4001e54:	d8800315 	stw	r2,12(sp)
 4001e58:	dc400115 	stw	r17,4(sp)
 4001e5c:	dc400415 	stw	r17,16(sp)
 4001e60:	dec00215 	stw	sp,8(sp)
 4001e64:	20000226 	beq	r4,zero,4001e70 <_fwrite_r+0x4c>
 4001e68:	20800e17 	ldw	r2,56(r4)
 4001e6c:	10001226 	beq	r2,zero,4001eb8 <_fwrite_r+0x94>
 4001e70:	d9400a17 	ldw	r5,40(sp)
 4001e74:	8009883a 	mov	r4,r16
 4001e78:	d9800204 	addi	r6,sp,8
 4001e7c:	4008ccc0 	call	4008ccc <__sfvwrite_r>
 4001e80:	980b883a 	mov	r5,r19
 4001e84:	10000426 	beq	r2,zero,4001e98 <_fwrite_r+0x74>
 4001e88:	d9000417 	ldw	r4,16(sp)
 4001e8c:	8909c83a 	sub	r4,r17,r4
 4001e90:	400d82c0 	call	400d82c <__udivsi3>
 4001e94:	1025883a 	mov	r18,r2
 4001e98:	9005883a 	mov	r2,r18
 4001e9c:	dfc00917 	ldw	ra,36(sp)
 4001ea0:	dcc00817 	ldw	r19,32(sp)
 4001ea4:	dc800717 	ldw	r18,28(sp)
 4001ea8:	dc400617 	ldw	r17,24(sp)
 4001eac:	dc000517 	ldw	r16,20(sp)
 4001eb0:	dec00a04 	addi	sp,sp,40
 4001eb4:	f800283a 	ret
 4001eb8:	40084e80 	call	40084e8 <__sinit>
 4001ebc:	003fec06 	br	4001e70 <_fwrite_r+0x4c>

04001ec0 <fwrite>:
 4001ec0:	00810134 	movhi	r2,1028
 4001ec4:	10a0f704 	addi	r2,r2,-31780
 4001ec8:	2017883a 	mov	r11,r4
 4001ecc:	11000017 	ldw	r4,0(r2)
 4001ed0:	defffe04 	addi	sp,sp,-8
 4001ed4:	3013883a 	mov	r9,r6
 4001ed8:	2805883a 	mov	r2,r5
 4001edc:	d9c00015 	stw	r7,0(sp)
 4001ee0:	580b883a 	mov	r5,r11
 4001ee4:	100d883a 	mov	r6,r2
 4001ee8:	480f883a 	mov	r7,r9
 4001eec:	dfc00115 	stw	ra,4(sp)
 4001ef0:	4001e240 	call	4001e24 <_fwrite_r>
 4001ef4:	dfc00117 	ldw	ra,4(sp)
 4001ef8:	dec00204 	addi	sp,sp,8
 4001efc:	f800283a 	ret

04001f00 <gmtime>:
 4001f00:	00810134 	movhi	r2,1028
 4001f04:	10a0f704 	addi	r2,r2,-31780
 4001f08:	11400017 	ldw	r5,0(r2)
 4001f0c:	29401f04 	addi	r5,r5,124
 4001f10:	4001f141 	jmpi	4001f14 <gmtime_r>

04001f14 <gmtime_r>:
 4001f14:	01800044 	movi	r6,1
 4001f18:	400296c1 	jmpi	400296c <_mktm_r>

04001f1c <localtime>:
 4001f1c:	00810134 	movhi	r2,1028
 4001f20:	10a0f704 	addi	r2,r2,-31780
 4001f24:	11400017 	ldw	r5,0(r2)
 4001f28:	29401f04 	addi	r5,r5,124
 4001f2c:	4001f301 	jmpi	4001f30 <localtime_r>

04001f30 <localtime_r>:
 4001f30:	000d883a 	mov	r6,zero
 4001f34:	400296c1 	jmpi	400296c <_mktm_r>

04001f38 <free>:
 4001f38:	00810134 	movhi	r2,1028
 4001f3c:	10a0f704 	addi	r2,r2,-31780
 4001f40:	200b883a 	mov	r5,r4
 4001f44:	11000017 	ldw	r4,0(r2)
 4001f48:	40089b81 	jmpi	40089b8 <_free_r>

04001f4c <malloc>:
 4001f4c:	00810134 	movhi	r2,1028
 4001f50:	10a0f704 	addi	r2,r2,-31780
 4001f54:	200b883a 	mov	r5,r4
 4001f58:	11000017 	ldw	r4,0(r2)
 4001f5c:	4001f601 	jmpi	4001f60 <_malloc_r>

04001f60 <_malloc_r>:
 4001f60:	defff604 	addi	sp,sp,-40
 4001f64:	28c002c4 	addi	r3,r5,11
 4001f68:	00800584 	movi	r2,22
 4001f6c:	dc800215 	stw	r18,8(sp)
 4001f70:	dfc00915 	stw	ra,36(sp)
 4001f74:	df000815 	stw	fp,32(sp)
 4001f78:	ddc00715 	stw	r23,28(sp)
 4001f7c:	dd800615 	stw	r22,24(sp)
 4001f80:	dd400515 	stw	r21,20(sp)
 4001f84:	dd000415 	stw	r20,16(sp)
 4001f88:	dcc00315 	stw	r19,12(sp)
 4001f8c:	dc400115 	stw	r17,4(sp)
 4001f90:	dc000015 	stw	r16,0(sp)
 4001f94:	2025883a 	mov	r18,r4
 4001f98:	10c01236 	bltu	r2,r3,4001fe4 <_malloc_r+0x84>
 4001f9c:	04400404 	movi	r17,16
 4001fa0:	8940142e 	bgeu	r17,r5,4001ff4 <_malloc_r+0x94>
 4001fa4:	00800304 	movi	r2,12
 4001fa8:	0007883a 	mov	r3,zero
 4001fac:	90800015 	stw	r2,0(r18)
 4001fb0:	1805883a 	mov	r2,r3
 4001fb4:	dfc00917 	ldw	ra,36(sp)
 4001fb8:	df000817 	ldw	fp,32(sp)
 4001fbc:	ddc00717 	ldw	r23,28(sp)
 4001fc0:	dd800617 	ldw	r22,24(sp)
 4001fc4:	dd400517 	ldw	r21,20(sp)
 4001fc8:	dd000417 	ldw	r20,16(sp)
 4001fcc:	dcc00317 	ldw	r19,12(sp)
 4001fd0:	dc800217 	ldw	r18,8(sp)
 4001fd4:	dc400117 	ldw	r17,4(sp)
 4001fd8:	dc000017 	ldw	r16,0(sp)
 4001fdc:	dec00a04 	addi	sp,sp,40
 4001fe0:	f800283a 	ret
 4001fe4:	00bffe04 	movi	r2,-8
 4001fe8:	18a2703a 	and	r17,r3,r2
 4001fec:	883fed16 	blt	r17,zero,4001fa4 <_malloc_r+0x44>
 4001ff0:	897fec36 	bltu	r17,r5,4001fa4 <_malloc_r+0x44>
 4001ff4:	9009883a 	mov	r4,r18
 4001ff8:	400e7b80 	call	400e7b8 <__malloc_lock>
 4001ffc:	00807dc4 	movi	r2,503
 4002000:	14402b2e 	bgeu	r2,r17,40020b0 <_malloc_r+0x150>
 4002004:	8806d27a 	srli	r3,r17,9
 4002008:	18003f1e 	bne	r3,zero,4002108 <_malloc_r+0x1a8>
 400200c:	880cd0fa 	srli	r6,r17,3
 4002010:	300490fa 	slli	r2,r6,3
 4002014:	02c100f4 	movhi	r11,1027
 4002018:	5adac304 	addi	r11,r11,27404
 400201c:	12cb883a 	add	r5,r2,r11
 4002020:	2c000317 	ldw	r16,12(r5)
 4002024:	580f883a 	mov	r7,r11
 4002028:	2c00041e 	bne	r5,r16,400203c <_malloc_r+0xdc>
 400202c:	00000a06 	br	4002058 <_malloc_r+0xf8>
 4002030:	1800860e 	bge	r3,zero,400224c <_malloc_r+0x2ec>
 4002034:	84000317 	ldw	r16,12(r16)
 4002038:	2c000726 	beq	r5,r16,4002058 <_malloc_r+0xf8>
 400203c:	80800117 	ldw	r2,4(r16)
 4002040:	00ffff04 	movi	r3,-4
 4002044:	10c8703a 	and	r4,r2,r3
 4002048:	2447c83a 	sub	r3,r4,r17
 400204c:	008003c4 	movi	r2,15
 4002050:	10fff70e 	bge	r2,r3,4002030 <_malloc_r+0xd0>
 4002054:	31bfffc4 	addi	r6,r6,-1
 4002058:	32400044 	addi	r9,r6,1
 400205c:	028100f4 	movhi	r10,1027
 4002060:	529ac504 	addi	r10,r10,27412
 4002064:	54000217 	ldw	r16,8(r10)
 4002068:	8280a026 	beq	r16,r10,40022ec <_malloc_r+0x38c>
 400206c:	80800117 	ldw	r2,4(r16)
 4002070:	00ffff04 	movi	r3,-4
 4002074:	10ca703a 	and	r5,r2,r3
 4002078:	2c4dc83a 	sub	r6,r5,r17
 400207c:	008003c4 	movi	r2,15
 4002080:	11808316 	blt	r2,r6,4002290 <_malloc_r+0x330>
 4002084:	52800315 	stw	r10,12(r10)
 4002088:	52800215 	stw	r10,8(r10)
 400208c:	30002916 	blt	r6,zero,4002134 <_malloc_r+0x1d4>
 4002090:	8147883a 	add	r3,r16,r5
 4002094:	18800117 	ldw	r2,4(r3)
 4002098:	9009883a 	mov	r4,r18
 400209c:	10800054 	ori	r2,r2,1
 40020a0:	18800115 	stw	r2,4(r3)
 40020a4:	400e7580 	call	400e758 <__malloc_unlock>
 40020a8:	80c00204 	addi	r3,r16,8
 40020ac:	003fc006 	br	4001fb0 <_malloc_r+0x50>
 40020b0:	02c100f4 	movhi	r11,1027
 40020b4:	5adac304 	addi	r11,r11,27404
 40020b8:	8ac5883a 	add	r2,r17,r11
 40020bc:	14000317 	ldw	r16,12(r2)
 40020c0:	580f883a 	mov	r7,r11
 40020c4:	8806d0fa 	srli	r3,r17,3
 40020c8:	14006c26 	beq	r2,r16,400227c <_malloc_r+0x31c>
 40020cc:	80c00117 	ldw	r3,4(r16)
 40020d0:	00bfff04 	movi	r2,-4
 40020d4:	81800317 	ldw	r6,12(r16)
 40020d8:	1886703a 	and	r3,r3,r2
 40020dc:	80c7883a 	add	r3,r16,r3
 40020e0:	18800117 	ldw	r2,4(r3)
 40020e4:	81400217 	ldw	r5,8(r16)
 40020e8:	9009883a 	mov	r4,r18
 40020ec:	10800054 	ori	r2,r2,1
 40020f0:	18800115 	stw	r2,4(r3)
 40020f4:	31400215 	stw	r5,8(r6)
 40020f8:	29800315 	stw	r6,12(r5)
 40020fc:	400e7580 	call	400e758 <__malloc_unlock>
 4002100:	80c00204 	addi	r3,r16,8
 4002104:	003faa06 	br	4001fb0 <_malloc_r+0x50>
 4002108:	00800104 	movi	r2,4
 400210c:	10c0052e 	bgeu	r2,r3,4002124 <_malloc_r+0x1c4>
 4002110:	00800504 	movi	r2,20
 4002114:	10c07836 	bltu	r2,r3,40022f8 <_malloc_r+0x398>
 4002118:	198016c4 	addi	r6,r3,91
 400211c:	300490fa 	slli	r2,r6,3
 4002120:	003fbc06 	br	4002014 <_malloc_r+0xb4>
 4002124:	8804d1ba 	srli	r2,r17,6
 4002128:	11800e04 	addi	r6,r2,56
 400212c:	300490fa 	slli	r2,r6,3
 4002130:	003fb806 	br	4002014 <_malloc_r+0xb4>
 4002134:	00807fc4 	movi	r2,511
 4002138:	1140bb36 	bltu	r2,r5,4002428 <_malloc_r+0x4c8>
 400213c:	2806d0fa 	srli	r3,r5,3
 4002140:	573ffe04 	addi	fp,r10,-8
 4002144:	00800044 	movi	r2,1
 4002148:	180890fa 	slli	r4,r3,3
 400214c:	1807d0ba 	srai	r3,r3,2
 4002150:	e1c00117 	ldw	r7,4(fp)
 4002154:	5909883a 	add	r4,r11,r4
 4002158:	21400217 	ldw	r5,8(r4)
 400215c:	10c4983a 	sll	r2,r2,r3
 4002160:	81000315 	stw	r4,12(r16)
 4002164:	81400215 	stw	r5,8(r16)
 4002168:	388eb03a 	or	r7,r7,r2
 400216c:	2c000315 	stw	r16,12(r5)
 4002170:	24000215 	stw	r16,8(r4)
 4002174:	e1c00115 	stw	r7,4(fp)
 4002178:	4807883a 	mov	r3,r9
 400217c:	4800cd16 	blt	r9,zero,40024b4 <_malloc_r+0x554>
 4002180:	1807d0ba 	srai	r3,r3,2
 4002184:	00800044 	movi	r2,1
 4002188:	10c8983a 	sll	r4,r2,r3
 400218c:	39004436 	bltu	r7,r4,40022a0 <_malloc_r+0x340>
 4002190:	21c4703a 	and	r2,r4,r7
 4002194:	10000a1e 	bne	r2,zero,40021c0 <_malloc_r+0x260>
 4002198:	2109883a 	add	r4,r4,r4
 400219c:	00bfff04 	movi	r2,-4
 40021a0:	4884703a 	and	r2,r9,r2
 40021a4:	3906703a 	and	r3,r7,r4
 40021a8:	12400104 	addi	r9,r2,4
 40021ac:	1800041e 	bne	r3,zero,40021c0 <_malloc_r+0x260>
 40021b0:	2109883a 	add	r4,r4,r4
 40021b4:	3904703a 	and	r2,r7,r4
 40021b8:	4a400104 	addi	r9,r9,4
 40021bc:	103ffc26 	beq	r2,zero,40021b0 <_malloc_r+0x250>
 40021c0:	480490fa 	slli	r2,r9,3
 40021c4:	4819883a 	mov	r12,r9
 40021c8:	023fff04 	movi	r8,-4
 40021cc:	589b883a 	add	r13,r11,r2
 40021d0:	6807883a 	mov	r3,r13
 40021d4:	014003c4 	movi	r5,15
 40021d8:	1c000317 	ldw	r16,12(r3)
 40021dc:	1c00041e 	bne	r3,r16,40021f0 <_malloc_r+0x290>
 40021e0:	0000a706 	br	4002480 <_malloc_r+0x520>
 40021e4:	3000ab0e 	bge	r6,zero,4002494 <_malloc_r+0x534>
 40021e8:	84000317 	ldw	r16,12(r16)
 40021ec:	1c00a426 	beq	r3,r16,4002480 <_malloc_r+0x520>
 40021f0:	80800117 	ldw	r2,4(r16)
 40021f4:	1204703a 	and	r2,r2,r8
 40021f8:	144dc83a 	sub	r6,r2,r17
 40021fc:	29bff90e 	bge	r5,r6,40021e4 <_malloc_r+0x284>
 4002200:	81000317 	ldw	r4,12(r16)
 4002204:	80c00217 	ldw	r3,8(r16)
 4002208:	89400054 	ori	r5,r17,1
 400220c:	8445883a 	add	r2,r16,r17
 4002210:	20c00215 	stw	r3,8(r4)
 4002214:	19000315 	stw	r4,12(r3)
 4002218:	81400115 	stw	r5,4(r16)
 400221c:	1187883a 	add	r3,r2,r6
 4002220:	31000054 	ori	r4,r6,1
 4002224:	50800315 	stw	r2,12(r10)
 4002228:	50800215 	stw	r2,8(r10)
 400222c:	19800015 	stw	r6,0(r3)
 4002230:	11000115 	stw	r4,4(r2)
 4002234:	12800215 	stw	r10,8(r2)
 4002238:	12800315 	stw	r10,12(r2)
 400223c:	9009883a 	mov	r4,r18
 4002240:	400e7580 	call	400e758 <__malloc_unlock>
 4002244:	80c00204 	addi	r3,r16,8
 4002248:	003f5906 	br	4001fb0 <_malloc_r+0x50>
 400224c:	8109883a 	add	r4,r16,r4
 4002250:	20800117 	ldw	r2,4(r4)
 4002254:	80c00217 	ldw	r3,8(r16)
 4002258:	81400317 	ldw	r5,12(r16)
 400225c:	10800054 	ori	r2,r2,1
 4002260:	20800115 	stw	r2,4(r4)
 4002264:	28c00215 	stw	r3,8(r5)
 4002268:	19400315 	stw	r5,12(r3)
 400226c:	9009883a 	mov	r4,r18
 4002270:	400e7580 	call	400e758 <__malloc_unlock>
 4002274:	80c00204 	addi	r3,r16,8
 4002278:	003f4d06 	br	4001fb0 <_malloc_r+0x50>
 400227c:	80800204 	addi	r2,r16,8
 4002280:	14000317 	ldw	r16,12(r2)
 4002284:	143f911e 	bne	r2,r16,40020cc <_malloc_r+0x16c>
 4002288:	1a400084 	addi	r9,r3,2
 400228c:	003f7306 	br	400205c <_malloc_r+0xfc>
 4002290:	88c00054 	ori	r3,r17,1
 4002294:	8445883a 	add	r2,r16,r17
 4002298:	80c00115 	stw	r3,4(r16)
 400229c:	003fdf06 	br	400221c <_malloc_r+0x2bc>
 40022a0:	e4000217 	ldw	r16,8(fp)
 40022a4:	00bfff04 	movi	r2,-4
 40022a8:	80c00117 	ldw	r3,4(r16)
 40022ac:	802d883a 	mov	r22,r16
 40022b0:	18aa703a 	and	r21,r3,r2
 40022b4:	ac401636 	bltu	r21,r17,4002310 <_malloc_r+0x3b0>
 40022b8:	ac49c83a 	sub	r4,r21,r17
 40022bc:	008003c4 	movi	r2,15
 40022c0:	1100130e 	bge	r2,r4,4002310 <_malloc_r+0x3b0>
 40022c4:	88800054 	ori	r2,r17,1
 40022c8:	8447883a 	add	r3,r16,r17
 40022cc:	80800115 	stw	r2,4(r16)
 40022d0:	20800054 	ori	r2,r4,1
 40022d4:	18800115 	stw	r2,4(r3)
 40022d8:	e0c00215 	stw	r3,8(fp)
 40022dc:	9009883a 	mov	r4,r18
 40022e0:	400e7580 	call	400e758 <__malloc_unlock>
 40022e4:	80c00204 	addi	r3,r16,8
 40022e8:	003f3106 	br	4001fb0 <_malloc_r+0x50>
 40022ec:	39c00117 	ldw	r7,4(r7)
 40022f0:	573ffe04 	addi	fp,r10,-8
 40022f4:	003fa006 	br	4002178 <_malloc_r+0x218>
 40022f8:	00801504 	movi	r2,84
 40022fc:	10c06736 	bltu	r2,r3,400249c <_malloc_r+0x53c>
 4002300:	8804d33a 	srli	r2,r17,12
 4002304:	11801b84 	addi	r6,r2,110
 4002308:	300490fa 	slli	r2,r6,3
 400230c:	003f4106 	br	4002014 <_malloc_r+0xb4>
 4002310:	d0a7e917 	ldw	r2,-24668(gp)
 4002314:	d0e00317 	ldw	r3,-32756(gp)
 4002318:	053fffc4 	movi	r20,-1
 400231c:	10800404 	addi	r2,r2,16
 4002320:	88a7883a 	add	r19,r17,r2
 4002324:	1d000326 	beq	r3,r20,4002334 <_malloc_r+0x3d4>
 4002328:	98c3ffc4 	addi	r3,r19,4095
 400232c:	00bc0004 	movi	r2,-4096
 4002330:	18a6703a 	and	r19,r3,r2
 4002334:	9009883a 	mov	r4,r18
 4002338:	980b883a 	mov	r5,r19
 400233c:	40030000 	call	4003000 <_sbrk_r>
 4002340:	1009883a 	mov	r4,r2
 4002344:	15000426 	beq	r2,r20,4002358 <_malloc_r+0x3f8>
 4002348:	854b883a 	add	r5,r16,r21
 400234c:	1029883a 	mov	r20,r2
 4002350:	11405a2e 	bgeu	r2,r5,40024bc <_malloc_r+0x55c>
 4002354:	87000c26 	beq	r16,fp,4002388 <_malloc_r+0x428>
 4002358:	e4000217 	ldw	r16,8(fp)
 400235c:	80c00117 	ldw	r3,4(r16)
 4002360:	00bfff04 	movi	r2,-4
 4002364:	1884703a 	and	r2,r3,r2
 4002368:	14400336 	bltu	r2,r17,4002378 <_malloc_r+0x418>
 400236c:	1449c83a 	sub	r4,r2,r17
 4002370:	008003c4 	movi	r2,15
 4002374:	113fd316 	blt	r2,r4,40022c4 <_malloc_r+0x364>
 4002378:	9009883a 	mov	r4,r18
 400237c:	400e7580 	call	400e758 <__malloc_unlock>
 4002380:	0007883a 	mov	r3,zero
 4002384:	003f0a06 	br	4001fb0 <_malloc_r+0x50>
 4002388:	05c10134 	movhi	r23,1028
 400238c:	bde96604 	addi	r23,r23,-23144
 4002390:	b8800017 	ldw	r2,0(r23)
 4002394:	988d883a 	add	r6,r19,r2
 4002398:	b9800015 	stw	r6,0(r23)
 400239c:	d0e00317 	ldw	r3,-32756(gp)
 40023a0:	00bfffc4 	movi	r2,-1
 40023a4:	18808e26 	beq	r3,r2,40025e0 <_malloc_r+0x680>
 40023a8:	2145c83a 	sub	r2,r4,r5
 40023ac:	3085883a 	add	r2,r6,r2
 40023b0:	b8800015 	stw	r2,0(r23)
 40023b4:	20c001cc 	andi	r3,r4,7
 40023b8:	18005f1e 	bne	r3,zero,4002538 <_malloc_r+0x5d8>
 40023bc:	000b883a 	mov	r5,zero
 40023c0:	a4c5883a 	add	r2,r20,r19
 40023c4:	1083ffcc 	andi	r2,r2,4095
 40023c8:	00c40004 	movi	r3,4096
 40023cc:	1887c83a 	sub	r3,r3,r2
 40023d0:	28e7883a 	add	r19,r5,r3
 40023d4:	9009883a 	mov	r4,r18
 40023d8:	980b883a 	mov	r5,r19
 40023dc:	40030000 	call	4003000 <_sbrk_r>
 40023e0:	1007883a 	mov	r3,r2
 40023e4:	00bfffc4 	movi	r2,-1
 40023e8:	18807a26 	beq	r3,r2,40025d4 <_malloc_r+0x674>
 40023ec:	1d05c83a 	sub	r2,r3,r20
 40023f0:	9885883a 	add	r2,r19,r2
 40023f4:	10c00054 	ori	r3,r2,1
 40023f8:	b8800017 	ldw	r2,0(r23)
 40023fc:	a021883a 	mov	r16,r20
 4002400:	a0c00115 	stw	r3,4(r20)
 4002404:	9885883a 	add	r2,r19,r2
 4002408:	b8800015 	stw	r2,0(r23)
 400240c:	e5000215 	stw	r20,8(fp)
 4002410:	b7003626 	beq	r22,fp,40024ec <_malloc_r+0x58c>
 4002414:	018003c4 	movi	r6,15
 4002418:	35404b36 	bltu	r6,r21,4002548 <_malloc_r+0x5e8>
 400241c:	00800044 	movi	r2,1
 4002420:	a0800115 	stw	r2,4(r20)
 4002424:	003fcd06 	br	400235c <_malloc_r+0x3fc>
 4002428:	2808d27a 	srli	r4,r5,9
 400242c:	2000371e 	bne	r4,zero,400250c <_malloc_r+0x5ac>
 4002430:	2808d0fa 	srli	r4,r5,3
 4002434:	200690fa 	slli	r3,r4,3
 4002438:	1ad1883a 	add	r8,r3,r11
 400243c:	41800217 	ldw	r6,8(r8)
 4002440:	41805b26 	beq	r8,r6,40025b0 <_malloc_r+0x650>
 4002444:	30800117 	ldw	r2,4(r6)
 4002448:	00ffff04 	movi	r3,-4
 400244c:	10c4703a 	and	r2,r2,r3
 4002450:	2880022e 	bgeu	r5,r2,400245c <_malloc_r+0x4fc>
 4002454:	31800217 	ldw	r6,8(r6)
 4002458:	41bffa1e 	bne	r8,r6,4002444 <_malloc_r+0x4e4>
 400245c:	32000317 	ldw	r8,12(r6)
 4002460:	39c00117 	ldw	r7,4(r7)
 4002464:	82000315 	stw	r8,12(r16)
 4002468:	81800215 	stw	r6,8(r16)
 400246c:	070100f4 	movhi	fp,1027
 4002470:	e71ac304 	addi	fp,fp,27404
 4002474:	34000315 	stw	r16,12(r6)
 4002478:	44000215 	stw	r16,8(r8)
 400247c:	003f3e06 	br	4002178 <_malloc_r+0x218>
 4002480:	63000044 	addi	r12,r12,1
 4002484:	608000cc 	andi	r2,r12,3
 4002488:	10005d26 	beq	r2,zero,4002600 <_malloc_r+0x6a0>
 400248c:	18c00204 	addi	r3,r3,8
 4002490:	003f5106 	br	40021d8 <_malloc_r+0x278>
 4002494:	8089883a 	add	r4,r16,r2
 4002498:	003f6d06 	br	4002250 <_malloc_r+0x2f0>
 400249c:	00805504 	movi	r2,340
 40024a0:	10c02036 	bltu	r2,r3,4002524 <_malloc_r+0x5c4>
 40024a4:	8804d3fa 	srli	r2,r17,15
 40024a8:	11801dc4 	addi	r6,r2,119
 40024ac:	300490fa 	slli	r2,r6,3
 40024b0:	003ed806 	br	4002014 <_malloc_r+0xb4>
 40024b4:	48c000c4 	addi	r3,r9,3
 40024b8:	003f3106 	br	4002180 <_malloc_r+0x220>
 40024bc:	05c10134 	movhi	r23,1028
 40024c0:	bde96604 	addi	r23,r23,-23144
 40024c4:	b8800017 	ldw	r2,0(r23)
 40024c8:	988d883a 	add	r6,r19,r2
 40024cc:	b9800015 	stw	r6,0(r23)
 40024d0:	293fb21e 	bne	r5,r4,400239c <_malloc_r+0x43c>
 40024d4:	2083ffcc 	andi	r2,r4,4095
 40024d8:	103fb01e 	bne	r2,zero,400239c <_malloc_r+0x43c>
 40024dc:	e4000217 	ldw	r16,8(fp)
 40024e0:	9d45883a 	add	r2,r19,r21
 40024e4:	10800054 	ori	r2,r2,1
 40024e8:	80800115 	stw	r2,4(r16)
 40024ec:	b8c00017 	ldw	r3,0(r23)
 40024f0:	d0a7ea17 	ldw	r2,-24664(gp)
 40024f4:	10c0012e 	bgeu	r2,r3,40024fc <_malloc_r+0x59c>
 40024f8:	d0e7ea15 	stw	r3,-24664(gp)
 40024fc:	d0a7eb17 	ldw	r2,-24660(gp)
 4002500:	10ff962e 	bgeu	r2,r3,400235c <_malloc_r+0x3fc>
 4002504:	d0e7eb15 	stw	r3,-24660(gp)
 4002508:	003f9406 	br	400235c <_malloc_r+0x3fc>
 400250c:	00800104 	movi	r2,4
 4002510:	11001e36 	bltu	r2,r4,400258c <_malloc_r+0x62c>
 4002514:	2804d1ba 	srli	r2,r5,6
 4002518:	11000e04 	addi	r4,r2,56
 400251c:	200690fa 	slli	r3,r4,3
 4002520:	003fc506 	br	4002438 <_malloc_r+0x4d8>
 4002524:	00815504 	movi	r2,1364
 4002528:	10c01d2e 	bgeu	r2,r3,40025a0 <_malloc_r+0x640>
 400252c:	01801f84 	movi	r6,126
 4002530:	0080fc04 	movi	r2,1008
 4002534:	003eb706 	br	4002014 <_malloc_r+0xb4>
 4002538:	00800204 	movi	r2,8
 400253c:	10cbc83a 	sub	r5,r2,r3
 4002540:	2169883a 	add	r20,r4,r5
 4002544:	003f9e06 	br	40023c0 <_malloc_r+0x460>
 4002548:	00bffe04 	movi	r2,-8
 400254c:	a93ffd04 	addi	r4,r21,-12
 4002550:	2088703a 	and	r4,r4,r2
 4002554:	b10b883a 	add	r5,r22,r4
 4002558:	00c00144 	movi	r3,5
 400255c:	28c00215 	stw	r3,8(r5)
 4002560:	28c00115 	stw	r3,4(r5)
 4002564:	b0800117 	ldw	r2,4(r22)
 4002568:	1080004c 	andi	r2,r2,1
 400256c:	2084b03a 	or	r2,r4,r2
 4002570:	b0800115 	stw	r2,4(r22)
 4002574:	313fdd2e 	bgeu	r6,r4,40024ec <_malloc_r+0x58c>
 4002578:	b1400204 	addi	r5,r22,8
 400257c:	9009883a 	mov	r4,r18
 4002580:	40089b80 	call	40089b8 <_free_r>
 4002584:	e4000217 	ldw	r16,8(fp)
 4002588:	003fd806 	br	40024ec <_malloc_r+0x58c>
 400258c:	00800504 	movi	r2,20
 4002590:	11001536 	bltu	r2,r4,40025e8 <_malloc_r+0x688>
 4002594:	210016c4 	addi	r4,r4,91
 4002598:	200690fa 	slli	r3,r4,3
 400259c:	003fa606 	br	4002438 <_malloc_r+0x4d8>
 40025a0:	8804d4ba 	srli	r2,r17,18
 40025a4:	11801f04 	addi	r6,r2,124
 40025a8:	300490fa 	slli	r2,r6,3
 40025ac:	003e9906 	br	4002014 <_malloc_r+0xb4>
 40025b0:	2009d0ba 	srai	r4,r4,2
 40025b4:	014100f4 	movhi	r5,1027
 40025b8:	295ac304 	addi	r5,r5,27404
 40025bc:	00c00044 	movi	r3,1
 40025c0:	28800117 	ldw	r2,4(r5)
 40025c4:	1906983a 	sll	r3,r3,r4
 40025c8:	10c4b03a 	or	r2,r2,r3
 40025cc:	28800115 	stw	r2,4(r5)
 40025d0:	003fa306 	br	4002460 <_malloc_r+0x500>
 40025d4:	0027883a 	mov	r19,zero
 40025d8:	00c00044 	movi	r3,1
 40025dc:	003f8606 	br	40023f8 <_malloc_r+0x498>
 40025e0:	d1200315 	stw	r4,-32756(gp)
 40025e4:	003f7306 	br	40023b4 <_malloc_r+0x454>
 40025e8:	00801504 	movi	r2,84
 40025ec:	11001936 	bltu	r2,r4,4002654 <_malloc_r+0x6f4>
 40025f0:	2804d33a 	srli	r2,r5,12
 40025f4:	11001b84 	addi	r4,r2,110
 40025f8:	200690fa 	slli	r3,r4,3
 40025fc:	003f8e06 	br	4002438 <_malloc_r+0x4d8>
 4002600:	480b883a 	mov	r5,r9
 4002604:	6807883a 	mov	r3,r13
 4002608:	288000cc 	andi	r2,r5,3
 400260c:	18fffe04 	addi	r3,r3,-8
 4002610:	297fffc4 	addi	r5,r5,-1
 4002614:	10001526 	beq	r2,zero,400266c <_malloc_r+0x70c>
 4002618:	18800217 	ldw	r2,8(r3)
 400261c:	10fffa26 	beq	r2,r3,4002608 <_malloc_r+0x6a8>
 4002620:	2109883a 	add	r4,r4,r4
 4002624:	393f1e36 	bltu	r7,r4,40022a0 <_malloc_r+0x340>
 4002628:	203f1d26 	beq	r4,zero,40022a0 <_malloc_r+0x340>
 400262c:	21c4703a 	and	r2,r4,r7
 4002630:	10000226 	beq	r2,zero,400263c <_malloc_r+0x6dc>
 4002634:	6013883a 	mov	r9,r12
 4002638:	003ee106 	br	40021c0 <_malloc_r+0x260>
 400263c:	2109883a 	add	r4,r4,r4
 4002640:	3904703a 	and	r2,r7,r4
 4002644:	63000104 	addi	r12,r12,4
 4002648:	103ffc26 	beq	r2,zero,400263c <_malloc_r+0x6dc>
 400264c:	6013883a 	mov	r9,r12
 4002650:	003edb06 	br	40021c0 <_malloc_r+0x260>
 4002654:	00805504 	movi	r2,340
 4002658:	11000836 	bltu	r2,r4,400267c <_malloc_r+0x71c>
 400265c:	2804d3fa 	srli	r2,r5,15
 4002660:	11001dc4 	addi	r4,r2,119
 4002664:	200690fa 	slli	r3,r4,3
 4002668:	003f7306 	br	4002438 <_malloc_r+0x4d8>
 400266c:	0104303a 	nor	r2,zero,r4
 4002670:	388e703a 	and	r7,r7,r2
 4002674:	e1c00115 	stw	r7,4(fp)
 4002678:	003fe906 	br	4002620 <_malloc_r+0x6c0>
 400267c:	00815504 	movi	r2,1364
 4002680:	1100032e 	bgeu	r2,r4,4002690 <_malloc_r+0x730>
 4002684:	01001f84 	movi	r4,126
 4002688:	00c0fc04 	movi	r3,1008
 400268c:	003f6a06 	br	4002438 <_malloc_r+0x4d8>
 4002690:	2804d4ba 	srli	r2,r5,18
 4002694:	11001f04 	addi	r4,r2,124
 4002698:	200690fa 	slli	r3,r4,3
 400269c:	003f6606 	br	4002438 <_malloc_r+0x4d8>

040026a0 <memset>:
 40026a0:	008000c4 	movi	r2,3
 40026a4:	29403fcc 	andi	r5,r5,255
 40026a8:	2007883a 	mov	r3,r4
 40026ac:	1180022e 	bgeu	r2,r6,40026b8 <memset+0x18>
 40026b0:	2084703a 	and	r2,r4,r2
 40026b4:	10000826 	beq	r2,zero,40026d8 <memset+0x38>
 40026b8:	30000526 	beq	r6,zero,40026d0 <memset+0x30>
 40026bc:	2805883a 	mov	r2,r5
 40026c0:	30cd883a 	add	r6,r6,r3
 40026c4:	18800005 	stb	r2,0(r3)
 40026c8:	18c00044 	addi	r3,r3,1
 40026cc:	19bffd1e 	bne	r3,r6,40026c4 <memset+0x24>
 40026d0:	2005883a 	mov	r2,r4
 40026d4:	f800283a 	ret
 40026d8:	2804923a 	slli	r2,r5,8
 40026dc:	020003c4 	movi	r8,15
 40026e0:	200f883a 	mov	r7,r4
 40026e4:	2884b03a 	or	r2,r5,r2
 40026e8:	1006943a 	slli	r3,r2,16
 40026ec:	10c6b03a 	or	r3,r2,r3
 40026f0:	41800a2e 	bgeu	r8,r6,400271c <memset+0x7c>
 40026f4:	4005883a 	mov	r2,r8
 40026f8:	31bffc04 	addi	r6,r6,-16
 40026fc:	38c00015 	stw	r3,0(r7)
 4002700:	38c00115 	stw	r3,4(r7)
 4002704:	38c00215 	stw	r3,8(r7)
 4002708:	38c00315 	stw	r3,12(r7)
 400270c:	39c00404 	addi	r7,r7,16
 4002710:	11bff936 	bltu	r2,r6,40026f8 <memset+0x58>
 4002714:	008000c4 	movi	r2,3
 4002718:	1180052e 	bgeu	r2,r6,4002730 <memset+0x90>
 400271c:	31bfff04 	addi	r6,r6,-4
 4002720:	008000c4 	movi	r2,3
 4002724:	38c00015 	stw	r3,0(r7)
 4002728:	39c00104 	addi	r7,r7,4
 400272c:	11bffb36 	bltu	r2,r6,400271c <memset+0x7c>
 4002730:	3807883a 	mov	r3,r7
 4002734:	003fe006 	br	40026b8 <memset+0x18>

04002738 <__tzcalc_limits>:
 4002738:	defff504 	addi	sp,sp,-44
 400273c:	dcc00415 	stw	r19,16(sp)
 4002740:	dc800315 	stw	r18,12(sp)
 4002744:	dfc00a15 	stw	ra,40(sp)
 4002748:	df000915 	stw	fp,36(sp)
 400274c:	ddc00815 	stw	r23,32(sp)
 4002750:	dd800715 	stw	r22,28(sp)
 4002754:	dd400615 	stw	r21,24(sp)
 4002758:	dd000515 	stw	r20,20(sp)
 400275c:	dc400215 	stw	r17,8(sp)
 4002760:	dc000115 	stw	r16,4(sp)
 4002764:	2025883a 	mov	r18,r4
 4002768:	40092e80 	call	40092e8 <__gettzinfo>
 400276c:	1027883a 	mov	r19,r2
 4002770:	0081ec44 	movi	r2,1969
 4002774:	14806e0e 	bge	r2,r18,4002930 <__tzcalc_limits+0x1f8>
 4002778:	943e1384 	addi	r16,r18,-1970
 400277c:	90be13c4 	addi	r2,r18,-1969
 4002780:	1005d0ba 	srai	r2,r2,2
 4002784:	84005b64 	muli	r16,r16,365
 4002788:	913e24c4 	addi	r4,r18,-1901
 400278c:	9c800115 	stw	r18,4(r19)
 4002790:	01401904 	movi	r5,100
 4002794:	80a1883a 	add	r16,r16,r2
 4002798:	400d76c0 	call	400d76c <__divsi3>
 400279c:	913e6fc4 	addi	r4,r18,-1601
 40027a0:	01406404 	movi	r5,400
 40027a4:	80a1c83a 	sub	r16,r16,r2
 40027a8:	400d76c0 	call	400d76c <__divsi3>
 40027ac:	9009883a 	mov	r4,r18
 40027b0:	01406404 	movi	r5,400
 40027b4:	80ad883a 	add	r22,r16,r2
 40027b8:	400d7cc0 	call	400d7cc <__modsi3>
 40027bc:	9009883a 	mov	r4,r18
 40027c0:	01401904 	movi	r5,100
 40027c4:	1023883a 	mov	r17,r2
 40027c8:	400d7cc0 	call	400d7cc <__modsi3>
 40027cc:	90c000cc 	andi	r3,r18,3
 40027d0:	1004c03a 	cmpne	r2,r2,zero
 40027d4:	182ec03a 	cmpne	r23,r3,zero
 40027d8:	d8800015 	stw	r2,0(sp)
 40027dc:	8839003a 	cmpeq	fp,r17,zero
 40027e0:	9825883a 	mov	r18,r19
 40027e4:	0029883a 	mov	r20,zero
 40027e8:	90c00207 	ldb	r3,8(r18)
 40027ec:	00801284 	movi	r2,74
 40027f0:	18804726 	beq	r3,r2,4002910 <__tzcalc_limits+0x1d8>
 40027f4:	00801104 	movi	r2,68
 40027f8:	18804f26 	beq	r3,r2,4002938 <__tzcalc_limits+0x200>
 40027fc:	b8003e26 	beq	r23,zero,40028f8 <__tzcalc_limits+0x1c0>
 4002800:	e0004026 	beq	fp,zero,4002904 <__tzcalc_limits+0x1cc>
 4002804:	044100f4 	movhi	r17,1027
 4002808:	8c484e04 	addi	r17,r17,8504
 400280c:	91400317 	ldw	r5,12(r18)
 4002810:	00800044 	movi	r2,1
 4002814:	1140520e 	bge	r2,r5,4002960 <__tzcalc_limits+0x228>
 4002818:	1009883a 	mov	r4,r2
 400281c:	8807883a 	mov	r3,r17
 4002820:	b021883a 	mov	r16,r22
 4002824:	18800017 	ldw	r2,0(r3)
 4002828:	21000044 	addi	r4,r4,1
 400282c:	18c00104 	addi	r3,r3,4
 4002830:	80a1883a 	add	r16,r16,r2
 4002834:	293ffb1e 	bne	r5,r4,4002824 <__tzcalc_limits+0xec>
 4002838:	2945883a 	add	r2,r5,r5
 400283c:	10ab883a 	add	r21,r2,r2
 4002840:	81000104 	addi	r4,r16,4
 4002844:	014001c4 	movi	r5,7
 4002848:	400d7cc0 	call	400d7cc <__modsi3>
 400284c:	90c00517 	ldw	r3,20(r18)
 4002850:	1889c83a 	sub	r4,r3,r2
 4002854:	20004016 	blt	r4,zero,4002958 <__tzcalc_limits+0x220>
 4002858:	90800417 	ldw	r2,16(r18)
 400285c:	8d47883a 	add	r3,r17,r21
 4002860:	18ffff17 	ldw	r3,-4(r3)
 4002864:	108001e4 	muli	r2,r2,7
 4002868:	10bffe44 	addi	r2,r2,-7
 400286c:	2085883a 	add	r2,r4,r2
 4002870:	10c00216 	blt	r2,r3,400287c <__tzcalc_limits+0x144>
 4002874:	10bffe44 	addi	r2,r2,-7
 4002878:	10fffe0e 	bge	r2,r3,4002874 <__tzcalc_limits+0x13c>
 400287c:	808b883a 	add	r5,r16,r2
 4002880:	90c00617 	ldw	r3,24(r18)
 4002884:	91000817 	ldw	r4,32(r18)
 4002888:	00800074 	movhi	r2,1
 400288c:	10946004 	addi	r2,r2,20864
 4002890:	2885383a 	mul	r2,r5,r2
 4002894:	1907883a 	add	r3,r3,r4
 4002898:	a5000044 	addi	r20,r20,1
 400289c:	10c5883a 	add	r2,r2,r3
 40028a0:	90800715 	stw	r2,28(r18)
 40028a4:	00800084 	movi	r2,2
 40028a8:	94800704 	addi	r18,r18,28
 40028ac:	a0bfce1e 	bne	r20,r2,40027e8 <__tzcalc_limits+0xb0>
 40028b0:	98800717 	ldw	r2,28(r19)
 40028b4:	98c00e17 	ldw	r3,56(r19)
 40028b8:	01000044 	movi	r4,1
 40028bc:	10c4803a 	cmplt	r2,r2,r3
 40028c0:	98800015 	stw	r2,0(r19)
 40028c4:	2005883a 	mov	r2,r4
 40028c8:	dfc00a17 	ldw	ra,40(sp)
 40028cc:	df000917 	ldw	fp,36(sp)
 40028d0:	ddc00817 	ldw	r23,32(sp)
 40028d4:	dd800717 	ldw	r22,28(sp)
 40028d8:	dd400617 	ldw	r21,24(sp)
 40028dc:	dd000517 	ldw	r20,20(sp)
 40028e0:	dcc00417 	ldw	r19,16(sp)
 40028e4:	dc800317 	ldw	r18,12(sp)
 40028e8:	dc400217 	ldw	r17,8(sp)
 40028ec:	dc000117 	ldw	r16,4(sp)
 40028f0:	dec00b04 	addi	sp,sp,44
 40028f4:	f800283a 	ret
 40028f8:	d8800017 	ldw	r2,0(sp)
 40028fc:	103fc11e 	bne	r2,zero,4002804 <__tzcalc_limits+0xcc>
 4002900:	e03fc01e 	bne	fp,zero,4002804 <__tzcalc_limits+0xcc>
 4002904:	044100f4 	movhi	r17,1027
 4002908:	8c484204 	addi	r17,r17,8456
 400290c:	003fbf06 	br	400280c <__tzcalc_limits+0xd4>
 4002910:	90c00517 	ldw	r3,20(r18)
 4002914:	b8000b26 	beq	r23,zero,4002944 <__tzcalc_limits+0x20c>
 4002918:	e0000d26 	beq	fp,zero,4002950 <__tzcalc_limits+0x218>
 400291c:	00800ec4 	movi	r2,59
 4002920:	10c8803a 	cmplt	r4,r2,r3
 4002924:	b0c5883a 	add	r2,r22,r3
 4002928:	208b883a 	add	r5,r4,r2
 400292c:	003fd406 	br	4002880 <__tzcalc_limits+0x148>
 4002930:	0009883a 	mov	r4,zero
 4002934:	003fe306 	br	40028c4 <__tzcalc_limits+0x18c>
 4002938:	90800517 	ldw	r2,20(r18)
 400293c:	b08b883a 	add	r5,r22,r2
 4002940:	003fcf06 	br	4002880 <__tzcalc_limits+0x148>
 4002944:	d8800017 	ldw	r2,0(sp)
 4002948:	103ff41e 	bne	r2,zero,400291c <__tzcalc_limits+0x1e4>
 400294c:	e03ff31e 	bne	fp,zero,400291c <__tzcalc_limits+0x1e4>
 4002950:	0009883a 	mov	r4,zero
 4002954:	003ff306 	br	4002924 <__tzcalc_limits+0x1ec>
 4002958:	210001c4 	addi	r4,r4,7
 400295c:	003fbe06 	br	4002858 <__tzcalc_limits+0x120>
 4002960:	b021883a 	mov	r16,r22
 4002964:	05400104 	movi	r21,4
 4002968:	003fb506 	br	4002840 <__tzcalc_limits+0x108>

0400296c <_mktm_r>:
 400296c:	defff704 	addi	sp,sp,-36
 4002970:	dd400515 	stw	r21,20(sp)
 4002974:	202b883a 	mov	r21,r4
 4002978:	dfc00815 	stw	ra,32(sp)
 400297c:	ddc00715 	stw	r23,28(sp)
 4002980:	dd000415 	stw	r20,16(sp)
 4002984:	302f883a 	mov	r23,r6
 4002988:	dc800215 	stw	r18,8(sp)
 400298c:	dc400115 	stw	r17,4(sp)
 4002990:	dc000015 	stw	r16,0(sp)
 4002994:	2825883a 	mov	r18,r5
 4002998:	dd800615 	stw	r22,24(sp)
 400299c:	dcc00315 	stw	r19,12(sp)
 40029a0:	40092e80 	call	40092e8 <__gettzinfo>
 40029a4:	ac400017 	ldw	r17,0(r21)
 40029a8:	01400074 	movhi	r5,1
 40029ac:	29546004 	addi	r5,r5,20864
 40029b0:	1029883a 	mov	r20,r2
 40029b4:	8809883a 	mov	r4,r17
 40029b8:	400d76c0 	call	400d76c <__divsi3>
 40029bc:	8809883a 	mov	r4,r17
 40029c0:	01400074 	movhi	r5,1
 40029c4:	29546004 	addi	r5,r5,20864
 40029c8:	1021883a 	mov	r16,r2
 40029cc:	400d7cc0 	call	400d7cc <__modsi3>
 40029d0:	1023883a 	mov	r17,r2
 40029d4:	1000050e 	bge	r2,zero,40029ec <_mktm_r+0x80>
 40029d8:	00800074 	movhi	r2,1
 40029dc:	10946004 	addi	r2,r2,20864
 40029e0:	88a3883a 	add	r17,r17,r2
 40029e4:	843fffc4 	addi	r16,r16,-1
 40029e8:	883ffd16 	blt	r17,zero,40029e0 <_mktm_r+0x74>
 40029ec:	00800074 	movhi	r2,1
 40029f0:	10945fc4 	addi	r2,r2,20863
 40029f4:	1440060e 	bge	r2,r17,4002a10 <_mktm_r+0xa4>
 40029f8:	1007883a 	mov	r3,r2
 40029fc:	00bffff4 	movhi	r2,65535
 4002a00:	10aba004 	addi	r2,r2,-20864
 4002a04:	88a3883a 	add	r17,r17,r2
 4002a08:	84000044 	addi	r16,r16,1
 4002a0c:	1c7ffd16 	blt	r3,r17,4002a04 <_mktm_r+0x98>
 4002a10:	8809883a 	mov	r4,r17
 4002a14:	01438404 	movi	r5,3600
 4002a18:	400d76c0 	call	400d76c <__divsi3>
 4002a1c:	90800215 	stw	r2,8(r18)
 4002a20:	8809883a 	mov	r4,r17
 4002a24:	01438404 	movi	r5,3600
 4002a28:	400d7cc0 	call	400d7cc <__modsi3>
 4002a2c:	1009883a 	mov	r4,r2
 4002a30:	01400f04 	movi	r5,60
 4002a34:	1023883a 	mov	r17,r2
 4002a38:	400d76c0 	call	400d76c <__divsi3>
 4002a3c:	90800115 	stw	r2,4(r18)
 4002a40:	8809883a 	mov	r4,r17
 4002a44:	01400f04 	movi	r5,60
 4002a48:	400d7cc0 	call	400d7cc <__modsi3>
 4002a4c:	90800015 	stw	r2,0(r18)
 4002a50:	81000104 	addi	r4,r16,4
 4002a54:	014001c4 	movi	r5,7
 4002a58:	400d7cc0 	call	400d7cc <__modsi3>
 4002a5c:	90800615 	stw	r2,24(r18)
 4002a60:	10003916 	blt	r2,zero,4002b48 <_mktm_r+0x1dc>
 4002a64:	80003b16 	blt	r16,zero,4002b54 <_mktm_r+0x1e8>
 4002a68:	0441ec84 	movi	r17,1970
 4002a6c:	d4e00404 	addi	r19,gp,-32752
 4002a70:	00000206 	br	4002a7c <_mktm_r+0x110>
 4002a74:	80a1c83a 	sub	r16,r16,r2
 4002a78:	8c400044 	addi	r17,r17,1
 4002a7c:	888000cc 	andi	r2,r17,3
 4002a80:	8809883a 	mov	r4,r17
 4002a84:	01401904 	movi	r5,100
 4002a88:	1000031e 	bne	r2,zero,4002a98 <_mktm_r+0x12c>
 4002a8c:	400d7cc0 	call	400d7cc <__modsi3>
 4002a90:	01000044 	movi	r4,1
 4002a94:	1000041e 	bne	r2,zero,4002aa8 <_mktm_r+0x13c>
 4002a98:	8809883a 	mov	r4,r17
 4002a9c:	01406404 	movi	r5,400
 4002aa0:	400d7cc0 	call	400d7cc <__modsi3>
 4002aa4:	1009003a 	cmpeq	r4,r2,zero
 4002aa8:	2105883a 	add	r2,r4,r4
 4002aac:	1085883a 	add	r2,r2,r2
 4002ab0:	14c5883a 	add	r2,r2,r19
 4002ab4:	10800017 	ldw	r2,0(r2)
 4002ab8:	80bfee0e 	bge	r16,r2,4002a74 <_mktm_r+0x108>
 4002abc:	21000c24 	muli	r4,r4,48
 4002ac0:	88be2504 	addi	r2,r17,-1900
 4002ac4:	014100f4 	movhi	r5,1027
 4002ac8:	29484204 	addi	r5,r5,8456
 4002acc:	90800515 	stw	r2,20(r18)
 4002ad0:	94000715 	stw	r16,28(r18)
 4002ad4:	90000415 	stw	zero,16(r18)
 4002ad8:	216d883a 	add	r22,r4,r5
 4002adc:	b0c00017 	ldw	r3,0(r22)
 4002ae0:	80c00916 	blt	r16,r3,4002b08 <_mktm_r+0x19c>
 4002ae4:	28800104 	addi	r2,r5,4
 4002ae8:	2085883a 	add	r2,r4,r2
 4002aec:	01000044 	movi	r4,1
 4002af0:	91000415 	stw	r4,16(r18)
 4002af4:	80e1c83a 	sub	r16,r16,r3
 4002af8:	10c00017 	ldw	r3,0(r2)
 4002afc:	21000044 	addi	r4,r4,1
 4002b00:	10800104 	addi	r2,r2,4
 4002b04:	80fffa0e 	bge	r16,r3,4002af0 <_mktm_r+0x184>
 4002b08:	80800044 	addi	r2,r16,1
 4002b0c:	90800315 	stw	r2,12(r18)
 4002b10:	b8002526 	beq	r23,zero,4002ba8 <_mktm_r+0x23c>
 4002b14:	90000815 	stw	zero,32(r18)
 4002b18:	9005883a 	mov	r2,r18
 4002b1c:	dfc00817 	ldw	ra,32(sp)
 4002b20:	ddc00717 	ldw	r23,28(sp)
 4002b24:	dd800617 	ldw	r22,24(sp)
 4002b28:	dd400517 	ldw	r21,20(sp)
 4002b2c:	dd000417 	ldw	r20,16(sp)
 4002b30:	dcc00317 	ldw	r19,12(sp)
 4002b34:	dc800217 	ldw	r18,8(sp)
 4002b38:	dc400117 	ldw	r17,4(sp)
 4002b3c:	dc000017 	ldw	r16,0(sp)
 4002b40:	dec00904 	addi	sp,sp,36
 4002b44:	f800283a 	ret
 4002b48:	108001c4 	addi	r2,r2,7
 4002b4c:	90800615 	stw	r2,24(r18)
 4002b50:	803fc50e 	bge	r16,zero,4002a68 <_mktm_r+0xfc>
 4002b54:	0441ec84 	movi	r17,1970
 4002b58:	d4e00404 	addi	r19,gp,-32752
 4002b5c:	8c7fffc4 	addi	r17,r17,-1
 4002b60:	888000cc 	andi	r2,r17,3
 4002b64:	8809883a 	mov	r4,r17
 4002b68:	01401904 	movi	r5,100
 4002b6c:	1000031e 	bne	r2,zero,4002b7c <_mktm_r+0x210>
 4002b70:	400d7cc0 	call	400d7cc <__modsi3>
 4002b74:	01000044 	movi	r4,1
 4002b78:	1000041e 	bne	r2,zero,4002b8c <_mktm_r+0x220>
 4002b7c:	8809883a 	mov	r4,r17
 4002b80:	01406404 	movi	r5,400
 4002b84:	400d7cc0 	call	400d7cc <__modsi3>
 4002b88:	1009003a 	cmpeq	r4,r2,zero
 4002b8c:	2105883a 	add	r2,r4,r4
 4002b90:	1085883a 	add	r2,r2,r2
 4002b94:	14c5883a 	add	r2,r2,r19
 4002b98:	10c00017 	ldw	r3,0(r2)
 4002b9c:	80e1883a 	add	r16,r16,r3
 4002ba0:	803fee16 	blt	r16,zero,4002b5c <_mktm_r+0x1f0>
 4002ba4:	003fc506 	br	4002abc <_mktm_r+0x150>
 4002ba8:	40047a00 	call	40047a0 <__tz_lock>
 4002bac:	00810134 	movhi	r2,1028
 4002bb0:	10a8e304 	addi	r2,r2,-23668
 4002bb4:	10c00017 	ldw	r3,0(r2)
 4002bb8:	18000a26 	beq	r3,zero,4002be4 <_mktm_r+0x278>
 4002bbc:	a0800117 	ldw	r2,4(r20)
 4002bc0:	88800326 	beq	r17,r2,4002bd0 <_mktm_r+0x264>
 4002bc4:	8809883a 	mov	r4,r17
 4002bc8:	40027380 	call	4002738 <__tzcalc_limits>
 4002bcc:	10007426 	beq	r2,zero,4002da0 <_mktm_r+0x434>
 4002bd0:	a0800017 	ldw	r2,0(r20)
 4002bd4:	10006b26 	beq	r2,zero,4002d84 <_mktm_r+0x418>
 4002bd8:	a9000017 	ldw	r4,0(r21)
 4002bdc:	a0800717 	ldw	r2,28(r20)
 4002be0:	2080750e 	bge	r4,r2,4002db8 <_mktm_r+0x44c>
 4002be4:	90000815 	stw	zero,32(r18)
 4002be8:	a4c00817 	ldw	r19,32(r20)
 4002bec:	01438404 	movi	r5,3600
 4002bf0:	9809883a 	mov	r4,r19
 4002bf4:	400d7cc0 	call	400d7cc <__modsi3>
 4002bf8:	1009883a 	mov	r4,r2
 4002bfc:	01400f04 	movi	r5,60
 4002c00:	1023883a 	mov	r17,r2
 4002c04:	400d7cc0 	call	400d7cc <__modsi3>
 4002c08:	90c00017 	ldw	r3,0(r18)
 4002c0c:	8809883a 	mov	r4,r17
 4002c10:	01400f04 	movi	r5,60
 4002c14:	1887c83a 	sub	r3,r3,r2
 4002c18:	90c00015 	stw	r3,0(r18)
 4002c1c:	400d76c0 	call	400d76c <__divsi3>
 4002c20:	94000117 	ldw	r16,4(r18)
 4002c24:	9809883a 	mov	r4,r19
 4002c28:	01438404 	movi	r5,3600
 4002c2c:	80a1c83a 	sub	r16,r16,r2
 4002c30:	94000115 	stw	r16,4(r18)
 4002c34:	400d76c0 	call	400d76c <__divsi3>
 4002c38:	91000217 	ldw	r4,8(r18)
 4002c3c:	90c00017 	ldw	r3,0(r18)
 4002c40:	2089c83a 	sub	r4,r4,r2
 4002c44:	00800ec4 	movi	r2,59
 4002c48:	91000215 	stw	r4,8(r18)
 4002c4c:	10c0280e 	bge	r2,r3,4002cf0 <_mktm_r+0x384>
 4002c50:	84000044 	addi	r16,r16,1
 4002c54:	18bff104 	addi	r2,r3,-60
 4002c58:	90800015 	stw	r2,0(r18)
 4002c5c:	94000115 	stw	r16,4(r18)
 4002c60:	00800ec4 	movi	r2,59
 4002c64:	1400410e 	bge	r2,r16,4002d6c <_mktm_r+0x400>
 4002c68:	21000044 	addi	r4,r4,1
 4002c6c:	843ff104 	addi	r16,r16,-60
 4002c70:	94000115 	stw	r16,4(r18)
 4002c74:	91000215 	stw	r4,8(r18)
 4002c78:	008005c4 	movi	r2,23
 4002c7c:	1100220e 	bge	r2,r4,4002d08 <_mktm_r+0x39c>
 4002c80:	90800717 	ldw	r2,28(r18)
 4002c84:	90c00617 	ldw	r3,24(r18)
 4002c88:	10800044 	addi	r2,r2,1
 4002c8c:	18c00044 	addi	r3,r3,1
 4002c90:	90800715 	stw	r2,28(r18)
 4002c94:	00800184 	movi	r2,6
 4002c98:	90c00615 	stw	r3,24(r18)
 4002c9c:	10c0010e 	bge	r2,r3,4002ca4 <_mktm_r+0x338>
 4002ca0:	90000615 	stw	zero,24(r18)
 4002ca4:	91400417 	ldw	r5,16(r18)
 4002ca8:	90c00317 	ldw	r3,12(r18)
 4002cac:	213ffa04 	addi	r4,r4,-24
 4002cb0:	2945883a 	add	r2,r5,r5
 4002cb4:	18c00044 	addi	r3,r3,1
 4002cb8:	1085883a 	add	r2,r2,r2
 4002cbc:	91000215 	stw	r4,8(r18)
 4002cc0:	1585883a 	add	r2,r2,r22
 4002cc4:	90c00315 	stw	r3,12(r18)
 4002cc8:	10800017 	ldw	r2,0(r2)
 4002ccc:	10c0060e 	bge	r2,r3,4002ce8 <_mktm_r+0x37c>
 4002cd0:	1885c83a 	sub	r2,r3,r2
 4002cd4:	29400044 	addi	r5,r5,1
 4002cd8:	90800315 	stw	r2,12(r18)
 4002cdc:	00800304 	movi	r2,12
 4002ce0:	91400415 	stw	r5,16(r18)
 4002ce4:	28803c26 	beq	r5,r2,4002dd8 <_mktm_r+0x46c>
 4002ce8:	40047a40 	call	40047a4 <__tz_unlock>
 4002cec:	003f8a06 	br	4002b18 <_mktm_r+0x1ac>
 4002cf0:	183fdb0e 	bge	r3,zero,4002c60 <_mktm_r+0x2f4>
 4002cf4:	843fffc4 	addi	r16,r16,-1
 4002cf8:	18800f04 	addi	r2,r3,60
 4002cfc:	90800015 	stw	r2,0(r18)
 4002d00:	94000115 	stw	r16,4(r18)
 4002d04:	003fd606 	br	4002c60 <_mktm_r+0x2f4>
 4002d08:	203ff70e 	bge	r4,zero,4002ce8 <_mktm_r+0x37c>
 4002d0c:	90800717 	ldw	r2,28(r18)
 4002d10:	90c00617 	ldw	r3,24(r18)
 4002d14:	10bfffc4 	addi	r2,r2,-1
 4002d18:	18ffffc4 	addi	r3,r3,-1
 4002d1c:	90800715 	stw	r2,28(r18)
 4002d20:	90c00615 	stw	r3,24(r18)
 4002d24:	18003316 	blt	r3,zero,4002df4 <_mktm_r+0x488>
 4002d28:	90800317 	ldw	r2,12(r18)
 4002d2c:	20c00604 	addi	r3,r4,24
 4002d30:	90c00215 	stw	r3,8(r18)
 4002d34:	10bfffc4 	addi	r2,r2,-1
 4002d38:	90800315 	stw	r2,12(r18)
 4002d3c:	103fea1e 	bne	r2,zero,4002ce8 <_mktm_r+0x37c>
 4002d40:	91400417 	ldw	r5,16(r18)
 4002d44:	297fffc4 	addi	r5,r5,-1
 4002d48:	91400415 	stw	r5,16(r18)
